
objs/l1/l2/l3//int-test.elf:     file format elf32-littlearm


Disassembly of section .text:

00008000 <__code_start__>:
    8000:	e3a00013 	mov	r0, #19, 0
    8004:	e3800080 	orr	r0, r0, #128, 0	; 0x80
    8008:	e129f000 	msr	CPSR_fc, r0
    800c:	e3a01000 	mov	r1, #0, 0
    8010:	ee071f95 	mcr	15, 0, r1, cr7, cr5, {4}
    8014:	e3a0d302 	mov	sp, #134217728	; 0x8000000
    8018:	e3a0b000 	mov	fp, #0, 0
    801c:	eb002e93 	bl	13a70 <_cstart>
    8020:	eb002ebf 	bl	13b24 <rpi_reboot>

00008024 <PUT32>:
    8024:	e5801000 	str	r1, [r0]
    8028:	e12fff1e 	bx	lr

0000802c <GET32>:
    802c:	e5900000 	ldr	r0, [r0]
    8030:	e12fff1e 	bx	lr

00008034 <BRANCHTO>:
    8034:	e12fff10 	bx	r0

00008038 <random_four>:
    8038:	e3a00003 	mov	r0, #3, 0
    803c:	e12fff1e 	bx	lr

00008040 <custom_handler>:
    8040:	e92d4070 	push	{r4, r5, r6, lr}
    8044:	eb002ecb 	bl	13b78 <timer_get_usec>
    8048:	e1a04000 	mov	r4, r0
    804c:	e3a0001d 	mov	r0, #29, 0
    8050:	eb002bdf 	bl	12fd4 <gpio_event_detected>
    8054:	e3500000 	cmp	r0, #0, 0
    8058:	1a000021 	bne	80e4 <custom_handler+0xa4>
    805c:	e3a0001a 	mov	r0, #26, 0
    8060:	eb002bdb 	bl	12fd4 <gpio_event_detected>
    8064:	e3500000 	cmp	r0, #0, 0
    8068:	1a00001f 	bne	80ec <custom_handler+0xac>
    806c:	e3a0001b 	mov	r0, #27, 0
    8070:	eb002bd7 	bl	12fd4 <gpio_event_detected>
    8074:	e3500000 	cmp	r0, #0, 0
    8078:	1a000007 	bne	809c <custom_handler+0x5c>
    807c:	e3a0001c 	mov	r0, #28, 0
    8080:	eb002bd3 	bl	12fd4 <gpio_event_detected>
    8084:	e2503000 	subs	r3, r0, #0, 0
    8088:	13a0001c 	movne	r0, #28, 0
    808c:	1a000003 	bne	80a0 <custom_handler+0x60>
    8090:	e59f205c 	ldr	r2, [pc, #92]	; 80f4 <custom_handler+0xb4>
    8094:	e5823010 	str	r3, [r2, #16]
    8098:	e8bd8070 	pop	{r4, r5, r6, pc}
    809c:	e3a0001b 	mov	r0, #27, 0
    80a0:	e59f504c 	ldr	r5, [pc, #76]	; 80f4 <custom_handler+0xb4>
    80a4:	e59f204c 	ldr	r2, [pc, #76]	; 80f8 <custom_handler+0xb8>
    80a8:	e5953000 	ldr	r3, [r5]
    80ac:	e0443003 	sub	r3, r4, r3
    80b0:	e1530002 	cmp	r3, r2
    80b4:	3a000006 	bcc	80d4 <custom_handler+0x94>
    80b8:	e5953004 	ldr	r3, [r5, #4]
    80bc:	e3530000 	cmp	r3, #0, 0
    80c0:	03a03001 	moveq	r3, #1, 0
    80c4:	05854000 	streq	r4, [r5]
    80c8:	05850008 	streq	r0, [r5, #8]
    80cc:	05853004 	streq	r3, [r5, #4]
    80d0:	0585300c 	streq	r3, [r5, #12]
    80d4:	eb002bd8 	bl	1303c <gpio_event_clear>
    80d8:	e3a03001 	mov	r3, #1, 0
    80dc:	e5853010 	str	r3, [r5, #16]
    80e0:	e8bd8070 	pop	{r4, r5, r6, pc}
    80e4:	e3a0001d 	mov	r0, #29, 0
    80e8:	eaffffec 	b	80a0 <custom_handler+0x60>
    80ec:	e3a0001a 	mov	r0, #26, 0
    80f0:	eaffffea 	b	80a0 <custom_handler+0x60>
    80f4:	00017768 	.word	0x00017768
    80f8:	00030d40 	.word	0x00030d40

000080fc <test_cost>:
    80fc:	e92d4ff0 	push	{r4, r5, r6, r7, r8, r9, sl, fp, lr}
    8100:	e1a07000 	mov	r7, r0
    8104:	e24dd00c 	sub	sp, sp, #12, 0
    8108:	e3a0001a 	mov	r0, #26, 0
    810c:	eb002a65 	bl	12aa8 <gpio_read>
    8110:	e2506000 	subs	r6, r0, #0, 0
    8114:	1a000028 	bne	81bc <test_cost+0xc0>
    8118:	e3a05001 	mov	r5, #1, 0
    811c:	e1a08006 	mov	r8, r6
    8120:	e59f40b4 	ldr	r4, [pc, #180]	; 81dc <test_cost+0xe0>
    8124:	e59fa0b4 	ldr	sl, [pc, #180]	; 81e0 <test_cost+0xe4>
    8128:	e5848010 	str	r8, [r4, #16]
    812c:	ee1fbf3c 	mrc	15, 0, fp, cr15, cr12, {1}
    8130:	e1a00007 	mov	r0, r7
    8134:	eb002a30 	bl	129fc <gpio_set_on>
    8138:	e5943010 	ldr	r3, [r4, #16]
    813c:	e3530000 	cmp	r3, #0, 0
    8140:	0afffffc 	beq	8138 <test_cost+0x3c>
    8144:	ee1f2f3c 	mrc	15, 0, r2, cr15, cr12, {1}
    8148:	e042b00b 	sub	fp, r2, fp
    814c:	e1a0200b 	mov	r2, fp
    8150:	e1a0000a 	mov	r0, sl
    8154:	e2451001 	sub	r1, r5, #1, 0
    8158:	eb002cf4 	bl	13530 <printk>
    815c:	e5848010 	str	r8, [r4, #16]
    8160:	ee1f9f3c 	mrc	15, 0, r9, cr15, cr12, {1}
    8164:	e1a00007 	mov	r0, r7
    8168:	eb002a35 	bl	12a44 <gpio_set_off>
    816c:	e5943010 	ldr	r3, [r4, #16]
    8170:	e3530000 	cmp	r3, #0, 0
    8174:	0afffffc 	beq	816c <test_cost+0x70>
    8178:	ee1f2f3c 	mrc	15, 0, r2, cr15, cr12, {1}
    817c:	e59f0060 	ldr	r0, [pc, #96]	; 81e4 <test_cost+0xe8>
    8180:	e1a01005 	mov	r1, r5
    8184:	e0422009 	sub	r2, r2, r9
    8188:	e2855002 	add	r5, r5, #2, 0
    818c:	e08bb002 	add	fp, fp, r2
    8190:	eb002ce6 	bl	13530 <printk>
    8194:	e3550015 	cmp	r5, #21, 0
    8198:	e086600b 	add	r6, r6, fp
    819c:	1affffe1 	bne	8128 <test_cost+0x2c>
    81a0:	e59f1040 	ldr	r1, [pc, #64]	; 81e8 <test_cost+0xec>
    81a4:	e59f0040 	ldr	r0, [pc, #64]	; 81ec <test_cost+0xf0>
    81a8:	e0813691 	umull	r3, r1, r1, r6
    81ac:	e1a01221 	lsr	r1, r1, #4
    81b0:	e28dd00c 	add	sp, sp, #12, 0
    81b4:	e8bd4ff0 	pop	{r4, r5, r6, r7, r8, r9, sl, fp, lr}
    81b8:	ea002cdc 	b	13530 <printk>
    81bc:	e59f202c 	ldr	r2, [pc, #44]	; 81f0 <test_cost+0xf4>
    81c0:	e3a03038 	mov	r3, #56, 0	; 0x38
    81c4:	e59f1028 	ldr	r1, [pc, #40]	; 81f4 <test_cost+0xf8>
    81c8:	e58d2000 	str	r2, [sp]
    81cc:	e59f0024 	ldr	r0, [pc, #36]	; 81f8 <test_cost+0xfc>
    81d0:	e59f2024 	ldr	r2, [pc, #36]	; 81fc <test_cost+0x100>
    81d4:	eb002cd5 	bl	13530 <printk>
    81d8:	eb002e19 	bl	13a44 <clean_reboot>
    81dc:	00017768 	.word	0x00017768
    81e0:	00013fd4 	.word	0x00013fd4
    81e4:	00013fec 	.word	0x00013fec
    81e8:	cccccccd 	.word	0xcccccccd
    81ec:	00014008 	.word	0x00014008
    81f0:	00013fbc 	.word	0x00013fbc
    81f4:	00013f80 	.word	0x00013f80
    81f8:	00013f8c 	.word	0x00013f8c
    81fc:	00014100 	.word	0x00014100

00008200 <notmain>:
    8200:	e52de004 	push	{lr}		; (str lr, [sp, #-4]!)
    8204:	e3a03001 	mov	r3, #1, 0
    8208:	e24dd00c 	sub	sp, sp, #12, 0
    820c:	ee0f3f1c 	mcr	15, 0, r3, cr15, cr12, {0}
    8210:	e3a0001b 	mov	r0, #27, 0
    8214:	eb002a9c 	bl	12c8c <gpio_set_output>
    8218:	e3a0001a 	mov	r0, #26, 0
    821c:	eb002a9e 	bl	12c9c <gpio_set_input>
    8220:	eb002e39 	bl	13b0c <dev_barrier>
    8224:	e3e01000 	mvn	r1, #0, 0
    8228:	e59f00d4 	ldr	r0, [pc, #212]	; 8304 <notmain+0x104>
    822c:	ebffff7c 	bl	8024 <PUT32>
    8230:	e3e01000 	mvn	r1, #0, 0
    8234:	e59f00cc 	ldr	r0, [pc, #204]	; 8308 <notmain+0x108>
    8238:	ebffff79 	bl	8024 <PUT32>
    823c:	eb002e32 	bl	13b0c <dev_barrier>
    8240:	ee1c2f10 	mrc	15, 0, r2, cr12, cr0, {0}
    8244:	e59f30c0 	ldr	r3, [pc, #192]	; 830c <notmain+0x10c>
    8248:	e1520003 	cmp	r2, r3
    824c:	0a000009 	beq	8278 <notmain+0x78>
    8250:	e3520000 	cmp	r2, #0, 0
    8254:	1a00001b 	bne	82c8 <notmain+0xc8>
    8258:	e213201f 	ands	r2, r3, #31, 0
    825c:	1a000012 	bne	82ac <notmain+0xac>
    8260:	ee1c1f10 	mrc	15, 0, r1, cr12, cr0, {0}
    8264:	ee0c3f10 	mcr	15, 0, r3, cr12, cr0, {0}
    8268:	ee072f95 	mcr	15, 0, r2, cr7, cr5, {4}
    826c:	ee1c2f10 	mrc	15, 0, r2, cr12, cr0, {0}
    8270:	e1520003 	cmp	r2, r3
    8274:	1a00001a 	bne	82e4 <notmain+0xe4>
    8278:	e3a0001a 	mov	r0, #26, 0
    827c:	eb002b32 	bl	12f4c <gpio_int_falling_edge>
    8280:	e3a0001a 	mov	r0, #26, 0
    8284:	eb002b0e 	bl	12ec4 <gpio_int_rising_edge>
    8288:	e3a0001a 	mov	r0, #26, 0
    828c:	eb002b6a 	bl	1303c <gpio_event_clear>
    8290:	eb002e0a 	bl	13ac0 <enable_interrupts>
    8294:	e3a0001b 	mov	r0, #27, 0
    8298:	ebffff97 	bl	80fc <test_cost>
    829c:	e59f006c 	ldr	r0, [pc, #108]	; 8310 <notmain+0x110>
    82a0:	e28dd00c 	add	sp, sp, #12, 0
    82a4:	e49de004 	pop	{lr}		; (ldr lr, [sp], #4)
    82a8:	ea002ca0 	b	13530 <printk>
    82ac:	e59f2060 	ldr	r2, [pc, #96]	; 8314 <notmain+0x114>
    82b0:	e59f1060 	ldr	r1, [pc, #96]	; 8318 <notmain+0x118>
    82b4:	e58d3000 	str	r3, [sp]
    82b8:	e59f005c 	ldr	r0, [pc, #92]	; 831c <notmain+0x11c>
    82bc:	e3a03046 	mov	r3, #70, 0	; 0x46
    82c0:	eb002c9a 	bl	13530 <printk>
    82c4:	eb002dde 	bl	13a44 <clean_reboot>
    82c8:	e3a0305f 	mov	r3, #95, 0	; 0x5f
    82cc:	e59f1044 	ldr	r1, [pc, #68]	; 8318 <notmain+0x118>
    82d0:	e58d2000 	str	r2, [sp]
    82d4:	e59f0044 	ldr	r0, [pc, #68]	; 8320 <notmain+0x120>
    82d8:	e59f2044 	ldr	r2, [pc, #68]	; 8324 <notmain+0x124>
    82dc:	eb002c93 	bl	13530 <printk>
    82e0:	eb002dd7 	bl	13a44 <clean_reboot>
    82e4:	e59f203c 	ldr	r2, [pc, #60]	; 8328 <notmain+0x128>
    82e8:	e3a03052 	mov	r3, #82, 0	; 0x52
    82ec:	e59f1024 	ldr	r1, [pc, #36]	; 8318 <notmain+0x118>
    82f0:	e58d2000 	str	r2, [sp]
    82f4:	e59f0030 	ldr	r0, [pc, #48]	; 832c <notmain+0x12c>
    82f8:	e59f2014 	ldr	r2, [pc, #20]	; 8314 <notmain+0x114>
    82fc:	eb002c8b 	bl	13530 <printk>
    8300:	eb002dcf 	bl	13a44 <clean_reboot>
    8304:	2000b21c 	.word	0x2000b21c
    8308:	2000b220 	.word	0x2000b220
    830c:	00008340 	.word	0x00008340
    8310:	000140f0 	.word	0x000140f0
    8314:	0001411c 	.word	0x0001411c
    8318:	00014018 	.word	0x00014018
    831c:	000140ac 	.word	0x000140ac
    8320:	00014074 	.word	0x00014074
    8324:	0001410c 	.word	0x0001410c
    8328:	000140d4 	.word	0x000140d4
    832c:	00013f8c 	.word	0x00013f8c
	...

00008340 <interrupt_vec>:
    8340:	e59ff050 	ldr	pc, [pc, #80]	; 8398 <interrupt_asm+0x1c>
    8344:	e59ff050 	ldr	pc, [pc, #80]	; 839c <interrupt_asm+0x20>
    8348:	e59ff050 	ldr	pc, [pc, #80]	; 83a0 <interrupt_asm+0x24>
    834c:	e59ff050 	ldr	pc, [pc, #80]	; 83a4 <interrupt_asm+0x28>
    8350:	e59ff050 	ldr	pc, [pc, #80]	; 83a8 <interrupt_asm+0x2c>
    8354:	e59ff03c 	ldr	pc, [pc, #60]	; 8398 <interrupt_asm+0x1c>
    8358:	e59ff04c 	ldr	pc, [pc, #76]	; 83ac <interrupt_asm+0x30>

0000835c <fast_interrupt_asm>:
    835c:	e3a0d409 	mov	sp, #150994944	; 0x9000000
    8360:	e24ee004 	sub	lr, lr, #4, 0
    8364:	e52de004 	push	{lr}		; (str lr, [sp, #-4]!)
    8368:	e92d1fff 	push	{r0, r1, r2, r3, r4, r5, r6, r7, r8, r9, sl, fp, ip}
    836c:	e1a0000e 	mov	r0, lr
    8370:	ebffff32 	bl	8040 <custom_handler>
    8374:	e8bd1fff 	pop	{r0, r1, r2, r3, r4, r5, r6, r7, r8, r9, sl, fp, ip}
    8378:	e8fd8000 	ldm	sp!, {pc}^

0000837c <interrupt_asm>:
    837c:	e3a0d409 	mov	sp, #150994944	; 0x9000000
    8380:	e24ee004 	sub	lr, lr, #4, 0
    8384:	e92d5fff 	push	{r0, r1, r2, r3, r4, r5, r6, r7, r8, r9, sl, fp, ip, lr}
    8388:	e1a0000e 	mov	r0, lr
    838c:	ebffff2b 	bl	8040 <custom_handler>
    8390:	e8bd5fff 	pop	{r0, r1, r2, r3, r4, r5, r6, r7, r8, r9, sl, fp, ip, lr}
    8394:	e1b0f00e 	movs	pc, lr
    8398:	00013be8 	.word	0x00013be8
    839c:	00013c04 	.word	0x00013c04
    83a0:	00013c74 	.word	0x00013c74
    83a4:	00013c20 	.word	0x00013c20
    83a8:	00013c3c 	.word	0x00013c3c
    83ac:	0000837c 	.word	0x0000837c

000083b0 <draw_char>:
    83b0:	e92d41f0 	push	{r4, r5, r6, r7, r8, lr}
    83b4:	e3a05008 	mov	r5, #8, 0
    83b8:	e1a0c005 	mov	ip, r5
    83bc:	e1a0e003 	mov	lr, r3
    83c0:	e59f3138 	ldr	r3, [pc, #312]	; 8500 <draw_char+0x150>
    83c4:	e24dd088 	sub	sp, sp, #136, 0	; 0x88
    83c8:	e0233095 	mla	r3, r5, r0, r3
    83cc:	e1dd4ab0 	ldrh	r4, [sp, #160]	; 0xa0
    83d0:	e2433001 	sub	r3, r3, #1, 0
    83d4:	e5f30001 	ldrb	r0, [r3, #1]!
    83d8:	e28d6008 	add	r6, sp, #8, 0
    83dc:	e1b053a0 	lsrs	r5, r0, #7
    83e0:	01a07004 	moveq	r7, r4
    83e4:	11a0700e 	movne	r7, lr
    83e8:	e086608c 	add	r6, r6, ip, lsl #1
    83ec:	024c5007 	subeq	r5, ip, #7, 0
    83f0:	124c5007 	subne	r5, ip, #7, 0
    83f4:	e3100040 	tst	r0, #64, 0	; 0x40
    83f8:	e14671b0 	strh	r7, [r6, #-16]
    83fc:	01a07004 	moveq	r7, r4
    8400:	11a0700e 	movne	r7, lr
    8404:	e28d8088 	add	r8, sp, #136, 0	; 0x88
    8408:	e0885085 	add	r5, r8, r5, lsl #1
    840c:	024c6006 	subeq	r6, ip, #6, 0
    8410:	124c6006 	subne	r6, ip, #6, 0
    8414:	e3100020 	tst	r0, #32, 0
    8418:	e14578b0 	strh	r7, [r5, #-128]	; 0xffffff80
    841c:	01a07004 	moveq	r7, r4
    8420:	11a0700e 	movne	r7, lr
    8424:	e28d8088 	add	r8, sp, #136, 0	; 0x88
    8428:	e0886086 	add	r6, r8, r6, lsl #1
    842c:	024c5005 	subeq	r5, ip, #5, 0
    8430:	124c5005 	subne	r5, ip, #5, 0
    8434:	e3100010 	tst	r0, #16, 0
    8438:	e14678b0 	strh	r7, [r6, #-128]	; 0xffffff80
    843c:	01a07004 	moveq	r7, r4
    8440:	11a0700e 	movne	r7, lr
    8444:	e28d8088 	add	r8, sp, #136, 0	; 0x88
    8448:	e0885085 	add	r5, r8, r5, lsl #1
    844c:	024c6004 	subeq	r6, ip, #4, 0
    8450:	124c6004 	subne	r6, ip, #4, 0
    8454:	e3100008 	tst	r0, #8, 0
    8458:	e14578b0 	strh	r7, [r5, #-128]	; 0xffffff80
    845c:	01a07004 	moveq	r7, r4
    8460:	11a0700e 	movne	r7, lr
    8464:	e28d8088 	add	r8, sp, #136, 0	; 0x88
    8468:	e0886086 	add	r6, r8, r6, lsl #1
    846c:	024c5003 	subeq	r5, ip, #3, 0
    8470:	124c5003 	subne	r5, ip, #3, 0
    8474:	e3100004 	tst	r0, #4, 0
    8478:	e14678b0 	strh	r7, [r6, #-128]	; 0xffffff80
    847c:	01a07004 	moveq	r7, r4
    8480:	11a0700e 	movne	r7, lr
    8484:	e28d8088 	add	r8, sp, #136, 0	; 0x88
    8488:	e0885085 	add	r5, r8, r5, lsl #1
    848c:	024c6002 	subeq	r6, ip, #2, 0
    8490:	124c6002 	subne	r6, ip, #2, 0
    8494:	e3100002 	tst	r0, #2, 0
    8498:	e14578b0 	strh	r7, [r5, #-128]	; 0xffffff80
    849c:	01a08004 	moveq	r8, r4
    84a0:	024c5001 	subeq	r5, ip, #1, 0
    84a4:	124c5001 	subne	r5, ip, #1, 0
    84a8:	11a0800e 	movne	r8, lr
    84ac:	e3100001 	tst	r0, #1, 0
    84b0:	11a0700e 	movne	r7, lr
    84b4:	01a07004 	moveq	r7, r4
    84b8:	e28d0088 	add	r0, sp, #136, 0	; 0x88
    84bc:	e28cc008 	add	ip, ip, #8, 0
    84c0:	e0806086 	add	r6, r0, r6, lsl #1
    84c4:	e35c0048 	cmp	ip, #72, 0	; 0x48
    84c8:	e0800085 	add	r0, r0, r5, lsl #1
    84cc:	e14688b0 	strh	r8, [r6, #-128]	; 0xffffff80
    84d0:	e14078b0 	strh	r7, [r0, #-128]	; 0xffffff80
    84d4:	1affffbe 	bne	83d4 <draw_char+0x24>
    84d8:	e2823007 	add	r3, r2, #7, 0
    84dc:	e281c007 	add	ip, r1, #7, 0
    84e0:	e6ef3073 	uxtb	r3, r3
    84e4:	e58d3000 	str	r3, [sp]
    84e8:	e28d0008 	add	r0, sp, #8, 0
    84ec:	e1a03002 	mov	r3, r2
    84f0:	e6ef207c 	uxtb	r2, ip
    84f4:	eb00017f 	bl	8af8 <st7735_fill_window>
    84f8:	e28dd088 	add	sp, sp, #136, 0	; 0x88
    84fc:	e8bd81f0 	pop	{r4, r5, r6, r7, r8, pc}
    8500:	00016e94 	.word	0x00016e94

00008504 <draw_string>:
    8504:	e92d4ff0 	push	{r4, r5, r6, r7, r8, r9, sl, fp, lr}
    8508:	e1a0c000 	mov	ip, r0
    850c:	e5d00000 	ldrb	r0, [r0]
    8510:	e24dd0b4 	sub	sp, sp, #180, 0	; 0xb4
    8514:	e3500000 	cmp	r0, #0, 0
    8518:	e1ddadb8 	ldrh	sl, [sp, #216]	; 0xd8
    851c:	e58d1008 	str	r1, [sp, #8]
    8520:	e58d2028 	str	r2, [sp, #40]	; 0x28
    8524:	0a000069 	beq	86d0 <draw_string+0x1cc>
    8528:	e1a0b003 	mov	fp, r3
    852c:	e2823007 	add	r3, r2, #7, 0
    8530:	e6ef3073 	uxtb	r3, r3
    8534:	e58dc020 	str	ip, [sp, #32]
    8538:	e58d302c 	str	r3, [sp, #44]	; 0x2c
    853c:	e3a02008 	mov	r2, #8, 0
    8540:	e3a05003 	mov	r5, #3, 0
    8544:	e3a09004 	mov	r9, #4, 0
    8548:	e3a08005 	mov	r8, #5, 0
    854c:	e59f1184 	ldr	r1, [pc, #388]	; 86d8 <draw_string+0x1d4>
    8550:	e1a04005 	mov	r4, r5
    8554:	e0201092 	mla	r0, r2, r0, r1
    8558:	e2406001 	sub	r6, r0, #1, 0
    855c:	e1a05009 	mov	r5, r9
    8560:	e3a07006 	mov	r7, #6, 0
    8564:	e1a09006 	mov	r9, r6
    8568:	e3a0e007 	mov	lr, #7, 0
    856c:	e1a06008 	mov	r6, r8
    8570:	e5dd1008 	ldrb	r1, [sp, #8]
    8574:	e58d1024 	str	r1, [sp, #36]	; 0x24
    8578:	e5f93001 	ldrb	r3, [r9, #1]!
    857c:	e28dc030 	add	ip, sp, #48, 0	; 0x30
    8580:	e1b013a3 	lsrs	r1, r3, #7
    8584:	11a0100b 	movne	r1, fp
    8588:	01a0100a 	moveq	r1, sl
    858c:	e08cc082 	add	ip, ip, r2, lsl #1
    8590:	e2420007 	sub	r0, r2, #7, 0
    8594:	02420007 	subeq	r0, r2, #7, 0
    8598:	e3130040 	tst	r3, #64, 0	; 0x40
    859c:	e14c11b0 	strh	r1, [ip, #-16]
    85a0:	e2421006 	sub	r1, r2, #6, 0
    85a4:	11a0c00b 	movne	ip, fp
    85a8:	01a0c00a 	moveq	ip, sl
    85ac:	e3130020 	tst	r3, #32, 0
    85b0:	e1a08001 	mov	r8, r1
    85b4:	01a0100a 	moveq	r1, sl
    85b8:	11a0100b 	movne	r1, fp
    85bc:	e3130010 	tst	r3, #16, 0
    85c0:	e58d100c 	str	r1, [sp, #12]
    85c4:	01a0100a 	moveq	r1, sl
    85c8:	11a0100b 	movne	r1, fp
    85cc:	e3130008 	tst	r3, #8, 0
    85d0:	e58d1010 	str	r1, [sp, #16]
    85d4:	01a0100a 	moveq	r1, sl
    85d8:	11a0100b 	movne	r1, fp
    85dc:	e3130004 	tst	r3, #4, 0
    85e0:	e58d1014 	str	r1, [sp, #20]
    85e4:	01a0100a 	moveq	r1, sl
    85e8:	11a0100b 	movne	r1, fp
    85ec:	e3130002 	tst	r3, #2, 0
    85f0:	e58d1018 	str	r1, [sp, #24]
    85f4:	01a0100a 	moveq	r1, sl
    85f8:	11a0100b 	movne	r1, fp
    85fc:	e3130001 	tst	r3, #1, 0
    8600:	01a0300a 	moveq	r3, sl
    8604:	11a0300b 	movne	r3, fp
    8608:	e58d101c 	str	r1, [sp, #28]
    860c:	e28d10b0 	add	r1, sp, #176, 0	; 0xb0
    8610:	e0810080 	add	r0, r1, r0, lsl #1
    8614:	e140c8b0 	strh	ip, [r0, #-128]	; 0xffffff80
    8618:	e59d000c 	ldr	r0, [sp, #12]
    861c:	e0811088 	add	r1, r1, r8, lsl #1
    8620:	e14108b0 	strh	r0, [r1, #-128]	; 0xffffff80
    8624:	e28d00b0 	add	r0, sp, #176, 0	; 0xb0
    8628:	e0801084 	add	r1, r0, r4, lsl #1
    862c:	e59d0010 	ldr	r0, [sp, #16]
    8630:	e59dc018 	ldr	ip, [sp, #24]
    8634:	e14108b0 	strh	r0, [r1, #-128]	; 0xffffff80
    8638:	e28d00b0 	add	r0, sp, #176, 0	; 0xb0
    863c:	e0801085 	add	r1, r0, r5, lsl #1
    8640:	e59d0014 	ldr	r0, [sp, #20]
    8644:	e2822008 	add	r2, r2, #8, 0
    8648:	e14108b0 	strh	r0, [r1, #-128]	; 0xffffff80
    864c:	e28d00b0 	add	r0, sp, #176, 0	; 0xb0
    8650:	e0800086 	add	r0, r0, r6, lsl #1
    8654:	e140c8b0 	strh	ip, [r0, #-128]	; 0xffffff80
    8658:	e28d10b0 	add	r1, sp, #176, 0	; 0xb0
    865c:	e59dc01c 	ldr	ip, [sp, #28]
    8660:	e28d00b0 	add	r0, sp, #176, 0	; 0xb0
    8664:	e0811087 	add	r1, r1, r7, lsl #1
    8668:	e080008e 	add	r0, r0, lr, lsl #1
    866c:	e3520048 	cmp	r2, #72, 0	; 0x48
    8670:	e141c8b0 	strh	ip, [r1, #-128]	; 0xffffff80
    8674:	e2844008 	add	r4, r4, #8, 0
    8678:	e2855008 	add	r5, r5, #8, 0
    867c:	e2866008 	add	r6, r6, #8, 0
    8680:	e2877008 	add	r7, r7, #8, 0
    8684:	e14038b0 	strh	r3, [r0, #-128]	; 0xffffff80
    8688:	e28ee008 	add	lr, lr, #8, 0
    868c:	1affffb9 	bne	8578 <draw_string+0x74>
    8690:	e59d1024 	ldr	r1, [sp, #36]	; 0x24
    8694:	e59d302c 	ldr	r3, [sp, #44]	; 0x2c
    8698:	e2812007 	add	r2, r1, #7, 0
    869c:	e58d3000 	str	r3, [sp]
    86a0:	e28d0030 	add	r0, sp, #48, 0	; 0x30
    86a4:	e59d3028 	ldr	r3, [sp, #40]	; 0x28
    86a8:	e6ef2072 	uxtb	r2, r2
    86ac:	eb000111 	bl	8af8 <st7735_fill_window>
    86b0:	e59d3020 	ldr	r3, [sp, #32]
    86b4:	e5f30001 	ldrb	r0, [r3, #1]!
    86b8:	e58d3020 	str	r3, [sp, #32]
    86bc:	e59d3008 	ldr	r3, [sp, #8]
    86c0:	e3500000 	cmp	r0, #0, 0
    86c4:	e2833008 	add	r3, r3, #8, 0
    86c8:	e58d3008 	str	r3, [sp, #8]
    86cc:	1affff9a 	bne	853c <draw_string+0x38>
    86d0:	e28dd0b4 	add	sp, sp, #180, 0	; 0xb4
    86d4:	e8bd8ff0 	pop	{r4, r5, r6, r7, r8, r9, sl, fp, pc}
    86d8:	00016e94 	.word	0x00016e94

000086dc <st7735_send_cmd>:
    86dc:	e1a03000 	mov	r3, r0
    86e0:	e52de004 	push	{lr}		; (str lr, [sp, #-4]!)
    86e4:	e3a00018 	mov	r0, #24, 0
    86e8:	e24dd02c 	sub	sp, sp, #44, 0	; 0x2c
    86ec:	e5cd301f 	strb	r3, [sp, #31]
    86f0:	eb0028d3 	bl	12a44 <gpio_set_off>
    86f4:	e3a02001 	mov	r2, #1, 0
    86f8:	e59f302c 	ldr	r3, [pc, #44]	; 872c <st7735_send_cmd+0x50>
    86fc:	e28de01f 	add	lr, sp, #31, 0
    8700:	e5931014 	ldr	r1, [r3, #20]
    8704:	e5930010 	ldr	r0, [r3, #16]
    8708:	e28dc024 	add	ip, sp, #36, 0	; 0x24
    870c:	e88d0003 	stm	sp, {r0, r1}
    8710:	e58d2010 	str	r2, [sp, #16]
    8714:	e58de00c 	str	lr, [sp, #12]
    8718:	e58dc008 	str	ip, [sp, #8]
    871c:	e893000f 	ldm	r3, {r0, r1, r2, r3}
    8720:	eb00272d 	bl	123dc <spi_n_transfer>
    8724:	e28dd02c 	add	sp, sp, #44, 0	; 0x2c
    8728:	e49df004 	pop	{pc}		; (ldr pc, [sp], #4)
    872c:	00014130 	.word	0x00014130

00008730 <st7735_send_data>:
    8730:	e1a03000 	mov	r3, r0
    8734:	e52de004 	push	{lr}		; (str lr, [sp, #-4]!)
    8738:	e3a00018 	mov	r0, #24, 0
    873c:	e24dd02c 	sub	sp, sp, #44, 0	; 0x2c
    8740:	e5cd301f 	strb	r3, [sp, #31]
    8744:	eb0028ac 	bl	129fc <gpio_set_on>
    8748:	e3a02001 	mov	r2, #1, 0
    874c:	e59f302c 	ldr	r3, [pc, #44]	; 8780 <st7735_send_data+0x50>
    8750:	e28de01f 	add	lr, sp, #31, 0
    8754:	e5931014 	ldr	r1, [r3, #20]
    8758:	e5930010 	ldr	r0, [r3, #16]
    875c:	e28dc024 	add	ip, sp, #36, 0	; 0x24
    8760:	e88d0003 	stm	sp, {r0, r1}
    8764:	e58d2010 	str	r2, [sp, #16]
    8768:	e58de00c 	str	lr, [sp, #12]
    876c:	e58dc008 	str	ip, [sp, #8]
    8770:	e893000f 	ldm	r3, {r0, r1, r2, r3}
    8774:	eb002718 	bl	123dc <spi_n_transfer>
    8778:	e28dd02c 	add	sp, sp, #44, 0	; 0x2c
    877c:	e49df004 	pop	{pc}		; (ldr pc, [sp], #4)
    8780:	00014130 	.word	0x00014130

00008784 <st7735_send_data16>:
    8784:	e92d4030 	push	{r4, r5, lr}
    8788:	e1a04000 	mov	r4, r0
    878c:	e3a05002 	mov	r5, #2, 0
    8790:	e24dd024 	sub	sp, sp, #36, 0	; 0x24
    8794:	e3a00018 	mov	r0, #24, 0
    8798:	eb002897 	bl	129fc <gpio_set_on>
    879c:	e59f3034 	ldr	r3, [pc, #52]	; 87d8 <st7735_send_data16+0x54>
    87a0:	e28de018 	add	lr, sp, #24, 0
    87a4:	e5931014 	ldr	r1, [r3, #20]
    87a8:	e5930010 	ldr	r0, [r3, #16]
    87ac:	e58de00c 	str	lr, [sp, #12]
    87b0:	e28de01c 	add	lr, sp, #28, 0
    87b4:	e88d0003 	stm	sp, {r0, r1}
    87b8:	e893000f 	ldm	r3, {r0, r1, r2, r3}
    87bc:	e6bfcfb4 	rev16	ip, r4
    87c0:	e58d5010 	str	r5, [sp, #16]
    87c4:	e58de008 	str	lr, [sp, #8]
    87c8:	e1cdc1b8 	strh	ip, [sp, #24]
    87cc:	eb002702 	bl	123dc <spi_n_transfer>
    87d0:	e28dd024 	add	sp, sp, #36, 0	; 0x24
    87d4:	e8bd8030 	pop	{r4, r5, pc}
    87d8:	00014130 	.word	0x00014130

000087dc <st7735_init>:
    87dc:	e92d41f0 	push	{r4, r5, r6, r7, r8, lr}
    87e0:	e3a06001 	mov	r6, #1, 0
    87e4:	e24dd020 	sub	sp, sp, #32, 0
    87e8:	e3a00018 	mov	r0, #24, 0
    87ec:	eb002926 	bl	12c8c <gpio_set_output>
    87f0:	e3a0001a 	mov	r0, #26, 0
    87f4:	eb002924 	bl	12c8c <gpio_set_output>
    87f8:	e3a0001a 	mov	r0, #26, 0
    87fc:	eb002890 	bl	12a44 <gpio_set_off>
    8800:	e3a00032 	mov	r0, #50, 0	; 0x32
    8804:	e59f416c 	ldr	r4, [pc, #364]	; 8978 <st7735_init+0x19c>
    8808:	eb002cea 	bl	13bb8 <delay_ms>
    880c:	e3a0001a 	mov	r0, #26, 0
    8810:	eb002879 	bl	129fc <gpio_set_on>
    8814:	e3a00032 	mov	r0, #50, 0	; 0x32
    8818:	e2845010 	add	r5, r4, #16, 0
    881c:	e28d801f 	add	r8, sp, #31, 0
    8820:	e28d701c 	add	r7, sp, #28, 0
    8824:	eb002ce3 	bl	13bb8 <delay_ms>
    8828:	e3a00018 	mov	r0, #24, 0
    882c:	e5cd601f 	strb	r6, [sp, #31]
    8830:	eb002883 	bl	12a44 <gpio_set_off>
    8834:	e8950003 	ldm	r5, {r0, r1}
    8838:	e58d6010 	str	r6, [sp, #16]
    883c:	e88d0003 	stm	sp, {r0, r1}
    8840:	e894000f 	ldm	r4, {r0, r1, r2, r3}
    8844:	e58d800c 	str	r8, [sp, #12]
    8848:	e58d7008 	str	r7, [sp, #8]
    884c:	eb0026e2 	bl	123dc <spi_n_transfer>
    8850:	e3a00096 	mov	r0, #150, 0	; 0x96
    8854:	eb002cd7 	bl	13bb8 <delay_ms>
    8858:	e3a03011 	mov	r3, #17, 0
    885c:	e3a00018 	mov	r0, #24, 0
    8860:	e5cd301f 	strb	r3, [sp, #31]
    8864:	eb002876 	bl	12a44 <gpio_set_off>
    8868:	e8950003 	ldm	r5, {r0, r1}
    886c:	e58d6010 	str	r6, [sp, #16]
    8870:	e88d0003 	stm	sp, {r0, r1}
    8874:	e894000f 	ldm	r4, {r0, r1, r2, r3}
    8878:	e58d800c 	str	r8, [sp, #12]
    887c:	e58d7008 	str	r7, [sp, #8]
    8880:	eb0026d5 	bl	123dc <spi_n_transfer>
    8884:	e3a000ff 	mov	r0, #255, 0	; 0xff
    8888:	eb002cca 	bl	13bb8 <delay_ms>
    888c:	e3a0303a 	mov	r3, #58, 0	; 0x3a
    8890:	e3a00018 	mov	r0, #24, 0
    8894:	e5cd301f 	strb	r3, [sp, #31]
    8898:	eb002869 	bl	12a44 <gpio_set_off>
    889c:	e8950003 	ldm	r5, {r0, r1}
    88a0:	e58d6010 	str	r6, [sp, #16]
    88a4:	e88d0003 	stm	sp, {r0, r1}
    88a8:	e894000f 	ldm	r4, {r0, r1, r2, r3}
    88ac:	e58d800c 	str	r8, [sp, #12]
    88b0:	e58d7008 	str	r7, [sp, #8]
    88b4:	eb0026c8 	bl	123dc <spi_n_transfer>
    88b8:	e3a03005 	mov	r3, #5, 0
    88bc:	e3a00018 	mov	r0, #24, 0
    88c0:	e5cd301f 	strb	r3, [sp, #31]
    88c4:	eb00284c 	bl	129fc <gpio_set_on>
    88c8:	e8950003 	ldm	r5, {r0, r1}
    88cc:	e58d6010 	str	r6, [sp, #16]
    88d0:	e88d0003 	stm	sp, {r0, r1}
    88d4:	e894000f 	ldm	r4, {r0, r1, r2, r3}
    88d8:	e58d800c 	str	r8, [sp, #12]
    88dc:	e58d7008 	str	r7, [sp, #8]
    88e0:	eb0026bd 	bl	123dc <spi_n_transfer>
    88e4:	e3a03036 	mov	r3, #54, 0	; 0x36
    88e8:	e3a00018 	mov	r0, #24, 0
    88ec:	e5cd301f 	strb	r3, [sp, #31]
    88f0:	eb002853 	bl	12a44 <gpio_set_off>
    88f4:	e8950003 	ldm	r5, {r0, r1}
    88f8:	e58d6010 	str	r6, [sp, #16]
    88fc:	e88d0003 	stm	sp, {r0, r1}
    8900:	e894000f 	ldm	r4, {r0, r1, r2, r3}
    8904:	e58d800c 	str	r8, [sp, #12]
    8908:	e58d7008 	str	r7, [sp, #8]
    890c:	eb0026b2 	bl	123dc <spi_n_transfer>
    8910:	e3e03037 	mvn	r3, #55, 0	; 0x37
    8914:	e3a00018 	mov	r0, #24, 0
    8918:	e5cd301f 	strb	r3, [sp, #31]
    891c:	eb002836 	bl	129fc <gpio_set_on>
    8920:	e8950003 	ldm	r5, {r0, r1}
    8924:	e58d6010 	str	r6, [sp, #16]
    8928:	e88d0003 	stm	sp, {r0, r1}
    892c:	e894000f 	ldm	r4, {r0, r1, r2, r3}
    8930:	e58d800c 	str	r8, [sp, #12]
    8934:	e58d7008 	str	r7, [sp, #8]
    8938:	eb0026a7 	bl	123dc <spi_n_transfer>
    893c:	e3a03029 	mov	r3, #41, 0	; 0x29
    8940:	e3a00018 	mov	r0, #24, 0
    8944:	e5cd301f 	strb	r3, [sp, #31]
    8948:	eb00283d 	bl	12a44 <gpio_set_off>
    894c:	e8950003 	ldm	r5, {r0, r1}
    8950:	e58d6010 	str	r6, [sp, #16]
    8954:	e88d0003 	stm	sp, {r0, r1}
    8958:	e894000f 	ldm	r4, {r0, r1, r2, r3}
    895c:	e58d800c 	str	r8, [sp, #12]
    8960:	e58d7008 	str	r7, [sp, #8]
    8964:	eb00269c 	bl	123dc <spi_n_transfer>
    8968:	e3a00064 	mov	r0, #100, 0	; 0x64
    896c:	eb002c91 	bl	13bb8 <delay_ms>
    8970:	e28dd020 	add	sp, sp, #32, 0
    8974:	e8bd81f0 	pop	{r4, r5, r6, r7, r8, pc}
    8978:	00014130 	.word	0x00014130

0000897c <st7735_set_window>:
    897c:	e92d4ff0 	push	{r4, r5, r6, r7, r8, r9, sl, fp, lr}
    8980:	e3a0c02a 	mov	ip, #42, 0	; 0x2a
    8984:	e3a0b001 	mov	fp, #1, 0
    8988:	e3a0a002 	mov	sl, #2, 0
    898c:	e1a09000 	mov	r9, r0
    8990:	e1a08001 	mov	r8, r1
    8994:	e59f4158 	ldr	r4, [pc, #344]	; 8af4 <st7735_set_window+0x178>
    8998:	e24dd02c 	sub	sp, sp, #44, 0	; 0x2c
    899c:	e2845010 	add	r5, r4, #16, 0
    89a0:	e28d6024 	add	r6, sp, #36, 0	; 0x24
    89a4:	e28d7020 	add	r7, sp, #32, 0
    89a8:	e3a00018 	mov	r0, #24, 0
    89ac:	e5cdc024 	strb	ip, [sp, #36]	; 0x24
    89b0:	e58d2018 	str	r2, [sp, #24]
    89b4:	e58d301c 	str	r3, [sp, #28]
    89b8:	eb002821 	bl	12a44 <gpio_set_off>
    89bc:	e8950003 	ldm	r5, {r0, r1}
    89c0:	e58db010 	str	fp, [sp, #16]
    89c4:	e88d0003 	stm	sp, {r0, r1}
    89c8:	e894000f 	ldm	r4, {r0, r1, r2, r3}
    89cc:	e58d600c 	str	r6, [sp, #12]
    89d0:	e58d7008 	str	r7, [sp, #8]
    89d4:	eb002680 	bl	123dc <spi_n_transfer>
    89d8:	e3a00018 	mov	r0, #24, 0
    89dc:	eb002806 	bl	129fc <gpio_set_on>
    89e0:	e8950003 	ldm	r5, {r0, r1}
    89e4:	e089c00a 	add	ip, r9, sl
    89e8:	e1a0c42c 	lsr	ip, ip, #8
    89ec:	e88d0003 	stm	sp, {r0, r1}
    89f0:	e894000f 	ldm	r4, {r0, r1, r2, r3}
    89f4:	e58d700c 	str	r7, [sp, #12]
    89f8:	e58d6008 	str	r6, [sp, #8]
    89fc:	e089900a 	add	r9, r9, sl
    8a00:	e58da010 	str	sl, [sp, #16]
    8a04:	e5cdc020 	strb	ip, [sp, #32]
    8a08:	e5cd9021 	strb	r9, [sp, #33]	; 0x21
    8a0c:	eb002672 	bl	123dc <spi_n_transfer>
    8a10:	e3a00018 	mov	r0, #24, 0
    8a14:	eb0027f8 	bl	129fc <gpio_set_on>
    8a18:	e8950003 	ldm	r5, {r0, r1}
    8a1c:	e088c00a 	add	ip, r8, sl
    8a20:	e1a0c42c 	lsr	ip, ip, #8
    8a24:	e88d0003 	stm	sp, {r0, r1}
    8a28:	e894000f 	ldm	r4, {r0, r1, r2, r3}
    8a2c:	e58da010 	str	sl, [sp, #16]
    8a30:	e58d700c 	str	r7, [sp, #12]
    8a34:	e58d6008 	str	r6, [sp, #8]
    8a38:	e088800a 	add	r8, r8, sl
    8a3c:	e5cdc020 	strb	ip, [sp, #32]
    8a40:	e5cd8021 	strb	r8, [sp, #33]	; 0x21
    8a44:	eb002664 	bl	123dc <spi_n_transfer>
    8a48:	e3a0302b 	mov	r3, #43, 0	; 0x2b
    8a4c:	e3a00018 	mov	r0, #24, 0
    8a50:	e5cd3024 	strb	r3, [sp, #36]	; 0x24
    8a54:	eb0027fa 	bl	12a44 <gpio_set_off>
    8a58:	e8950003 	ldm	r5, {r0, r1}
    8a5c:	e58db010 	str	fp, [sp, #16]
    8a60:	e88d0003 	stm	sp, {r0, r1}
    8a64:	e894000f 	ldm	r4, {r0, r1, r2, r3}
    8a68:	e58d600c 	str	r6, [sp, #12]
    8a6c:	e58d7008 	str	r7, [sp, #8]
    8a70:	eb002659 	bl	123dc <spi_n_transfer>
    8a74:	e3a00018 	mov	r0, #24, 0
    8a78:	eb0027df 	bl	129fc <gpio_set_on>
    8a7c:	e8950003 	ldm	r5, {r0, r1}
    8a80:	e59d2018 	ldr	r2, [sp, #24]
    8a84:	e88d0003 	stm	sp, {r0, r1}
    8a88:	e282e003 	add	lr, r2, #3, 0
    8a8c:	e282c003 	add	ip, r2, #3, 0
    8a90:	e1a0e42e 	lsr	lr, lr, #8
    8a94:	e894000f 	ldm	r4, {r0, r1, r2, r3}
    8a98:	e58da010 	str	sl, [sp, #16]
    8a9c:	e58d700c 	str	r7, [sp, #12]
    8aa0:	e58d6008 	str	r6, [sp, #8]
    8aa4:	e5cde020 	strb	lr, [sp, #32]
    8aa8:	e5cdc021 	strb	ip, [sp, #33]	; 0x21
    8aac:	eb00264a 	bl	123dc <spi_n_transfer>
    8ab0:	e3a00018 	mov	r0, #24, 0
    8ab4:	eb0027d0 	bl	129fc <gpio_set_on>
    8ab8:	e8950003 	ldm	r5, {r0, r1}
    8abc:	e59d301c 	ldr	r3, [sp, #28]
    8ac0:	e88d0003 	stm	sp, {r0, r1}
    8ac4:	e283e003 	add	lr, r3, #3, 0
    8ac8:	e283c003 	add	ip, r3, #3, 0
    8acc:	e1a0e42e 	lsr	lr, lr, #8
    8ad0:	e58da010 	str	sl, [sp, #16]
    8ad4:	e58d700c 	str	r7, [sp, #12]
    8ad8:	e58d6008 	str	r6, [sp, #8]
    8adc:	e894000f 	ldm	r4, {r0, r1, r2, r3}
    8ae0:	e5cde020 	strb	lr, [sp, #32]
    8ae4:	e5cdc021 	strb	ip, [sp, #33]	; 0x21
    8ae8:	eb00263b 	bl	123dc <spi_n_transfer>
    8aec:	e28dd02c 	add	sp, sp, #44, 0	; 0x2c
    8af0:	e8bd8ff0 	pop	{r4, r5, r6, r7, r8, r9, sl, fp, pc}
    8af4:	00014130 	.word	0x00014130

00008af8 <st7735_fill_window>:
    8af8:	e92d4ff0 	push	{r4, r5, r6, r7, r8, r9, sl, fp, lr}
    8afc:	e28db020 	add	fp, sp, #32, 0
    8b00:	e24dd034 	sub	sp, sp, #52, 0	; 0x34
    8b04:	e3a0a001 	mov	sl, #1, 0
    8b08:	e1a0e000 	mov	lr, r0
    8b0c:	e3a0c02a 	mov	ip, #42, 0	; 0x2a
    8b10:	e3a09002 	mov	r9, #2, 0
    8b14:	e1a06002 	mov	r6, r2
    8b18:	e59f41ec 	ldr	r4, [pc, #492]	; 8d0c <st7735_fill_window+0x214>
    8b1c:	e5db2004 	ldrb	r2, [fp, #4]
    8b20:	e2845010 	add	r5, r4, #16, 0
    8b24:	e24b8028 	sub	r8, fp, #40, 0	; 0x28
    8b28:	e24b702c 	sub	r7, fp, #44, 0	; 0x2c
    8b2c:	e3a00018 	mov	r0, #24, 0
    8b30:	e50be038 	str	lr, [fp, #-56]	; 0xffffffc8
    8b34:	e54bc028 	strb	ip, [fp, #-40]	; 0xffffffd8
    8b38:	e50b1030 	str	r1, [fp, #-48]	; 0xffffffd0
    8b3c:	e50b3034 	str	r3, [fp, #-52]	; 0xffffffcc
    8b40:	e50b203c 	str	r2, [fp, #-60]	; 0xffffffc4
    8b44:	eb0027be 	bl	12a44 <gpio_set_off>
    8b48:	e8950003 	ldm	r5, {r0, r1}
    8b4c:	e58da010 	str	sl, [sp, #16]
    8b50:	e88d0003 	stm	sp, {r0, r1}
    8b54:	e894000f 	ldm	r4, {r0, r1, r2, r3}
    8b58:	e58d800c 	str	r8, [sp, #12]
    8b5c:	e58d7008 	str	r7, [sp, #8]
    8b60:	eb00261d 	bl	123dc <spi_n_transfer>
    8b64:	e3a00018 	mov	r0, #24, 0
    8b68:	eb0027a3 	bl	129fc <gpio_set_on>
    8b6c:	e8950003 	ldm	r5, {r0, r1}
    8b70:	e51be030 	ldr	lr, [fp, #-48]	; 0xffffffd0
    8b74:	e88d0003 	stm	sp, {r0, r1}
    8b78:	e894000f 	ldm	r4, {r0, r1, r2, r3}
    8b7c:	e08ec009 	add	ip, lr, r9
    8b80:	e1a0c42c 	lsr	ip, ip, #8
    8b84:	e58d700c 	str	r7, [sp, #12]
    8b88:	e58d8008 	str	r8, [sp, #8]
    8b8c:	e58d9010 	str	r9, [sp, #16]
    8b90:	e54bc02c 	strb	ip, [fp, #-44]	; 0xffffffd4
    8b94:	e08ec009 	add	ip, lr, r9
    8b98:	e54bc02b 	strb	ip, [fp, #-43]	; 0xffffffd5
    8b9c:	eb00260e 	bl	123dc <spi_n_transfer>
    8ba0:	e3a00018 	mov	r0, #24, 0
    8ba4:	eb002794 	bl	129fc <gpio_set_on>
    8ba8:	e8950003 	ldm	r5, {r0, r1}
    8bac:	e086c009 	add	ip, r6, r9
    8bb0:	e1a0c42c 	lsr	ip, ip, #8
    8bb4:	e88d0003 	stm	sp, {r0, r1}
    8bb8:	e894000f 	ldm	r4, {r0, r1, r2, r3}
    8bbc:	e58d9010 	str	r9, [sp, #16]
    8bc0:	e58d700c 	str	r7, [sp, #12]
    8bc4:	e58d8008 	str	r8, [sp, #8]
    8bc8:	e54bc02c 	strb	ip, [fp, #-44]	; 0xffffffd4
    8bcc:	e086c009 	add	ip, r6, r9
    8bd0:	e54bc02b 	strb	ip, [fp, #-43]	; 0xffffffd5
    8bd4:	eb002600 	bl	123dc <spi_n_transfer>
    8bd8:	e3a0302b 	mov	r3, #43, 0	; 0x2b
    8bdc:	e3a00018 	mov	r0, #24, 0
    8be0:	e54b3028 	strb	r3, [fp, #-40]	; 0xffffffd8
    8be4:	eb002796 	bl	12a44 <gpio_set_off>
    8be8:	e8950003 	ldm	r5, {r0, r1}
    8bec:	e58da010 	str	sl, [sp, #16]
    8bf0:	e88d0003 	stm	sp, {r0, r1}
    8bf4:	e894000f 	ldm	r4, {r0, r1, r2, r3}
    8bf8:	e58d800c 	str	r8, [sp, #12]
    8bfc:	e58d7008 	str	r7, [sp, #8]
    8c00:	eb0025f5 	bl	123dc <spi_n_transfer>
    8c04:	e3a00018 	mov	r0, #24, 0
    8c08:	eb00277b 	bl	129fc <gpio_set_on>
    8c0c:	e8950003 	ldm	r5, {r0, r1}
    8c10:	e51be034 	ldr	lr, [fp, #-52]	; 0xffffffcc
    8c14:	e88d0003 	stm	sp, {r0, r1}
    8c18:	e894000f 	ldm	r4, {r0, r1, r2, r3}
    8c1c:	e28ec003 	add	ip, lr, #3, 0
    8c20:	e1a0c42c 	lsr	ip, ip, #8
    8c24:	e58d9010 	str	r9, [sp, #16]
    8c28:	e58d700c 	str	r7, [sp, #12]
    8c2c:	e58d8008 	str	r8, [sp, #8]
    8c30:	e54bc02c 	strb	ip, [fp, #-44]	; 0xffffffd4
    8c34:	e28ec003 	add	ip, lr, #3, 0
    8c38:	e54bc02b 	strb	ip, [fp, #-43]	; 0xffffffd5
    8c3c:	eb0025e6 	bl	123dc <spi_n_transfer>
    8c40:	e3a00018 	mov	r0, #24, 0
    8c44:	eb00276c 	bl	129fc <gpio_set_on>
    8c48:	e8950003 	ldm	r5, {r0, r1}
    8c4c:	e51be03c 	ldr	lr, [fp, #-60]	; 0xffffffc4
    8c50:	e88d0003 	stm	sp, {r0, r1}
    8c54:	e894000f 	ldm	r4, {r0, r1, r2, r3}
    8c58:	e28ec003 	add	ip, lr, #3, 0
    8c5c:	e1a0c42c 	lsr	ip, ip, #8
    8c60:	e58d9010 	str	r9, [sp, #16]
    8c64:	e58d700c 	str	r7, [sp, #12]
    8c68:	e1a0900e 	mov	r9, lr
    8c6c:	e58d8008 	str	r8, [sp, #8]
    8c70:	e28ee003 	add	lr, lr, #3, 0
    8c74:	e54bc02c 	strb	ip, [fp, #-44]	; 0xffffffd4
    8c78:	e54be02b 	strb	lr, [fp, #-43]	; 0xffffffd5
    8c7c:	eb0025d6 	bl	123dc <spi_n_transfer>
    8c80:	e3a0302c 	mov	r3, #44, 0	; 0x2c
    8c84:	e3a00018 	mov	r0, #24, 0
    8c88:	e54b3028 	strb	r3, [fp, #-40]	; 0xffffffd8
    8c8c:	eb00276c 	bl	12a44 <gpio_set_off>
    8c90:	e8950003 	ldm	r5, {r0, r1}
    8c94:	e58da010 	str	sl, [sp, #16]
    8c98:	e88d0003 	stm	sp, {r0, r1}
    8c9c:	e894000f 	ldm	r4, {r0, r1, r2, r3}
    8ca0:	e58d800c 	str	r8, [sp, #12]
    8ca4:	e58d7008 	str	r7, [sp, #8]
    8ca8:	eb0025cb 	bl	123dc <spi_n_transfer>
    8cac:	e3a00018 	mov	r0, #24, 0
    8cb0:	eb002751 	bl	129fc <gpio_set_on>
    8cb4:	e8950003 	ldm	r5, {r0, r1}
    8cb8:	e51bc030 	ldr	ip, [fp, #-48]	; 0xffffffd0
    8cbc:	e046600c 	sub	r6, r6, ip
    8cc0:	e51bc034 	ldr	ip, [fp, #-52]	; 0xffffffcc
    8cc4:	e086200a 	add	r2, r6, sl
    8cc8:	e049300c 	sub	r3, r9, ip
    8ccc:	e083600a 	add	r6, r3, sl
    8cd0:	e0060296 	mul	r6, r6, r2
    8cd4:	e1a06a16 	lsl	r6, r6, sl
    8cd8:	e2863007 	add	r3, r6, #7, 0
    8cdc:	e3c33007 	bic	r3, r3, #7, 0
    8ce0:	e04dd003 	sub	sp, sp, r3
    8ce4:	e51b3038 	ldr	r3, [fp, #-56]	; 0xffffffc8
    8ce8:	e28dc018 	add	ip, sp, #24, 0
    8cec:	e88d0003 	stm	sp, {r0, r1}
    8cf0:	e58d300c 	str	r3, [sp, #12]
    8cf4:	e58d6010 	str	r6, [sp, #16]
    8cf8:	e58dc008 	str	ip, [sp, #8]
    8cfc:	e894000f 	ldm	r4, {r0, r1, r2, r3}
    8d00:	eb0025b5 	bl	123dc <spi_n_transfer>
    8d04:	e24bd020 	sub	sp, fp, #32, 0
    8d08:	e8bd8ff0 	pop	{r4, r5, r6, r7, r8, r9, sl, fp, pc}
    8d0c:	00014130 	.word	0x00014130

00008d10 <st7735_fill_screen>:
    8d10:	e92d47f0 	push	{r4, r5, r6, r7, r8, r9, sl, lr}
    8d14:	e1a0a000 	mov	sl, r0
    8d18:	e3a00018 	mov	r0, #24, 0
    8d1c:	e3a05001 	mov	r5, #1, 0
    8d20:	e3a0302a 	mov	r3, #42, 0	; 0x2a
    8d24:	e59f417c 	ldr	r4, [pc, #380]	; 8ea8 <st7735_fill_screen+0x198>
    8d28:	e24dd020 	sub	sp, sp, #32, 0
    8d2c:	e08d7000 	add	r7, sp, r0
    8d30:	e2846010 	add	r6, r4, #16, 0
    8d34:	e28d801c 	add	r8, sp, #28, 0
    8d38:	e5cd301c 	strb	r3, [sp, #28]
    8d3c:	eb002740 	bl	12a44 <gpio_set_off>
    8d40:	e8960003 	ldm	r6, {r0, r1}
    8d44:	e58d5010 	str	r5, [sp, #16]
    8d48:	e88d0003 	stm	sp, {r0, r1}
    8d4c:	e894000f 	ldm	r4, {r0, r1, r2, r3}
    8d50:	e58d800c 	str	r8, [sp, #12]
    8d54:	e58d7008 	str	r7, [sp, #8]
    8d58:	eb00259f 	bl	123dc <spi_n_transfer>
    8d5c:	e3a09002 	mov	r9, #2, 0
    8d60:	e3a00018 	mov	r0, #24, 0
    8d64:	eb002724 	bl	129fc <gpio_set_on>
    8d68:	e8960003 	ldm	r6, {r0, r1}
    8d6c:	e3a0cc02 	mov	ip, #512	; 0x200
    8d70:	e88d0003 	stm	sp, {r0, r1}
    8d74:	e894000f 	ldm	r4, {r0, r1, r2, r3}
    8d78:	e58d700c 	str	r7, [sp, #12]
    8d7c:	e58d8008 	str	r8, [sp, #8]
    8d80:	e58d9010 	str	r9, [sp, #16]
    8d84:	e1cdc1b8 	strh	ip, [sp, #24]
    8d88:	eb002593 	bl	123dc <spi_n_transfer>
    8d8c:	e3a00018 	mov	r0, #24, 0
    8d90:	eb002719 	bl	129fc <gpio_set_on>
    8d94:	e8960003 	ldm	r6, {r0, r1}
    8d98:	e3a0cc81 	mov	ip, #33024	; 0x8100
    8d9c:	e88d0003 	stm	sp, {r0, r1}
    8da0:	e894000f 	ldm	r4, {r0, r1, r2, r3}
    8da4:	e58d9010 	str	r9, [sp, #16]
    8da8:	e58d700c 	str	r7, [sp, #12]
    8dac:	e58d8008 	str	r8, [sp, #8]
    8db0:	e1cdc1b8 	strh	ip, [sp, #24]
    8db4:	eb002588 	bl	123dc <spi_n_transfer>
    8db8:	e3a0302b 	mov	r3, #43, 0	; 0x2b
    8dbc:	e3a00018 	mov	r0, #24, 0
    8dc0:	e5cd301c 	strb	r3, [sp, #28]
    8dc4:	eb00271e 	bl	12a44 <gpio_set_off>
    8dc8:	e8960003 	ldm	r6, {r0, r1}
    8dcc:	e58d5010 	str	r5, [sp, #16]
    8dd0:	e88d0003 	stm	sp, {r0, r1}
    8dd4:	e894000f 	ldm	r4, {r0, r1, r2, r3}
    8dd8:	e58d800c 	str	r8, [sp, #12]
    8ddc:	e58d7008 	str	r7, [sp, #8]
    8de0:	eb00257d 	bl	123dc <spi_n_transfer>
    8de4:	e3a00018 	mov	r0, #24, 0
    8de8:	eb002703 	bl	129fc <gpio_set_on>
    8dec:	e8960003 	ldm	r6, {r0, r1}
    8df0:	e3a0cc03 	mov	ip, #768	; 0x300
    8df4:	e88d0003 	stm	sp, {r0, r1}
    8df8:	e894000f 	ldm	r4, {r0, r1, r2, r3}
    8dfc:	e58d9010 	str	r9, [sp, #16]
    8e00:	e58d700c 	str	r7, [sp, #12]
    8e04:	e58d8008 	str	r8, [sp, #8]
    8e08:	e1cdc1b8 	strh	ip, [sp, #24]
    8e0c:	eb002572 	bl	123dc <spi_n_transfer>
    8e10:	e3a00018 	mov	r0, #24, 0
    8e14:	eb0026f8 	bl	129fc <gpio_set_on>
    8e18:	e8960003 	ldm	r6, {r0, r1}
    8e1c:	e3a0cc82 	mov	ip, #33280	; 0x8200
    8e20:	e88d0003 	stm	sp, {r0, r1}
    8e24:	e894000f 	ldm	r4, {r0, r1, r2, r3}
    8e28:	e58d9010 	str	r9, [sp, #16]
    8e2c:	e58d700c 	str	r7, [sp, #12]
    8e30:	e58d8008 	str	r8, [sp, #8]
    8e34:	e1cdc1b8 	strh	ip, [sp, #24]
    8e38:	eb002567 	bl	123dc <spi_n_transfer>
    8e3c:	e3a0302c 	mov	r3, #44, 0	; 0x2c
    8e40:	e3a00018 	mov	r0, #24, 0
    8e44:	e5cd301c 	strb	r3, [sp, #28]
    8e48:	eb0026fd 	bl	12a44 <gpio_set_off>
    8e4c:	e8960003 	ldm	r6, {r0, r1}
    8e50:	e58d5010 	str	r5, [sp, #16]
    8e54:	e88d0003 	stm	sp, {r0, r1}
    8e58:	e894000f 	ldm	r4, {r0, r1, r2, r3}
    8e5c:	e58d800c 	str	r8, [sp, #12]
    8e60:	e58d7008 	str	r7, [sp, #8]
    8e64:	eb00255c 	bl	123dc <spi_n_transfer>
    8e68:	e3a05901 	mov	r5, #16384	; 0x4000
    8e6c:	e6bfafba 	rev16	sl, sl
    8e70:	e3a00018 	mov	r0, #24, 0
    8e74:	eb0026e0 	bl	129fc <gpio_set_on>
    8e78:	e8960003 	ldm	r6, {r0, r1}
    8e7c:	e58d9010 	str	r9, [sp, #16]
    8e80:	e88d0003 	stm	sp, {r0, r1}
    8e84:	e894000f 	ldm	r4, {r0, r1, r2, r3}
    8e88:	e58d700c 	str	r7, [sp, #12]
    8e8c:	e58d8008 	str	r8, [sp, #8]
    8e90:	e1cda1b8 	strh	sl, [sp, #24]
    8e94:	eb002550 	bl	123dc <spi_n_transfer>
    8e98:	e2555001 	subs	r5, r5, #1, 0
    8e9c:	1afffff3 	bne	8e70 <st7735_fill_screen+0x160>
    8ea0:	e28dd020 	add	sp, sp, #32, 0
    8ea4:	e8bd87f0 	pop	{r4, r5, r6, r7, r8, r9, sl, pc}
    8ea8:	00014130 	.word	0x00014130

00008eac <draw_pixel>:
    8eac:	e92d4ff0 	push	{r4, r5, r6, r7, r8, r9, sl, fp, lr}
    8eb0:	e3a09002 	mov	r9, #2, 0
    8eb4:	e1a06000 	mov	r6, r0
    8eb8:	e3a0b001 	mov	fp, #1, 0
    8ebc:	e3a0302a 	mov	r3, #42, 0	; 0x2a
    8ec0:	e086a009 	add	sl, r6, r9
    8ec4:	e1a0600a 	mov	r6, sl
    8ec8:	e59f4198 	ldr	r4, [pc, #408]	; 9068 <draw_pixel+0x1bc>
    8ecc:	e24dd02c 	sub	sp, sp, #44, 0	; 0x2c
    8ed0:	e2845010 	add	r5, r4, #16, 0
    8ed4:	e28d7024 	add	r7, sp, #36, 0	; 0x24
    8ed8:	e28d8020 	add	r8, sp, #32, 0
    8edc:	e3a00018 	mov	r0, #24, 0
    8ee0:	e58d1018 	str	r1, [sp, #24]
    8ee4:	e58d201c 	str	r2, [sp, #28]
    8ee8:	e5cd3024 	strb	r3, [sp, #36]	; 0x24
    8eec:	eb0026d4 	bl	12a44 <gpio_set_off>
    8ef0:	e8950003 	ldm	r5, {r0, r1}
    8ef4:	e58db010 	str	fp, [sp, #16]
    8ef8:	e88d0003 	stm	sp, {r0, r1}
    8efc:	e894000f 	ldm	r4, {r0, r1, r2, r3}
    8f00:	e58d700c 	str	r7, [sp, #12]
    8f04:	e58d8008 	str	r8, [sp, #8]
    8f08:	eb002533 	bl	123dc <spi_n_transfer>
    8f0c:	e3a00018 	mov	r0, #24, 0
    8f10:	eb0026b9 	bl	129fc <gpio_set_on>
    8f14:	e8950003 	ldm	r5, {r0, r1}
    8f18:	e6efa07a 	uxtb	sl, sl
    8f1c:	e88d0003 	stm	sp, {r0, r1}
    8f20:	e894000f 	ldm	r4, {r0, r1, r2, r3}
    8f24:	e1a06426 	lsr	r6, r6, #8
    8f28:	e58d800c 	str	r8, [sp, #12]
    8f2c:	e58d7008 	str	r7, [sp, #8]
    8f30:	e58d9010 	str	r9, [sp, #16]
    8f34:	e5cda021 	strb	sl, [sp, #33]	; 0x21
    8f38:	e5cd6020 	strb	r6, [sp, #32]
    8f3c:	eb002526 	bl	123dc <spi_n_transfer>
    8f40:	e3a00018 	mov	r0, #24, 0
    8f44:	eb0026ac 	bl	129fc <gpio_set_on>
    8f48:	e8950003 	ldm	r5, {r0, r1}
    8f4c:	e58d9010 	str	r9, [sp, #16]
    8f50:	e88d0003 	stm	sp, {r0, r1}
    8f54:	e894000f 	ldm	r4, {r0, r1, r2, r3}
    8f58:	e58d800c 	str	r8, [sp, #12]
    8f5c:	e58d7008 	str	r7, [sp, #8]
    8f60:	e5cd6020 	strb	r6, [sp, #32]
    8f64:	e5cda021 	strb	sl, [sp, #33]	; 0x21
    8f68:	eb00251b 	bl	123dc <spi_n_transfer>
    8f6c:	e3a0302b 	mov	r3, #43, 0	; 0x2b
    8f70:	e3a00018 	mov	r0, #24, 0
    8f74:	e5cd3024 	strb	r3, [sp, #36]	; 0x24
    8f78:	eb0026b1 	bl	12a44 <gpio_set_off>
    8f7c:	e8950003 	ldm	r5, {r0, r1}
    8f80:	e58db010 	str	fp, [sp, #16]
    8f84:	e88d0003 	stm	sp, {r0, r1}
    8f88:	e894000f 	ldm	r4, {r0, r1, r2, r3}
    8f8c:	e58d700c 	str	r7, [sp, #12]
    8f90:	e58d8008 	str	r8, [sp, #8]
    8f94:	eb002510 	bl	123dc <spi_n_transfer>
    8f98:	e3a00018 	mov	r0, #24, 0
    8f9c:	eb002696 	bl	129fc <gpio_set_on>
    8fa0:	e8950003 	ldm	r5, {r0, r1}
    8fa4:	e59d3018 	ldr	r3, [sp, #24]
    8fa8:	e88d0003 	stm	sp, {r0, r1}
    8fac:	e283a003 	add	sl, r3, #3, 0
    8fb0:	e1a0600a 	mov	r6, sl
    8fb4:	e894000f 	ldm	r4, {r0, r1, r2, r3}
    8fb8:	e6efa07a 	uxtb	sl, sl
    8fbc:	e1a06426 	lsr	r6, r6, #8
    8fc0:	e58d9010 	str	r9, [sp, #16]
    8fc4:	e58d800c 	str	r8, [sp, #12]
    8fc8:	e58d7008 	str	r7, [sp, #8]
    8fcc:	e5cda021 	strb	sl, [sp, #33]	; 0x21
    8fd0:	e5cd6020 	strb	r6, [sp, #32]
    8fd4:	eb002500 	bl	123dc <spi_n_transfer>
    8fd8:	e3a00018 	mov	r0, #24, 0
    8fdc:	eb002686 	bl	129fc <gpio_set_on>
    8fe0:	e8950003 	ldm	r5, {r0, r1}
    8fe4:	e58d9010 	str	r9, [sp, #16]
    8fe8:	e88d0003 	stm	sp, {r0, r1}
    8fec:	e894000f 	ldm	r4, {r0, r1, r2, r3}
    8ff0:	e58d800c 	str	r8, [sp, #12]
    8ff4:	e58d7008 	str	r7, [sp, #8]
    8ff8:	e5cd6020 	strb	r6, [sp, #32]
    8ffc:	e5cda021 	strb	sl, [sp, #33]	; 0x21
    9000:	eb0024f5 	bl	123dc <spi_n_transfer>
    9004:	e3a0302c 	mov	r3, #44, 0	; 0x2c
    9008:	e3a00018 	mov	r0, #24, 0
    900c:	e5cd3024 	strb	r3, [sp, #36]	; 0x24
    9010:	eb00268b 	bl	12a44 <gpio_set_off>
    9014:	e8950003 	ldm	r5, {r0, r1}
    9018:	e58db010 	str	fp, [sp, #16]
    901c:	e88d0003 	stm	sp, {r0, r1}
    9020:	e894000f 	ldm	r4, {r0, r1, r2, r3}
    9024:	e58d700c 	str	r7, [sp, #12]
    9028:	e58d8008 	str	r8, [sp, #8]
    902c:	eb0024ea 	bl	123dc <spi_n_transfer>
    9030:	e3a00018 	mov	r0, #24, 0
    9034:	eb002670 	bl	129fc <gpio_set_on>
    9038:	e8950003 	ldm	r5, {r0, r1}
    903c:	e59d301c 	ldr	r3, [sp, #28]
    9040:	e88d0003 	stm	sp, {r0, r1}
    9044:	e6bfcfb3 	rev16	ip, r3
    9048:	e58d9010 	str	r9, [sp, #16]
    904c:	e58d800c 	str	r8, [sp, #12]
    9050:	e58d7008 	str	r7, [sp, #8]
    9054:	e894000f 	ldm	r4, {r0, r1, r2, r3}
    9058:	e1cdc2b0 	strh	ip, [sp, #32]
    905c:	eb0024de 	bl	123dc <spi_n_transfer>
    9060:	e28dd02c 	add	sp, sp, #44, 0	; 0x2c
    9064:	e8bd8ff0 	pop	{r4, r5, r6, r7, r8, r9, sl, fp, pc}
    9068:	00014130 	.word	0x00014130

0000906c <random_init>:
    906c:	e92d41f0 	push	{r4, r5, r6, r7, r8, lr}
    9070:	e1a05000 	mov	r5, r0
    9074:	eb0003bb 	bl	9f68 <rtc_get_seconds>
    9078:	e1a07000 	mov	r7, r0
    907c:	e1a00005 	mov	r0, r5
    9080:	eb0003c8 	bl	9fa8 <rtc_get_minutes>
    9084:	e1a08000 	mov	r8, r0
    9088:	e1a00005 	mov	r0, r5
    908c:	eb0003d5 	bl	9fe8 <rtc_get_hours>
    9090:	e1a04000 	mov	r4, r0
    9094:	e1a00005 	mov	r0, r5
    9098:	eb0003e2 	bl	a028 <rtc_get_days>
    909c:	e1a06000 	mov	r6, r0
    90a0:	e1a00005 	mov	r0, r5
    90a4:	eb0003fb 	bl	a098 <rtc_get_months>
    90a8:	e1a03000 	mov	r3, r0
    90ac:	e1a00005 	mov	r0, r5
    90b0:	e1a05003 	mov	r5, r3
    90b4:	eb000408 	bl	a0dc <rtc_get_years>
    90b8:	e1a04604 	lsl	r4, r4, #12
    90bc:	e1844308 	orr	r4, r4, r8, lsl #6
    90c0:	e1843007 	orr	r3, r4, r7
    90c4:	e1833886 	orr	r3, r3, r6, lsl #17
    90c8:	e1833b05 	orr	r3, r3, r5, lsl #22
    90cc:	e1933d00 	orrs	r3, r3, r0, lsl #26
    90d0:	159f2010 	ldrne	r2, [pc, #16]	; 90e8 <random_init+0x7c>
    90d4:	059f300c 	ldreq	r3, [pc, #12]	; 90e8 <random_init+0x7c>
    90d8:	059f200c 	ldreq	r2, [pc, #12]	; 90ec <random_init+0x80>
    90dc:	15823000 	strne	r3, [r2]
    90e0:	05832000 	streq	r2, [r3]
    90e4:	e8bd81f0 	pop	{r4, r5, r6, r7, r8, pc}
    90e8:	0001777c 	.word	0x0001777c
    90ec:	deadbeef 	.word	0xdeadbeef

000090f0 <random_next>:
    90f0:	e59f3014 	ldr	r3, [pc, #20]	; 910c <random_next+0x1c>
    90f4:	e5930000 	ldr	r0, [r3]
    90f8:	e0200680 	eor	r0, r0, r0, lsl #13
    90fc:	e02008a0 	eor	r0, r0, r0, lsr #17
    9100:	e0200280 	eor	r0, r0, r0, lsl #5
    9104:	e5830000 	str	r0, [r3]
    9108:	e12fff1e 	bx	lr
    910c:	0001777c 	.word	0x0001777c

00009110 <random_gen>:
    9110:	e59f202c 	ldr	r2, [pc, #44]	; 9144 <random_gen+0x34>
    9114:	e92d4010 	push	{r4, lr}
    9118:	e5923000 	ldr	r3, [r2]
    911c:	e1a04000 	mov	r4, r0
    9120:	e0233683 	eor	r3, r3, r3, lsl #13
    9124:	e02338a3 	eor	r3, r3, r3, lsr #17
    9128:	e0411000 	sub	r1, r1, r0
    912c:	e0230283 	eor	r0, r3, r3, lsl #5
    9130:	e5820000 	str	r0, [r2]
    9134:	e2811001 	add	r1, r1, #1, 0
    9138:	eb002b87 	bl	13f5c <__aeabi_uidivmod>
    913c:	e0810004 	add	r0, r1, r4
    9140:	e8bd8010 	pop	{r4, pc}
    9144:	0001777c 	.word	0x0001777c

00009148 <read_bit>:
    9148:	e92d4070 	push	{r4, r5, r6, lr}
    914c:	e1a04000 	mov	r4, r0
    9150:	e5900004 	ldr	r0, [r0, #4]
    9154:	eb0026d0 	bl	12c9c <gpio_set_input>
    9158:	e5d40000 	ldrb	r0, [r4]
    915c:	eb002a8c 	bl	13b94 <delay_us>
    9160:	e5d40000 	ldrb	r0, [r4]
    9164:	eb002a8a 	bl	13b94 <delay_us>
    9168:	e5940008 	ldr	r0, [r4, #8]
    916c:	eb0026ca 	bl	12c9c <gpio_set_input>
    9170:	e5d40000 	ldrb	r0, [r4]
    9174:	eb002a86 	bl	13b94 <delay_us>
    9178:	e3a05064 	mov	r5, #100, 0	; 0x64
    917c:	ea000003 	b	9190 <read_bit+0x48>
    9180:	e2555001 	subs	r5, r5, #1, 0
    9184:	3a000016 	bcc	91e4 <read_bit+0x9c>
    9188:	e5d40000 	ldrb	r0, [r4]
    918c:	eb002a80 	bl	13b94 <delay_us>
    9190:	e5940008 	ldr	r0, [r4, #8]
    9194:	eb002643 	bl	12aa8 <gpio_read>
    9198:	e3500000 	cmp	r0, #0, 0
    919c:	0afffff7 	beq	9180 <read_bit+0x38>
    91a0:	e3550000 	cmp	r5, #0, 0
    91a4:	0a00000e 	beq	91e4 <read_bit+0x9c>
    91a8:	e5d40000 	ldrb	r0, [r4]
    91ac:	eb002a78 	bl	13b94 <delay_us>
    91b0:	e5940004 	ldr	r0, [r4, #4]
    91b4:	eb00263b 	bl	12aa8 <gpio_read>
    91b8:	e1a05000 	mov	r5, r0
    91bc:	e5d40000 	ldrb	r0, [r4]
    91c0:	eb002a73 	bl	13b94 <delay_us>
    91c4:	e5940008 	ldr	r0, [r4, #8]
    91c8:	eb0026af 	bl	12c8c <gpio_set_output>
    91cc:	e5940008 	ldr	r0, [r4, #8]
    91d0:	eb00261b 	bl	12a44 <gpio_set_off>
    91d4:	e5d40000 	ldrb	r0, [r4]
    91d8:	eb002a6d 	bl	13b94 <delay_us>
    91dc:	e1a00005 	mov	r0, r5
    91e0:	e8bd8070 	pop	{r4, r5, r6, pc}
    91e4:	e59f100c 	ldr	r1, [pc, #12]	; 91f8 <read_bit+0xb0>
    91e8:	e59f000c 	ldr	r0, [pc, #12]	; 91fc <read_bit+0xb4>
    91ec:	eb0028cf 	bl	13530 <printk>
    91f0:	e3e05000 	mvn	r5, #0, 0
    91f4:	eafffff8 	b	91dc <read_bit+0x94>
    91f8:	00014178 	.word	0x00014178
    91fc:	00014148 	.word	0x00014148

00009200 <write_bit>:
    9200:	e3510000 	cmp	r1, #0, 0
    9204:	e92d4070 	push	{r4, r5, r6, lr}
    9208:	e1a04000 	mov	r4, r0
    920c:	e5900004 	ldr	r0, [r0, #4]
    9210:	0a00001e 	beq	9290 <write_bit+0x90>
    9214:	eb0026a0 	bl	12c9c <gpio_set_input>
    9218:	e5d40000 	ldrb	r0, [r4]
    921c:	eb002a5c 	bl	13b94 <delay_us>
    9220:	e5d40000 	ldrb	r0, [r4]
    9224:	eb002a5a 	bl	13b94 <delay_us>
    9228:	e5940008 	ldr	r0, [r4, #8]
    922c:	eb00269a 	bl	12c9c <gpio_set_input>
    9230:	e5d40000 	ldrb	r0, [r4]
    9234:	eb002a56 	bl	13b94 <delay_us>
    9238:	e3a05064 	mov	r5, #100, 0	; 0x64
    923c:	ea000003 	b	9250 <write_bit+0x50>
    9240:	e2555001 	subs	r5, r5, #1, 0
    9244:	3a000017 	bcc	92a8 <write_bit+0xa8>
    9248:	e5d40000 	ldrb	r0, [r4]
    924c:	eb002a50 	bl	13b94 <delay_us>
    9250:	e5940008 	ldr	r0, [r4, #8]
    9254:	eb002613 	bl	12aa8 <gpio_read>
    9258:	e3500000 	cmp	r0, #0, 0
    925c:	0afffff7 	beq	9240 <write_bit+0x40>
    9260:	e3550000 	cmp	r5, #0, 0
    9264:	0a00000f 	beq	92a8 <write_bit+0xa8>
    9268:	e5d40000 	ldrb	r0, [r4]
    926c:	eb002a48 	bl	13b94 <delay_us>
    9270:	e5940008 	ldr	r0, [r4, #8]
    9274:	eb002684 	bl	12c8c <gpio_set_output>
    9278:	e5940008 	ldr	r0, [r4, #8]
    927c:	eb0025f0 	bl	12a44 <gpio_set_off>
    9280:	e5d40000 	ldrb	r0, [r4]
    9284:	eb002a42 	bl	13b94 <delay_us>
    9288:	e3a00000 	mov	r0, #0, 0
    928c:	e8bd8070 	pop	{r4, r5, r6, pc}
    9290:	eb00267d 	bl	12c8c <gpio_set_output>
    9294:	e5940004 	ldr	r0, [r4, #4]
    9298:	eb0025e9 	bl	12a44 <gpio_set_off>
    929c:	e5d40000 	ldrb	r0, [r4]
    92a0:	eb002a3b 	bl	13b94 <delay_us>
    92a4:	eaffffdd 	b	9220 <write_bit+0x20>
    92a8:	e59f100c 	ldr	r1, [pc, #12]	; 92bc <write_bit+0xbc>
    92ac:	e59f000c 	ldr	r0, [pc, #12]	; 92c0 <write_bit+0xc0>
    92b0:	eb00289e 	bl	13530 <printk>
    92b4:	e3e00000 	mvn	r0, #0, 0
    92b8:	e8bd8070 	pop	{r4, r5, r6, pc}
    92bc:	00014178 	.word	0x00014178
    92c0:	00014148 	.word	0x00014148

000092c4 <i2c_init>:
    92c4:	e92d41f0 	push	{r4, r5, r6, r7, r8, lr}
    92c8:	e1a05000 	mov	r5, r0
    92cc:	e3a0000c 	mov	r0, #12, 0
    92d0:	e1a07001 	mov	r7, r1
    92d4:	e1a06002 	mov	r6, r2
    92d8:	eb002565 	bl	12874 <kmalloc>
    92dc:	e1a04000 	mov	r4, r0
    92e0:	e1a00005 	mov	r0, r5
    92e4:	e98400a0 	stmib	r4, {r5, r7}
    92e8:	e5c46000 	strb	r6, [r4]
    92ec:	eb002666 	bl	12c8c <gpio_set_output>
    92f0:	e5940008 	ldr	r0, [r4, #8]
    92f4:	eb002664 	bl	12c8c <gpio_set_output>
    92f8:	e5940004 	ldr	r0, [r4, #4]
    92fc:	eb002666 	bl	12c9c <gpio_set_input>
    9300:	e5d40000 	ldrb	r0, [r4]
    9304:	eb002a22 	bl	13b94 <delay_us>
    9308:	e5940008 	ldr	r0, [r4, #8]
    930c:	eb002662 	bl	12c9c <gpio_set_input>
    9310:	e5d40000 	ldrb	r0, [r4]
    9314:	eb002a1e 	bl	13b94 <delay_us>
    9318:	e1a00004 	mov	r0, r4
    931c:	e8bd81f0 	pop	{r4, r5, r6, r7, r8, pc}

00009320 <i2c_start>:
    9320:	e92d4010 	push	{r4, lr}
    9324:	e1a04000 	mov	r4, r0
    9328:	e5900004 	ldr	r0, [r0, #4]
    932c:	eb00265a 	bl	12c9c <gpio_set_input>
    9330:	e5d40000 	ldrb	r0, [r4]
    9334:	eb002a16 	bl	13b94 <delay_us>
    9338:	e5940008 	ldr	r0, [r4, #8]
    933c:	eb002656 	bl	12c9c <gpio_set_input>
    9340:	e5d40000 	ldrb	r0, [r4]
    9344:	eb002a12 	bl	13b94 <delay_us>
    9348:	e5d40000 	ldrb	r0, [r4]
    934c:	eb002a10 	bl	13b94 <delay_us>
    9350:	e5940004 	ldr	r0, [r4, #4]
    9354:	eb00264c 	bl	12c8c <gpio_set_output>
    9358:	e5940004 	ldr	r0, [r4, #4]
    935c:	eb0025b8 	bl	12a44 <gpio_set_off>
    9360:	e5d40000 	ldrb	r0, [r4]
    9364:	eb002a0a 	bl	13b94 <delay_us>
    9368:	e5d40000 	ldrb	r0, [r4]
    936c:	eb002a08 	bl	13b94 <delay_us>
    9370:	e5940008 	ldr	r0, [r4, #8]
    9374:	eb002644 	bl	12c8c <gpio_set_output>
    9378:	e5940008 	ldr	r0, [r4, #8]
    937c:	eb0025b0 	bl	12a44 <gpio_set_off>
    9380:	e5d40000 	ldrb	r0, [r4]
    9384:	e8bd4010 	pop	{r4, lr}
    9388:	ea002a01 	b	13b94 <delay_us>

0000938c <i2c_stop>:
    938c:	e92d4010 	push	{r4, lr}
    9390:	e1a04000 	mov	r4, r0
    9394:	e5900008 	ldr	r0, [r0, #8]
    9398:	eb00263b 	bl	12c8c <gpio_set_output>
    939c:	e5940008 	ldr	r0, [r4, #8]
    93a0:	eb0025a7 	bl	12a44 <gpio_set_off>
    93a4:	e5d40000 	ldrb	r0, [r4]
    93a8:	eb0029f9 	bl	13b94 <delay_us>
    93ac:	e5d40000 	ldrb	r0, [r4]
    93b0:	eb0029f7 	bl	13b94 <delay_us>
    93b4:	e5940004 	ldr	r0, [r4, #4]
    93b8:	eb002633 	bl	12c8c <gpio_set_output>
    93bc:	e5940004 	ldr	r0, [r4, #4]
    93c0:	eb00259f 	bl	12a44 <gpio_set_off>
    93c4:	e5d40000 	ldrb	r0, [r4]
    93c8:	eb0029f1 	bl	13b94 <delay_us>
    93cc:	e5d40000 	ldrb	r0, [r4]
    93d0:	eb0029ef 	bl	13b94 <delay_us>
    93d4:	e5940008 	ldr	r0, [r4, #8]
    93d8:	eb00262f 	bl	12c9c <gpio_set_input>
    93dc:	e5d40000 	ldrb	r0, [r4]
    93e0:	eb0029eb 	bl	13b94 <delay_us>
    93e4:	e5d40000 	ldrb	r0, [r4]
    93e8:	eb0029e9 	bl	13b94 <delay_us>
    93ec:	e5940004 	ldr	r0, [r4, #4]
    93f0:	eb002629 	bl	12c9c <gpio_set_input>
    93f4:	e5d40000 	ldrb	r0, [r4]
    93f8:	eb0029e5 	bl	13b94 <delay_us>
    93fc:	e5d40000 	ldrb	r0, [r4]
    9400:	e8bd4010 	pop	{r4, lr}
    9404:	ea0029e2 	b	13b94 <delay_us>

00009408 <i2c_write_byte>:
    9408:	e92d4070 	push	{r4, r5, r6, lr}
    940c:	e1a05000 	mov	r5, r0
    9410:	e1a06001 	mov	r6, r1
    9414:	e3a04007 	mov	r4, #7, 0
    9418:	e1a01456 	asr	r1, r6, r4
    941c:	e1a00005 	mov	r0, r5
    9420:	e2011001 	and	r1, r1, #1, 0
    9424:	ebffff75 	bl	9200 <write_bit>
    9428:	e3500000 	cmp	r0, #0, 0
    942c:	e2444001 	sub	r4, r4, #1, 0
    9430:	ba000006 	blt	9450 <i2c_write_byte+0x48>
    9434:	e3740001 	cmn	r4, #1, 0
    9438:	1afffff6 	bne	9418 <i2c_write_byte+0x10>
    943c:	e1a00005 	mov	r0, r5
    9440:	ebffff40 	bl	9148 <read_bit>
    9444:	e2500000 	subs	r0, r0, #0, 0
    9448:	13a00001 	movne	r0, #1, 0
    944c:	e8bd8070 	pop	{r4, r5, r6, pc}
    9450:	e3e00000 	mvn	r0, #0, 0
    9454:	e8bd8070 	pop	{r4, r5, r6, pc}

00009458 <i2c_read_byte>:
    9458:	e92d41f0 	push	{r4, r5, r6, r7, r8, lr}
    945c:	e1a04000 	mov	r4, r0
    9460:	e1a08001 	mov	r8, r1
    9464:	e3a07007 	mov	r7, #7, 0
    9468:	e3a06000 	mov	r6, #0, 0
    946c:	e5940004 	ldr	r0, [r4, #4]
    9470:	eb002609 	bl	12c9c <gpio_set_input>
    9474:	e5d40000 	ldrb	r0, [r4]
    9478:	eb0029c5 	bl	13b94 <delay_us>
    947c:	e5d40000 	ldrb	r0, [r4]
    9480:	eb0029c3 	bl	13b94 <delay_us>
    9484:	e5940008 	ldr	r0, [r4, #8]
    9488:	eb002603 	bl	12c9c <gpio_set_input>
    948c:	e5d40000 	ldrb	r0, [r4]
    9490:	eb0029bf 	bl	13b94 <delay_us>
    9494:	e3a05064 	mov	r5, #100, 0	; 0x64
    9498:	ea000003 	b	94ac <i2c_read_byte+0x54>
    949c:	e2555001 	subs	r5, r5, #1, 0
    94a0:	3a000025 	bcc	953c <i2c_read_byte+0xe4>
    94a4:	e5d40000 	ldrb	r0, [r4]
    94a8:	eb0029b9 	bl	13b94 <delay_us>
    94ac:	e5940008 	ldr	r0, [r4, #8]
    94b0:	eb00257c 	bl	12aa8 <gpio_read>
    94b4:	e3500000 	cmp	r0, #0, 0
    94b8:	0afffff7 	beq	949c <i2c_read_byte+0x44>
    94bc:	e3550000 	cmp	r5, #0, 0
    94c0:	0a00001d 	beq	953c <i2c_read_byte+0xe4>
    94c4:	e5d40000 	ldrb	r0, [r4]
    94c8:	eb0029b1 	bl	13b94 <delay_us>
    94cc:	e5940004 	ldr	r0, [r4, #4]
    94d0:	eb002574 	bl	12aa8 <gpio_read>
    94d4:	e1a05000 	mov	r5, r0
    94d8:	e5d40000 	ldrb	r0, [r4]
    94dc:	eb0029ac 	bl	13b94 <delay_us>
    94e0:	e5940008 	ldr	r0, [r4, #8]
    94e4:	eb0025e8 	bl	12c8c <gpio_set_output>
    94e8:	e5940008 	ldr	r0, [r4, #8]
    94ec:	eb002554 	bl	12a44 <gpio_set_off>
    94f0:	e5d40000 	ldrb	r0, [r4]
    94f4:	eb0029a6 	bl	13b94 <delay_us>
    94f8:	e3550000 	cmp	r5, #0, 0
    94fc:	ba00000b 	blt	9530 <i2c_read_byte+0xd8>
    9500:	e1866715 	orr	r6, r6, r5, lsl r7
    9504:	e2477001 	sub	r7, r7, #1, 0
    9508:	e3770001 	cmn	r7, #1, 0
    950c:	e6ef6076 	uxtb	r6, r6
    9510:	1affffd5 	bne	946c <i2c_read_byte+0x14>
    9514:	e3580000 	cmp	r8, #0, 0
    9518:	e1a00004 	mov	r0, r4
    951c:	13a01000 	movne	r1, #0, 0
    9520:	03a01001 	moveq	r1, #1, 0
    9524:	ebffff35 	bl	9200 <write_bit>
    9528:	e1a00006 	mov	r0, r6
    952c:	e8bd81f0 	pop	{r4, r5, r6, r7, r8, pc}
    9530:	e3a060ff 	mov	r6, #255, 0	; 0xff
    9534:	e1a00006 	mov	r0, r6
    9538:	e8bd81f0 	pop	{r4, r5, r6, r7, r8, pc}
    953c:	e59f100c 	ldr	r1, [pc, #12]	; 9550 <i2c_read_byte+0xf8>
    9540:	e59f000c 	ldr	r0, [pc, #12]	; 9554 <i2c_read_byte+0xfc>
    9544:	eb0027f9 	bl	13530 <printk>
    9548:	e3a060ff 	mov	r6, #255, 0	; 0xff
    954c:	eafffff5 	b	9528 <i2c_read_byte+0xd0>
    9550:	00014178 	.word	0x00014178
    9554:	00014148 	.word	0x00014148

00009558 <i2c_write_n_bytes>:
    9558:	e92d47f0 	push	{r4, r5, r6, r7, r8, r9, sl, lr}
    955c:	e1a05000 	mov	r5, r0
    9560:	e5900004 	ldr	r0, [r0, #4]
    9564:	e1a07001 	mov	r7, r1
    9568:	e1a06002 	mov	r6, r2
    956c:	e1a08003 	mov	r8, r3
    9570:	eb0025c9 	bl	12c9c <gpio_set_input>
    9574:	e5d50000 	ldrb	r0, [r5]
    9578:	eb002985 	bl	13b94 <delay_us>
    957c:	e5950008 	ldr	r0, [r5, #8]
    9580:	eb0025c5 	bl	12c9c <gpio_set_input>
    9584:	e5d50000 	ldrb	r0, [r5]
    9588:	eb002981 	bl	13b94 <delay_us>
    958c:	e5d50000 	ldrb	r0, [r5]
    9590:	eb00297f 	bl	13b94 <delay_us>
    9594:	e5950004 	ldr	r0, [r5, #4]
    9598:	eb0025bb 	bl	12c8c <gpio_set_output>
    959c:	e5950004 	ldr	r0, [r5, #4]
    95a0:	eb002527 	bl	12a44 <gpio_set_off>
    95a4:	e5d50000 	ldrb	r0, [r5]
    95a8:	eb002979 	bl	13b94 <delay_us>
    95ac:	e5d50000 	ldrb	r0, [r5]
    95b0:	eb002977 	bl	13b94 <delay_us>
    95b4:	e5950008 	ldr	r0, [r5, #8]
    95b8:	eb0025b3 	bl	12c8c <gpio_set_output>
    95bc:	e5950008 	ldr	r0, [r5, #8]
    95c0:	eb00251f 	bl	12a44 <gpio_set_off>
    95c4:	e5d50000 	ldrb	r0, [r5]
    95c8:	e3a04007 	mov	r4, #7, 0
    95cc:	eb002970 	bl	13b94 <delay_us>
    95d0:	e1a07087 	lsl	r7, r7, #1
    95d4:	e6ef7077 	uxtb	r7, r7
    95d8:	e1a01457 	asr	r1, r7, r4
    95dc:	e1a00005 	mov	r0, r5
    95e0:	e2011001 	and	r1, r1, #1, 0
    95e4:	ebffff05 	bl	9200 <write_bit>
    95e8:	e3500000 	cmp	r0, #0, 0
    95ec:	e2444001 	sub	r4, r4, #1, 0
    95f0:	ba00001e 	blt	9670 <i2c_write_n_bytes+0x118>
    95f4:	e3740001 	cmn	r4, #1, 0
    95f8:	1afffff6 	bne	95d8 <i2c_write_n_bytes+0x80>
    95fc:	e1a00005 	mov	r0, r5
    9600:	ebfffed0 	bl	9148 <read_bit>
    9604:	e2509000 	subs	r9, r0, #0, 0
    9608:	1a000018 	bne	9670 <i2c_write_n_bytes+0x118>
    960c:	e3580000 	cmp	r8, #0, 0
    9610:	c2466001 	subgt	r6, r6, #1, 0
    9614:	c0868008 	addgt	r8, r6, r8
    9618:	da000010 	ble	9660 <i2c_write_n_bytes+0x108>
    961c:	e3a04007 	mov	r4, #7, 0
    9620:	e5f67001 	ldrb	r7, [r6, #1]!
    9624:	e1a01457 	asr	r1, r7, r4
    9628:	e1a00005 	mov	r0, r5
    962c:	e2011001 	and	r1, r1, #1, 0
    9630:	ebfffef2 	bl	9200 <write_bit>
    9634:	e3500000 	cmp	r0, #0, 0
    9638:	e2444001 	sub	r4, r4, #1, 0
    963c:	ba00000b 	blt	9670 <i2c_write_n_bytes+0x118>
    9640:	e3740001 	cmn	r4, #1, 0
    9644:	1afffff6 	bne	9624 <i2c_write_n_bytes+0xcc>
    9648:	e1a00005 	mov	r0, r5
    964c:	ebfffebd 	bl	9148 <read_bit>
    9650:	e3500000 	cmp	r0, #0, 0
    9654:	1a000005 	bne	9670 <i2c_write_n_bytes+0x118>
    9658:	e1580006 	cmp	r8, r6
    965c:	1affffee 	bne	961c <i2c_write_n_bytes+0xc4>
    9660:	e1a00005 	mov	r0, r5
    9664:	ebffff48 	bl	938c <i2c_stop>
    9668:	e1a00009 	mov	r0, r9
    966c:	e8bd87f0 	pop	{r4, r5, r6, r7, r8, r9, sl, pc}
    9670:	e3e09000 	mvn	r9, #0, 0
    9674:	e1a00005 	mov	r0, r5
    9678:	ebffff43 	bl	938c <i2c_stop>
    967c:	e1a00009 	mov	r0, r9
    9680:	e8bd87f0 	pop	{r4, r5, r6, r7, r8, r9, sl, pc}

00009684 <i2c_read_n_bytes>:
    9684:	e92d47f0 	push	{r4, r5, r6, r7, r8, r9, sl, lr}
    9688:	e1a05000 	mov	r5, r0
    968c:	e5900004 	ldr	r0, [r0, #4]
    9690:	e1a06001 	mov	r6, r1
    9694:	e1a08002 	mov	r8, r2
    9698:	e1a07003 	mov	r7, r3
    969c:	eb00257e 	bl	12c9c <gpio_set_input>
    96a0:	e5d50000 	ldrb	r0, [r5]
    96a4:	eb00293a 	bl	13b94 <delay_us>
    96a8:	e5950008 	ldr	r0, [r5, #8]
    96ac:	eb00257a 	bl	12c9c <gpio_set_input>
    96b0:	e5d50000 	ldrb	r0, [r5]
    96b4:	eb002936 	bl	13b94 <delay_us>
    96b8:	e5d50000 	ldrb	r0, [r5]
    96bc:	eb002934 	bl	13b94 <delay_us>
    96c0:	e5950004 	ldr	r0, [r5, #4]
    96c4:	eb002570 	bl	12c8c <gpio_set_output>
    96c8:	e5950004 	ldr	r0, [r5, #4]
    96cc:	eb0024dc 	bl	12a44 <gpio_set_off>
    96d0:	e5d50000 	ldrb	r0, [r5]
    96d4:	eb00292e 	bl	13b94 <delay_us>
    96d8:	e5d50000 	ldrb	r0, [r5]
    96dc:	eb00292c 	bl	13b94 <delay_us>
    96e0:	e5950008 	ldr	r0, [r5, #8]
    96e4:	eb002568 	bl	12c8c <gpio_set_output>
    96e8:	e5950008 	ldr	r0, [r5, #8]
    96ec:	eb0024d4 	bl	12a44 <gpio_set_off>
    96f0:	e5d50000 	ldrb	r0, [r5]
    96f4:	e3a04007 	mov	r4, #7, 0
    96f8:	eb002925 	bl	13b94 <delay_us>
    96fc:	e1a06086 	lsl	r6, r6, #1
    9700:	e3866001 	orr	r6, r6, #1, 0
    9704:	e6ef6076 	uxtb	r6, r6
    9708:	e1a01456 	asr	r1, r6, r4
    970c:	e1a00005 	mov	r0, r5
    9710:	e2011001 	and	r1, r1, #1, 0
    9714:	ebfffeb9 	bl	9200 <write_bit>
    9718:	e3500000 	cmp	r0, #0, 0
    971c:	e2444001 	sub	r4, r4, #1, 0
    9720:	ba000018 	blt	9788 <i2c_read_n_bytes+0x104>
    9724:	e3740001 	cmn	r4, #1, 0
    9728:	1afffff6 	bne	9708 <i2c_read_n_bytes+0x84>
    972c:	e1a00005 	mov	r0, r5
    9730:	ebfffe84 	bl	9148 <read_bit>
    9734:	e3500000 	cmp	r0, #0, 0
    9738:	1a000012 	bne	9788 <i2c_read_n_bytes+0x104>
    973c:	e3570000 	cmp	r7, #0, 0
    9740:	c2484001 	subgt	r4, r8, #1, 0
    9744:	c0849007 	addgt	r9, r4, r7
    9748:	c2688001 	rsbgt	r8, r8, #1, 0
    974c:	c2476001 	subgt	r6, r7, #1, 0
    9750:	da000008 	ble	9778 <i2c_read_n_bytes+0xf4>
    9754:	e0881004 	add	r1, r8, r4
    9758:	e1510006 	cmp	r1, r6
    975c:	a3a01000 	movge	r1, #0, 0
    9760:	b3a01001 	movlt	r1, #1, 0
    9764:	e1a00005 	mov	r0, r5
    9768:	ebffff3a 	bl	9458 <i2c_read_byte>
    976c:	e5e40001 	strb	r0, [r4, #1]!
    9770:	e1590004 	cmp	r9, r4
    9774:	1afffff6 	bne	9754 <i2c_read_n_bytes+0xd0>
    9778:	e1a00005 	mov	r0, r5
    977c:	ebffff02 	bl	938c <i2c_stop>
    9780:	e1a00007 	mov	r0, r7
    9784:	e8bd87f0 	pop	{r4, r5, r6, r7, r8, r9, sl, pc}
    9788:	e1a00005 	mov	r0, r5
    978c:	ebfffefe 	bl	938c <i2c_stop>
    9790:	e3e00000 	mvn	r0, #0, 0
    9794:	e8bd87f0 	pop	{r4, r5, r6, r7, r8, r9, sl, pc}

00009798 <i2c_write_read_reg_n>:
    9798:	e92d47f0 	push	{r4, r5, r6, r7, r8, r9, sl, lr}
    979c:	e1a04000 	mov	r4, r0
    97a0:	e5900004 	ldr	r0, [r0, #4]
    97a4:	e1a07001 	mov	r7, r1
    97a8:	e1a09002 	mov	r9, r2
    97ac:	e1a08003 	mov	r8, r3
    97b0:	e59d6020 	ldr	r6, [sp, #32]
    97b4:	eb002538 	bl	12c9c <gpio_set_input>
    97b8:	e5d40000 	ldrb	r0, [r4]
    97bc:	eb0028f4 	bl	13b94 <delay_us>
    97c0:	e5940008 	ldr	r0, [r4, #8]
    97c4:	eb002534 	bl	12c9c <gpio_set_input>
    97c8:	e5d40000 	ldrb	r0, [r4]
    97cc:	eb0028f0 	bl	13b94 <delay_us>
    97d0:	e5d40000 	ldrb	r0, [r4]
    97d4:	eb0028ee 	bl	13b94 <delay_us>
    97d8:	e5940004 	ldr	r0, [r4, #4]
    97dc:	eb00252a 	bl	12c8c <gpio_set_output>
    97e0:	e5940004 	ldr	r0, [r4, #4]
    97e4:	eb002496 	bl	12a44 <gpio_set_off>
    97e8:	e5d40000 	ldrb	r0, [r4]
    97ec:	eb0028e8 	bl	13b94 <delay_us>
    97f0:	e5d40000 	ldrb	r0, [r4]
    97f4:	eb0028e6 	bl	13b94 <delay_us>
    97f8:	e5940008 	ldr	r0, [r4, #8]
    97fc:	eb002522 	bl	12c8c <gpio_set_output>
    9800:	e5940008 	ldr	r0, [r4, #8]
    9804:	eb00248e 	bl	12a44 <gpio_set_off>
    9808:	e5d40000 	ldrb	r0, [r4]
    980c:	eb0028e0 	bl	13b94 <delay_us>
    9810:	e3a05007 	mov	r5, #7, 0
    9814:	e1a07087 	lsl	r7, r7, #1
    9818:	e6efa077 	uxtb	sl, r7
    981c:	e1a0155a 	asr	r1, sl, r5
    9820:	e1a00004 	mov	r0, r4
    9824:	e2011001 	and	r1, r1, #1, 0
    9828:	ebfffe74 	bl	9200 <write_bit>
    982c:	e3500000 	cmp	r0, #0, 0
    9830:	e2455001 	sub	r5, r5, #1, 0
    9834:	ba00004e 	blt	9974 <i2c_write_read_reg_n+0x1dc>
    9838:	e3750001 	cmn	r5, #1, 0
    983c:	1afffff6 	bne	981c <i2c_write_read_reg_n+0x84>
    9840:	e1a00004 	mov	r0, r4
    9844:	ebfffe3f 	bl	9148 <read_bit>
    9848:	e3500000 	cmp	r0, #0, 0
    984c:	1a000048 	bne	9974 <i2c_write_read_reg_n+0x1dc>
    9850:	e3a05007 	mov	r5, #7, 0
    9854:	e1a01559 	asr	r1, r9, r5
    9858:	e1a00004 	mov	r0, r4
    985c:	e2011001 	and	r1, r1, #1, 0
    9860:	ebfffe66 	bl	9200 <write_bit>
    9864:	e3500000 	cmp	r0, #0, 0
    9868:	e2455001 	sub	r5, r5, #1, 0
    986c:	ba000040 	blt	9974 <i2c_write_read_reg_n+0x1dc>
    9870:	e3750001 	cmn	r5, #1, 0
    9874:	1afffff6 	bne	9854 <i2c_write_read_reg_n+0xbc>
    9878:	e1a00004 	mov	r0, r4
    987c:	ebfffe31 	bl	9148 <read_bit>
    9880:	e3500000 	cmp	r0, #0, 0
    9884:	1a00003a 	bne	9974 <i2c_write_read_reg_n+0x1dc>
    9888:	e5940004 	ldr	r0, [r4, #4]
    988c:	eb002502 	bl	12c9c <gpio_set_input>
    9890:	e5d40000 	ldrb	r0, [r4]
    9894:	eb0028be 	bl	13b94 <delay_us>
    9898:	e5940008 	ldr	r0, [r4, #8]
    989c:	eb0024fe 	bl	12c9c <gpio_set_input>
    98a0:	e5d40000 	ldrb	r0, [r4]
    98a4:	eb0028ba 	bl	13b94 <delay_us>
    98a8:	e5d40000 	ldrb	r0, [r4]
    98ac:	eb0028b8 	bl	13b94 <delay_us>
    98b0:	e5940004 	ldr	r0, [r4, #4]
    98b4:	eb0024f4 	bl	12c8c <gpio_set_output>
    98b8:	e5940004 	ldr	r0, [r4, #4]
    98bc:	eb002460 	bl	12a44 <gpio_set_off>
    98c0:	e5d40000 	ldrb	r0, [r4]
    98c4:	eb0028b2 	bl	13b94 <delay_us>
    98c8:	e5d40000 	ldrb	r0, [r4]
    98cc:	eb0028b0 	bl	13b94 <delay_us>
    98d0:	e5940008 	ldr	r0, [r4, #8]
    98d4:	eb0024ec 	bl	12c8c <gpio_set_output>
    98d8:	e5940008 	ldr	r0, [r4, #8]
    98dc:	eb002458 	bl	12a44 <gpio_set_off>
    98e0:	e5d40000 	ldrb	r0, [r4]
    98e4:	e3a05007 	mov	r5, #7, 0
    98e8:	eb0028a9 	bl	13b94 <delay_us>
    98ec:	e3877001 	orr	r7, r7, #1, 0
    98f0:	e6ef7077 	uxtb	r7, r7
    98f4:	e1a01557 	asr	r1, r7, r5
    98f8:	e1a00004 	mov	r0, r4
    98fc:	e2011001 	and	r1, r1, #1, 0
    9900:	ebfffe3e 	bl	9200 <write_bit>
    9904:	e3500000 	cmp	r0, #0, 0
    9908:	e2455001 	sub	r5, r5, #1, 0
    990c:	ba000018 	blt	9974 <i2c_write_read_reg_n+0x1dc>
    9910:	e3750001 	cmn	r5, #1, 0
    9914:	1afffff6 	bne	98f4 <i2c_write_read_reg_n+0x15c>
    9918:	e1a00004 	mov	r0, r4
    991c:	ebfffe09 	bl	9148 <read_bit>
    9920:	e3500000 	cmp	r0, #0, 0
    9924:	1a000012 	bne	9974 <i2c_write_read_reg_n+0x1dc>
    9928:	e3560000 	cmp	r6, #0, 0
    992c:	c2485001 	subgt	r5, r8, #1, 0
    9930:	c0859006 	addgt	r9, r5, r6
    9934:	c2688001 	rsbgt	r8, r8, #1, 0
    9938:	c2467001 	subgt	r7, r6, #1, 0
    993c:	da000008 	ble	9964 <i2c_write_read_reg_n+0x1cc>
    9940:	e0881005 	add	r1, r8, r5
    9944:	e1510007 	cmp	r1, r7
    9948:	a3a01000 	movge	r1, #0, 0
    994c:	b3a01001 	movlt	r1, #1, 0
    9950:	e1a00004 	mov	r0, r4
    9954:	ebfffebf 	bl	9458 <i2c_read_byte>
    9958:	e5e50001 	strb	r0, [r5, #1]!
    995c:	e1590005 	cmp	r9, r5
    9960:	1afffff6 	bne	9940 <i2c_write_read_reg_n+0x1a8>
    9964:	e1a00004 	mov	r0, r4
    9968:	ebfffe87 	bl	938c <i2c_stop>
    996c:	e1a00006 	mov	r0, r6
    9970:	e8bd87f0 	pop	{r4, r5, r6, r7, r8, r9, sl, pc}
    9974:	e1a00004 	mov	r0, r4
    9978:	ebfffe83 	bl	938c <i2c_stop>
    997c:	e3e00000 	mvn	r0, #0, 0
    9980:	e8bd87f0 	pop	{r4, r5, r6, r7, r8, r9, sl, pc}

00009984 <i2c_scan>:
    9984:	e92d4ff8 	push	{r3, r4, r5, r6, r7, r8, r9, sl, fp, lr}
    9988:	e3a07000 	mov	r7, #0, 0
    998c:	e1a04000 	mov	r4, r0
    9990:	e59fa1fc 	ldr	sl, [pc, #508]	; 9b94 <i2c_scan+0x210>
    9994:	e59f91fc 	ldr	r9, [pc, #508]	; 9b98 <i2c_scan+0x214>
    9998:	e59f81fc 	ldr	r8, [pc, #508]	; 9b9c <i2c_scan+0x218>
    999c:	e5940004 	ldr	r0, [r4, #4]
    99a0:	eb0024bd 	bl	12c9c <gpio_set_input>
    99a4:	e5d40000 	ldrb	r0, [r4]
    99a8:	eb002879 	bl	13b94 <delay_us>
    99ac:	e5940008 	ldr	r0, [r4, #8]
    99b0:	eb0024b9 	bl	12c9c <gpio_set_input>
    99b4:	e5d40000 	ldrb	r0, [r4]
    99b8:	eb002875 	bl	13b94 <delay_us>
    99bc:	e5d40000 	ldrb	r0, [r4]
    99c0:	eb002873 	bl	13b94 <delay_us>
    99c4:	e5940004 	ldr	r0, [r4, #4]
    99c8:	eb0024af 	bl	12c8c <gpio_set_output>
    99cc:	e5940004 	ldr	r0, [r4, #4]
    99d0:	eb00241b 	bl	12a44 <gpio_set_off>
    99d4:	e5d40000 	ldrb	r0, [r4]
    99d8:	eb00286d 	bl	13b94 <delay_us>
    99dc:	e5d40000 	ldrb	r0, [r4]
    99e0:	eb00286b 	bl	13b94 <delay_us>
    99e4:	e5940008 	ldr	r0, [r4, #8]
    99e8:	eb0024a7 	bl	12c8c <gpio_set_output>
    99ec:	e5940008 	ldr	r0, [r4, #8]
    99f0:	eb002413 	bl	12a44 <gpio_set_off>
    99f4:	e5d40000 	ldrb	r0, [r4]
    99f8:	eb002865 	bl	13b94 <delay_us>
    99fc:	e3a06007 	mov	r6, #7, 0
    9a00:	e1a0b087 	lsl	fp, r7, #1
    9a04:	e1a0365b 	asr	r3, fp, r6
    9a08:	e3130001 	tst	r3, #1, 0
    9a0c:	e5940004 	ldr	r0, [r4, #4]
    9a10:	0a00004d 	beq	9b4c <i2c_scan+0x1c8>
    9a14:	eb0024a0 	bl	12c9c <gpio_set_input>
    9a18:	e5d40000 	ldrb	r0, [r4]
    9a1c:	eb00285c 	bl	13b94 <delay_us>
    9a20:	e5d40000 	ldrb	r0, [r4]
    9a24:	eb00285a 	bl	13b94 <delay_us>
    9a28:	e5940008 	ldr	r0, [r4, #8]
    9a2c:	eb00249a 	bl	12c9c <gpio_set_input>
    9a30:	e5d40000 	ldrb	r0, [r4]
    9a34:	eb002856 	bl	13b94 <delay_us>
    9a38:	e3a05064 	mov	r5, #100, 0	; 0x64
    9a3c:	ea000003 	b	9a50 <i2c_scan+0xcc>
    9a40:	e2555001 	subs	r5, r5, #1, 0
    9a44:	3a00004c 	bcc	9b7c <i2c_scan+0x1f8>
    9a48:	e5d40000 	ldrb	r0, [r4]
    9a4c:	eb002850 	bl	13b94 <delay_us>
    9a50:	e5940008 	ldr	r0, [r4, #8]
    9a54:	eb002413 	bl	12aa8 <gpio_read>
    9a58:	e3500000 	cmp	r0, #0, 0
    9a5c:	0afffff7 	beq	9a40 <i2c_scan+0xbc>
    9a60:	e3550000 	cmp	r5, #0, 0
    9a64:	0a000044 	beq	9b7c <i2c_scan+0x1f8>
    9a68:	e5d40000 	ldrb	r0, [r4]
    9a6c:	eb002848 	bl	13b94 <delay_us>
    9a70:	e5940008 	ldr	r0, [r4, #8]
    9a74:	eb002484 	bl	12c8c <gpio_set_output>
    9a78:	e5940008 	ldr	r0, [r4, #8]
    9a7c:	eb0023f0 	bl	12a44 <gpio_set_off>
    9a80:	e2466001 	sub	r6, r6, #1, 0
    9a84:	e5d40000 	ldrb	r0, [r4]
    9a88:	eb002841 	bl	13b94 <delay_us>
    9a8c:	e3760001 	cmn	r6, #1, 0
    9a90:	1affffdb 	bne	9a04 <i2c_scan+0x80>
    9a94:	e5940004 	ldr	r0, [r4, #4]
    9a98:	eb00247f 	bl	12c9c <gpio_set_input>
    9a9c:	e5d40000 	ldrb	r0, [r4]
    9aa0:	eb00283b 	bl	13b94 <delay_us>
    9aa4:	e5d40000 	ldrb	r0, [r4]
    9aa8:	eb002839 	bl	13b94 <delay_us>
    9aac:	e5940008 	ldr	r0, [r4, #8]
    9ab0:	eb002479 	bl	12c9c <gpio_set_input>
    9ab4:	e5d40000 	ldrb	r0, [r4]
    9ab8:	eb002835 	bl	13b94 <delay_us>
    9abc:	e3a05064 	mov	r5, #100, 0	; 0x64
    9ac0:	ea000003 	b	9ad4 <i2c_scan+0x150>
    9ac4:	e2555001 	subs	r5, r5, #1, 0
    9ac8:	3a000025 	bcc	9b64 <i2c_scan+0x1e0>
    9acc:	e5d40000 	ldrb	r0, [r4]
    9ad0:	eb00282f 	bl	13b94 <delay_us>
    9ad4:	e5940008 	ldr	r0, [r4, #8]
    9ad8:	eb0023f2 	bl	12aa8 <gpio_read>
    9adc:	e3500000 	cmp	r0, #0, 0
    9ae0:	0afffff7 	beq	9ac4 <i2c_scan+0x140>
    9ae4:	e3550000 	cmp	r5, #0, 0
    9ae8:	0a00001d 	beq	9b64 <i2c_scan+0x1e0>
    9aec:	e5d40000 	ldrb	r0, [r4]
    9af0:	eb002827 	bl	13b94 <delay_us>
    9af4:	e5940004 	ldr	r0, [r4, #4]
    9af8:	eb0023ea 	bl	12aa8 <gpio_read>
    9afc:	e1a05000 	mov	r5, r0
    9b00:	e5d40000 	ldrb	r0, [r4]
    9b04:	eb002822 	bl	13b94 <delay_us>
    9b08:	e5940008 	ldr	r0, [r4, #8]
    9b0c:	eb00245e 	bl	12c8c <gpio_set_output>
    9b10:	e5940008 	ldr	r0, [r4, #8]
    9b14:	eb0023ca 	bl	12a44 <gpio_set_off>
    9b18:	e5d40000 	ldrb	r0, [r4]
    9b1c:	eb00281c 	bl	13b94 <delay_us>
    9b20:	e3550000 	cmp	r5, #0, 0
    9b24:	1a000011 	bne	9b70 <i2c_scan+0x1ec>
    9b28:	e1a00004 	mov	r0, r4
    9b2c:	ebfffe16 	bl	938c <i2c_stop>
    9b30:	e1a01007 	mov	r1, r7
    9b34:	e1a00008 	mov	r0, r8
    9b38:	eb00267c 	bl	13530 <printk>
    9b3c:	e2877001 	add	r7, r7, #1, 0
    9b40:	e357007f 	cmp	r7, #127, 0	; 0x7f
    9b44:	1affff94 	bne	999c <i2c_scan+0x18>
    9b48:	e8bd8ff8 	pop	{r3, r4, r5, r6, r7, r8, r9, sl, fp, pc}
    9b4c:	eb00244e 	bl	12c8c <gpio_set_output>
    9b50:	e5940004 	ldr	r0, [r4, #4]
    9b54:	eb0023ba 	bl	12a44 <gpio_set_off>
    9b58:	e5d40000 	ldrb	r0, [r4]
    9b5c:	eb00280c 	bl	13b94 <delay_us>
    9b60:	eaffffae 	b	9a20 <i2c_scan+0x9c>
    9b64:	e1a0100a 	mov	r1, sl
    9b68:	e1a00009 	mov	r0, r9
    9b6c:	eb00266f 	bl	13530 <printk>
    9b70:	e1a00004 	mov	r0, r4
    9b74:	ebfffe04 	bl	938c <i2c_stop>
    9b78:	eaffffef 	b	9b3c <i2c_scan+0x1b8>
    9b7c:	e1a0100a 	mov	r1, sl
    9b80:	e1a00009 	mov	r0, r9
    9b84:	eb002669 	bl	13530 <printk>
    9b88:	e1a00004 	mov	r0, r4
    9b8c:	ebfffdfe 	bl	938c <i2c_stop>
    9b90:	eaffffe9 	b	9b3c <i2c_scan+0x1b8>
    9b94:	00014178 	.word	0x00014178
    9b98:	00014148 	.word	0x00014148
    9b9c:	0001415c 	.word	0x0001415c

00009ba0 <rtc_get_total_seconds>:
    9ba0:	e92d47f0 	push	{r4, r5, r6, r7, r8, r9, sl, lr}
    9ba4:	e3a0a001 	mov	sl, #1, 0
    9ba8:	e1a09000 	mov	r9, r0
    9bac:	e24dd010 	sub	sp, sp, #16, 0
    9bb0:	e28d300f 	add	r3, sp, #15, 0
    9bb4:	e3a02009 	mov	r2, #9, 0
    9bb8:	e3a01068 	mov	r1, #104, 0	; 0x68
    9bbc:	e58da000 	str	sl, [sp]
    9bc0:	ebfffef4 	bl	9798 <i2c_write_read_reg_n>
    9bc4:	e5dd200f 	ldrb	r2, [sp, #15]
    9bc8:	e1a00009 	mov	r0, r9
    9bcc:	e1a08242 	asr	r8, r2, #4
    9bd0:	e0883108 	add	r3, r8, r8, lsl #2
    9bd4:	e202800f 	and	r8, r2, #15, 0
    9bd8:	e0888a13 	add	r8, r8, r3, lsl sl
    9bdc:	e3a02008 	mov	r2, #8, 0
    9be0:	e28d300f 	add	r3, sp, #15, 0
    9be4:	e3a01068 	mov	r1, #104, 0	; 0x68
    9be8:	e58da000 	str	sl, [sp]
    9bec:	ebfffee9 	bl	9798 <i2c_write_read_reg_n>
    9bf0:	e5dd200f 	ldrb	r2, [sp, #15]
    9bf4:	e1a00009 	mov	r0, r9
    9bf8:	e1a03242 	asr	r3, r2, #4
    9bfc:	e003300a 	and	r3, r3, sl
    9c00:	e1a04103 	lsl	r4, r3, #2
    9c04:	e202c00f 	and	ip, r2, #15, 0
    9c08:	e3a01068 	mov	r1, #104, 0	; 0x68
    9c0c:	e3a02006 	mov	r2, #6, 0
    9c10:	e58da000 	str	sl, [sp]
    9c14:	e0834004 	add	r4, r3, r4
    9c18:	e28d300f 	add	r3, sp, #15, 0
    9c1c:	e08c4a14 	add	r4, ip, r4, lsl sl
    9c20:	ebfffedc 	bl	9798 <i2c_write_read_reg_n>
    9c24:	e5dd300f 	ldrb	r3, [sp, #15]
    9c28:	e1a00009 	mov	r0, r9
    9c2c:	e1a05243 	asr	r5, r3, #4
    9c30:	e2055003 	and	r5, r5, #3, 0
    9c34:	e203c00f 	and	ip, r3, #15, 0
    9c38:	e3a02005 	mov	r2, #5, 0
    9c3c:	e28d300f 	add	r3, sp, #15, 0
    9c40:	e3a01068 	mov	r1, #104, 0	; 0x68
    9c44:	e58da000 	str	sl, [sp]
    9c48:	e0855105 	add	r5, r5, r5, lsl #2
    9c4c:	e08c5a15 	add	r5, ip, r5, lsl sl
    9c50:	ebfffed0 	bl	9798 <i2c_write_read_reg_n>
    9c54:	e5dd300f 	ldrb	r3, [sp, #15]
    9c58:	e1a00009 	mov	r0, r9
    9c5c:	e1a07243 	asr	r7, r3, #4
    9c60:	e2077003 	and	r7, r7, #3, 0
    9c64:	e203c00f 	and	ip, r3, #15, 0
    9c68:	e3a02004 	mov	r2, #4, 0
    9c6c:	e28d300f 	add	r3, sp, #15, 0
    9c70:	e3a01068 	mov	r1, #104, 0	; 0x68
    9c74:	e58da000 	str	sl, [sp]
    9c78:	e0877107 	add	r7, r7, r7, lsl #2
    9c7c:	e08c7a17 	add	r7, ip, r7, lsl sl
    9c80:	ebfffec4 	bl	9798 <i2c_write_read_reg_n>
    9c84:	e5dd200f 	ldrb	r2, [sp, #15]
    9c88:	e28d300f 	add	r3, sp, #15, 0
    9c8c:	e1a06242 	asr	r6, r2, #4
    9c90:	e2066007 	and	r6, r6, #7, 0
    9c94:	e202c00f 	and	ip, r2, #15, 0
    9c98:	e1a00009 	mov	r0, r9
    9c9c:	e3a02003 	mov	r2, #3, 0
    9ca0:	e3a01068 	mov	r1, #104, 0	; 0x68
    9ca4:	e58da000 	str	sl, [sp]
    9ca8:	e0866106 	add	r6, r6, r6, lsl #2
    9cac:	e08c6a16 	add	r6, ip, r6, lsl sl
    9cb0:	ebfffeb8 	bl	9798 <i2c_write_read_reg_n>
    9cb4:	e3540002 	cmp	r4, #2, 0
    9cb8:	9284400c 	addls	r4, r4, #12, 0
    9cbc:	96ef4074 	uxtbls	r4, r4
    9cc0:	e2444003 	sub	r4, r4, #3, 0
    9cc4:	e0844184 	add	r4, r4, r4, lsl #3
    9cc8:	e5dd000f 	ldrb	r0, [sp, #15]
    9ccc:	e59f1090 	ldr	r1, [pc, #144]	; 9d64 <rtc_get_total_seconds+0x1c4>
    9cd0:	e0844204 	add	r4, r4, r4, lsl #4
    9cd4:	e2844002 	add	r4, r4, #2, 0
    9cd8:	e0841491 	umull	r1, r4, r1, r4
    9cdc:	e1a02240 	asr	r2, r0, #4
    9ce0:	e6ef8078 	uxtb	r8, r8
    9ce4:	e2022007 	and	r2, r2, #7, 0
    9ce8:	92883d1f 	addls	r3, r8, #1984	; 0x7c0
    9cec:	e200000f 	and	r0, r0, #15, 0
    9cf0:	e0822102 	add	r2, r2, r2, lsl #2
    9cf4:	82883e7d 	addhi	r3, r8, #2000	; 0x7d0
    9cf8:	9283300f 	addls	r3, r3, #15, 0
    9cfc:	e0802a12 	add	r2, r0, r2, lsl sl
    9d00:	e2455001 	sub	r5, r5, #1, 0
    9d04:	e59f005c 	ldr	r0, [pc, #92]	; 9d68 <rtc_get_total_seconds+0x1c8>
    9d08:	e0854124 	add	r4, r5, r4, lsr #2
    9d0c:	e0835183 	add	r5, r3, r3, lsl #3
    9d10:	e0801390 	umull	r1, r0, r0, r3
    9d14:	e0835185 	add	r5, r3, r5, lsl #3
    9d18:	e0855105 	add	r5, r5, r5, lsl #2
    9d1c:	e0844005 	add	r4, r4, r5
    9d20:	e0843123 	add	r3, r4, r3, lsr #2
    9d24:	e04332a0 	sub	r3, r3, r0, lsr #5
    9d28:	e59f103c 	ldr	r1, [pc, #60]	; 9d6c <rtc_get_total_seconds+0x1cc>
    9d2c:	e08333a0 	add	r3, r3, r0, lsr #7
    9d30:	e0666206 	rsb	r6, r6, r6, lsl #4
    9d34:	e0831001 	add	r1, r3, r1
    9d38:	e0677207 	rsb	r7, r7, r7, lsl #4
    9d3c:	e0677207 	rsb	r7, r7, r7, lsl #4
    9d40:	e1a00106 	lsl	r0, r6, #2
    9d44:	e0811081 	add	r1, r1, r1, lsl #1
    9d48:	e0800207 	add	r0, r0, r7, lsl #4
    9d4c:	e0611201 	rsb	r1, r1, r1, lsl #4
    9d50:	e0800002 	add	r0, r0, r2
    9d54:	e0611201 	rsb	r1, r1, r1, lsl #4
    9d58:	e0800381 	add	r0, r0, r1, lsl #7
    9d5c:	e28dd010 	add	sp, sp, #16, 0
    9d60:	e8bd87f0 	pop	{r4, r5, r6, r7, r8, r9, sl, pc}
    9d64:	cccccccd 	.word	0xcccccccd
    9d68:	51eb851f 	.word	0x51eb851f
    9d6c:	fff4dac7 	.word	0xfff4dac7

00009d70 <rtc_set_seconds>:
    9d70:	e3a02003 	mov	r2, #3, 0
    9d74:	e52de004 	push	{lr}		; (str lr, [sp, #-4]!)
    9d78:	e59f3038 	ldr	r3, [pc, #56]	; 9db8 <rtc_set_seconds+0x48>
    9d7c:	e24dd00c 	sub	sp, sp, #12, 0
    9d80:	e5cd2004 	strb	r2, [sp, #4]
    9d84:	e0832193 	umull	r2, r3, r3, r1
    9d88:	e1a031a3 	lsr	r3, r3, #3
    9d8c:	e083c103 	add	ip, r3, r3, lsl #2
    9d90:	e041108c 	sub	r1, r1, ip, lsl #1
    9d94:	e2033007 	and	r3, r3, #7, 0
    9d98:	e181c203 	orr	ip, r1, r3, lsl #4
    9d9c:	e28d2004 	add	r2, sp, #4, 0
    9da0:	e3a03002 	mov	r3, #2, 0
    9da4:	e3a01068 	mov	r1, #104, 0	; 0x68
    9da8:	e5cdc005 	strb	ip, [sp, #5]
    9dac:	ebfffde9 	bl	9558 <i2c_write_n_bytes>
    9db0:	e28dd00c 	add	sp, sp, #12, 0
    9db4:	e49df004 	pop	{pc}		; (ldr pc, [sp], #4)
    9db8:	cccccccd 	.word	0xcccccccd

00009dbc <rtc_set_minutes>:
    9dbc:	e3a02004 	mov	r2, #4, 0
    9dc0:	e52de004 	push	{lr}		; (str lr, [sp, #-4]!)
    9dc4:	e59f3038 	ldr	r3, [pc, #56]	; 9e04 <rtc_set_minutes+0x48>
    9dc8:	e24dd00c 	sub	sp, sp, #12, 0
    9dcc:	e5cd2004 	strb	r2, [sp, #4]
    9dd0:	e0832193 	umull	r2, r3, r3, r1
    9dd4:	e1a031a3 	lsr	r3, r3, #3
    9dd8:	e083c103 	add	ip, r3, r3, lsl #2
    9ddc:	e041108c 	sub	r1, r1, ip, lsl #1
    9de0:	e2033007 	and	r3, r3, #7, 0
    9de4:	e181c203 	orr	ip, r1, r3, lsl #4
    9de8:	e28d2004 	add	r2, sp, #4, 0
    9dec:	e3a03002 	mov	r3, #2, 0
    9df0:	e3a01068 	mov	r1, #104, 0	; 0x68
    9df4:	e5cdc005 	strb	ip, [sp, #5]
    9df8:	ebfffdd6 	bl	9558 <i2c_write_n_bytes>
    9dfc:	e28dd00c 	add	sp, sp, #12, 0
    9e00:	e49df004 	pop	{pc}		; (ldr pc, [sp], #4)
    9e04:	cccccccd 	.word	0xcccccccd

00009e08 <rtc_set_hours>:
    9e08:	e3a02005 	mov	r2, #5, 0
    9e0c:	e52de004 	push	{lr}		; (str lr, [sp, #-4]!)
    9e10:	e59f3038 	ldr	r3, [pc, #56]	; 9e50 <rtc_set_hours+0x48>
    9e14:	e24dd00c 	sub	sp, sp, #12, 0
    9e18:	e5cd2004 	strb	r2, [sp, #4]
    9e1c:	e0832193 	umull	r2, r3, r3, r1
    9e20:	e1a031a3 	lsr	r3, r3, #3
    9e24:	e083c103 	add	ip, r3, r3, lsl #2
    9e28:	e041108c 	sub	r1, r1, ip, lsl #1
    9e2c:	e2033003 	and	r3, r3, #3, 0
    9e30:	e181c203 	orr	ip, r1, r3, lsl #4
    9e34:	e28d2004 	add	r2, sp, #4, 0
    9e38:	e3a03002 	mov	r3, #2, 0
    9e3c:	e3a01068 	mov	r1, #104, 0	; 0x68
    9e40:	e5cdc005 	strb	ip, [sp, #5]
    9e44:	ebfffdc3 	bl	9558 <i2c_write_n_bytes>
    9e48:	e28dd00c 	add	sp, sp, #12, 0
    9e4c:	e49df004 	pop	{pc}		; (ldr pc, [sp], #4)
    9e50:	cccccccd 	.word	0xcccccccd

00009e54 <rtc_set_days>:
    9e54:	e3a02006 	mov	r2, #6, 0
    9e58:	e52de004 	push	{lr}		; (str lr, [sp, #-4]!)
    9e5c:	e59f3038 	ldr	r3, [pc, #56]	; 9e9c <rtc_set_days+0x48>
    9e60:	e24dd00c 	sub	sp, sp, #12, 0
    9e64:	e5cd2004 	strb	r2, [sp, #4]
    9e68:	e0832193 	umull	r2, r3, r3, r1
    9e6c:	e1a031a3 	lsr	r3, r3, #3
    9e70:	e083c103 	add	ip, r3, r3, lsl #2
    9e74:	e041108c 	sub	r1, r1, ip, lsl #1
    9e78:	e2033003 	and	r3, r3, #3, 0
    9e7c:	e181c203 	orr	ip, r1, r3, lsl #4
    9e80:	e28d2004 	add	r2, sp, #4, 0
    9e84:	e3a03002 	mov	r3, #2, 0
    9e88:	e3a01068 	mov	r1, #104, 0	; 0x68
    9e8c:	e5cdc005 	strb	ip, [sp, #5]
    9e90:	ebfffdb0 	bl	9558 <i2c_write_n_bytes>
    9e94:	e28dd00c 	add	sp, sp, #12, 0
    9e98:	e49df004 	pop	{pc}		; (ldr pc, [sp], #4)
    9e9c:	cccccccd 	.word	0xcccccccd

00009ea0 <rtc_set_weekdays>:
    9ea0:	e52de004 	push	{lr}		; (str lr, [sp, #-4]!)
    9ea4:	e3a0e007 	mov	lr, #7, 0
    9ea8:	e24dd00c 	sub	sp, sp, #12, 0
    9eac:	e001c00e 	and	ip, r1, lr
    9eb0:	e3a03002 	mov	r3, #2, 0
    9eb4:	e3a01068 	mov	r1, #104, 0	; 0x68
    9eb8:	e28d2004 	add	r2, sp, #4, 0
    9ebc:	e5cdc005 	strb	ip, [sp, #5]
    9ec0:	e5cde004 	strb	lr, [sp, #4]
    9ec4:	ebfffda3 	bl	9558 <i2c_write_n_bytes>
    9ec8:	e28dd00c 	add	sp, sp, #12, 0
    9ecc:	e49df004 	pop	{pc}		; (ldr pc, [sp], #4)

00009ed0 <rtc_set_months>:
    9ed0:	e3a02008 	mov	r2, #8, 0
    9ed4:	e52de004 	push	{lr}		; (str lr, [sp, #-4]!)
    9ed8:	e59f3038 	ldr	r3, [pc, #56]	; 9f18 <rtc_set_months+0x48>
    9edc:	e24dd00c 	sub	sp, sp, #12, 0
    9ee0:	e5cd2004 	strb	r2, [sp, #4]
    9ee4:	e0832193 	umull	r2, r3, r3, r1
    9ee8:	e1a031a3 	lsr	r3, r3, #3
    9eec:	e083c103 	add	ip, r3, r3, lsl #2
    9ef0:	e041108c 	sub	r1, r1, ip, lsl #1
    9ef4:	e2033001 	and	r3, r3, #1, 0
    9ef8:	e181c203 	orr	ip, r1, r3, lsl #4
    9efc:	e28d2004 	add	r2, sp, #4, 0
    9f00:	e3a03002 	mov	r3, #2, 0
    9f04:	e3a01068 	mov	r1, #104, 0	; 0x68
    9f08:	e5cdc005 	strb	ip, [sp, #5]
    9f0c:	ebfffd91 	bl	9558 <i2c_write_n_bytes>
    9f10:	e28dd00c 	add	sp, sp, #12, 0
    9f14:	e49df004 	pop	{pc}		; (ldr pc, [sp], #4)
    9f18:	cccccccd 	.word	0xcccccccd

00009f1c <rtc_set_years>:
    9f1c:	e3a02009 	mov	r2, #9, 0
    9f20:	e52de004 	push	{lr}		; (str lr, [sp, #-4]!)
    9f24:	e59f3038 	ldr	r3, [pc, #56]	; 9f64 <rtc_set_years+0x48>
    9f28:	e24dd00c 	sub	sp, sp, #12, 0
    9f2c:	e5cd2004 	strb	r2, [sp, #4]
    9f30:	e0832193 	umull	r2, r3, r3, r1
    9f34:	e1a031a3 	lsr	r3, r3, #3
    9f38:	e083c103 	add	ip, r3, r3, lsl #2
    9f3c:	e041108c 	sub	r1, r1, ip, lsl #1
    9f40:	e203300f 	and	r3, r3, #15, 0
    9f44:	e181c203 	orr	ip, r1, r3, lsl #4
    9f48:	e28d2004 	add	r2, sp, #4, 0
    9f4c:	e3a03002 	mov	r3, #2, 0
    9f50:	e3a01068 	mov	r1, #104, 0	; 0x68
    9f54:	e5cdc005 	strb	ip, [sp, #5]
    9f58:	ebfffd7e 	bl	9558 <i2c_write_n_bytes>
    9f5c:	e28dd00c 	add	sp, sp, #12, 0
    9f60:	e49df004 	pop	{pc}		; (ldr pc, [sp], #4)
    9f64:	cccccccd 	.word	0xcccccccd

00009f68 <rtc_get_seconds>:
    9f68:	e3a02001 	mov	r2, #1, 0
    9f6c:	e52de004 	push	{lr}		; (str lr, [sp, #-4]!)
    9f70:	e24dd014 	sub	sp, sp, #20, 0
    9f74:	e28d300f 	add	r3, sp, #15, 0
    9f78:	e58d2000 	str	r2, [sp]
    9f7c:	e3a01068 	mov	r1, #104, 0	; 0x68
    9f80:	e3a02003 	mov	r2, #3, 0
    9f84:	ebfffe03 	bl	9798 <i2c_write_read_reg_n>
    9f88:	e5dd300f 	ldrb	r3, [sp, #15]
    9f8c:	e1a00243 	asr	r0, r3, #4
    9f90:	e2000007 	and	r0, r0, #7, 0
    9f94:	e203300f 	and	r3, r3, #15, 0
    9f98:	e0800100 	add	r0, r0, r0, lsl #2
    9f9c:	e0830080 	add	r0, r3, r0, lsl #1
    9fa0:	e28dd014 	add	sp, sp, #20, 0
    9fa4:	e49df004 	pop	{pc}		; (ldr pc, [sp], #4)

00009fa8 <rtc_get_minutes>:
    9fa8:	e3a02001 	mov	r2, #1, 0
    9fac:	e52de004 	push	{lr}		; (str lr, [sp, #-4]!)
    9fb0:	e24dd014 	sub	sp, sp, #20, 0
    9fb4:	e28d300f 	add	r3, sp, #15, 0
    9fb8:	e58d2000 	str	r2, [sp]
    9fbc:	e3a01068 	mov	r1, #104, 0	; 0x68
    9fc0:	e3a02004 	mov	r2, #4, 0
    9fc4:	ebfffdf3 	bl	9798 <i2c_write_read_reg_n>
    9fc8:	e5dd300f 	ldrb	r3, [sp, #15]
    9fcc:	e1a00243 	asr	r0, r3, #4
    9fd0:	e2000007 	and	r0, r0, #7, 0
    9fd4:	e203300f 	and	r3, r3, #15, 0
    9fd8:	e0800100 	add	r0, r0, r0, lsl #2
    9fdc:	e0830080 	add	r0, r3, r0, lsl #1
    9fe0:	e28dd014 	add	sp, sp, #20, 0
    9fe4:	e49df004 	pop	{pc}		; (ldr pc, [sp], #4)

00009fe8 <rtc_get_hours>:
    9fe8:	e3a02001 	mov	r2, #1, 0
    9fec:	e52de004 	push	{lr}		; (str lr, [sp, #-4]!)
    9ff0:	e24dd014 	sub	sp, sp, #20, 0
    9ff4:	e28d300f 	add	r3, sp, #15, 0
    9ff8:	e58d2000 	str	r2, [sp]
    9ffc:	e3a01068 	mov	r1, #104, 0	; 0x68
    a000:	e3a02005 	mov	r2, #5, 0
    a004:	ebfffde3 	bl	9798 <i2c_write_read_reg_n>
    a008:	e5dd300f 	ldrb	r3, [sp, #15]
    a00c:	e1a00243 	asr	r0, r3, #4
    a010:	e2000003 	and	r0, r0, #3, 0
    a014:	e203300f 	and	r3, r3, #15, 0
    a018:	e0800100 	add	r0, r0, r0, lsl #2
    a01c:	e0830080 	add	r0, r3, r0, lsl #1
    a020:	e28dd014 	add	sp, sp, #20, 0
    a024:	e49df004 	pop	{pc}		; (ldr pc, [sp], #4)

0000a028 <rtc_get_days>:
    a028:	e3a02001 	mov	r2, #1, 0
    a02c:	e52de004 	push	{lr}		; (str lr, [sp, #-4]!)
    a030:	e24dd014 	sub	sp, sp, #20, 0
    a034:	e28d300f 	add	r3, sp, #15, 0
    a038:	e58d2000 	str	r2, [sp]
    a03c:	e3a01068 	mov	r1, #104, 0	; 0x68
    a040:	e3a02006 	mov	r2, #6, 0
    a044:	ebfffdd3 	bl	9798 <i2c_write_read_reg_n>
    a048:	e5dd300f 	ldrb	r3, [sp, #15]
    a04c:	e1a00243 	asr	r0, r3, #4
    a050:	e2000003 	and	r0, r0, #3, 0
    a054:	e203300f 	and	r3, r3, #15, 0
    a058:	e0800100 	add	r0, r0, r0, lsl #2
    a05c:	e0830080 	add	r0, r3, r0, lsl #1
    a060:	e28dd014 	add	sp, sp, #20, 0
    a064:	e49df004 	pop	{pc}		; (ldr pc, [sp], #4)

0000a068 <rtc_get_weekdays>:
    a068:	e3a02001 	mov	r2, #1, 0
    a06c:	e52de004 	push	{lr}		; (str lr, [sp, #-4]!)
    a070:	e24dd014 	sub	sp, sp, #20, 0
    a074:	e58d2000 	str	r2, [sp]
    a078:	e3a01068 	mov	r1, #104, 0	; 0x68
    a07c:	e3a02007 	mov	r2, #7, 0
    a080:	e28d300f 	add	r3, sp, #15, 0
    a084:	ebfffdc3 	bl	9798 <i2c_write_read_reg_n>
    a088:	e5dd000f 	ldrb	r0, [sp, #15]
    a08c:	e2000007 	and	r0, r0, #7, 0
    a090:	e28dd014 	add	sp, sp, #20, 0
    a094:	e49df004 	pop	{pc}		; (ldr pc, [sp], #4)

0000a098 <rtc_get_months>:
    a098:	e3a02001 	mov	r2, #1, 0
    a09c:	e52de004 	push	{lr}		; (str lr, [sp, #-4]!)
    a0a0:	e24dd014 	sub	sp, sp, #20, 0
    a0a4:	e28d300f 	add	r3, sp, #15, 0
    a0a8:	e58d2000 	str	r2, [sp]
    a0ac:	e3a01068 	mov	r1, #104, 0	; 0x68
    a0b0:	e3a02008 	mov	r2, #8, 0
    a0b4:	ebfffdb7 	bl	9798 <i2c_write_read_reg_n>
    a0b8:	e5dd000f 	ldrb	r0, [sp, #15]
    a0bc:	e1a03240 	asr	r3, r0, #4
    a0c0:	e2033001 	and	r3, r3, #1, 0
    a0c4:	e1a02103 	lsl	r2, r3, #2
    a0c8:	e0833002 	add	r3, r3, r2
    a0cc:	e200000f 	and	r0, r0, #15, 0
    a0d0:	e0800083 	add	r0, r0, r3, lsl #1
    a0d4:	e28dd014 	add	sp, sp, #20, 0
    a0d8:	e49df004 	pop	{pc}		; (ldr pc, [sp], #4)

0000a0dc <rtc_get_years>:
    a0dc:	e3a02001 	mov	r2, #1, 0
    a0e0:	e52de004 	push	{lr}		; (str lr, [sp, #-4]!)
    a0e4:	e24dd014 	sub	sp, sp, #20, 0
    a0e8:	e28d300f 	add	r3, sp, #15, 0
    a0ec:	e58d2000 	str	r2, [sp]
    a0f0:	e3a01068 	mov	r1, #104, 0	; 0x68
    a0f4:	e3a02009 	mov	r2, #9, 0
    a0f8:	ebfffda6 	bl	9798 <i2c_write_read_reg_n>
    a0fc:	e5dd300f 	ldrb	r3, [sp, #15]
    a100:	e1a00243 	asr	r0, r3, #4
    a104:	e0800100 	add	r0, r0, r0, lsl #2
    a108:	e203300f 	and	r3, r3, #15, 0
    a10c:	e0830080 	add	r0, r3, r0, lsl #1
    a110:	e6ef0070 	uxtb	r0, r0
    a114:	e28dd014 	add	sp, sp, #20, 0
    a118:	e49df004 	pop	{pc}		; (ldr pc, [sp], #4)

0000a11c <xnotmain>:
    a11c:	e92d4ff0 	push	{r4, r5, r6, r7, r8, r9, sl, fp, lr}
    a120:	e3a02005 	mov	r2, #5, 0
    a124:	e24dd014 	sub	sp, sp, #20, 0
    a128:	e3a01003 	mov	r1, #3, 0
    a12c:	e3a00002 	mov	r0, #2, 0
    a130:	ebfffc63 	bl	92c4 <i2c_init>
    a134:	e1a04000 	mov	r4, r0
    a138:	ebfffe11 	bl	9984 <i2c_scan>
    a13c:	e59f01f0 	ldr	r0, [pc, #496]	; a334 <xnotmain+0x218>
    a140:	eb0024fa 	bl	13530 <printk>
    a144:	e3a03001 	mov	r3, #1, 0
    a148:	e1a00004 	mov	r0, r4
    a14c:	e58d3000 	str	r3, [sp]
    a150:	e3a02002 	mov	r2, #2, 0
    a154:	e3a01068 	mov	r1, #104, 0	; 0x68
    a158:	e28d300e 	add	r3, sp, #14, 0
    a15c:	ebfffd8d 	bl	9798 <i2c_write_read_reg_n>
    a160:	e3500000 	cmp	r0, #0, 0
    a164:	da00006e 	ble	a324 <xnotmain+0x208>
    a168:	e5dd100e 	ldrb	r1, [sp, #14]
    a16c:	e59f01c4 	ldr	r0, [pc, #452]	; a338 <xnotmain+0x21c>
    a170:	eb0024ee 	bl	13530 <printk>
    a174:	e3a06005 	mov	r6, #5, 0
    a178:	e59fb1bc 	ldr	fp, [pc, #444]	; a33c <xnotmain+0x220>
    a17c:	e59fa1bc 	ldr	sl, [pc, #444]	; a340 <xnotmain+0x224>
    a180:	e59f91bc 	ldr	r9, [pc, #444]	; a344 <xnotmain+0x228>
    a184:	e59f81bc 	ldr	r8, [pc, #444]	; a348 <xnotmain+0x22c>
    a188:	e59f71bc 	ldr	r7, [pc, #444]	; a34c <xnotmain+0x230>
    a18c:	e3a05001 	mov	r5, #1, 0
    a190:	e3a02003 	mov	r2, #3, 0
    a194:	e3a01068 	mov	r1, #104, 0	; 0x68
    a198:	e28d300f 	add	r3, sp, #15, 0
    a19c:	e1a00004 	mov	r0, r4
    a1a0:	e58d5000 	str	r5, [sp]
    a1a4:	ebfffd7b 	bl	9798 <i2c_write_read_reg_n>
    a1a8:	e5dd300f 	ldrb	r3, [sp, #15]
    a1ac:	e1a0000b 	mov	r0, fp
    a1b0:	e1a01243 	asr	r1, r3, #4
    a1b4:	e2011007 	and	r1, r1, #7, 0
    a1b8:	e203300f 	and	r3, r3, #15, 0
    a1bc:	e0811101 	add	r1, r1, r1, lsl #2
    a1c0:	e0831511 	add	r1, r3, r1, lsl r5
    a1c4:	eb0024d9 	bl	13530 <printk>
    a1c8:	e3a02004 	mov	r2, #4, 0
    a1cc:	e3a01068 	mov	r1, #104, 0	; 0x68
    a1d0:	e28d300f 	add	r3, sp, #15, 0
    a1d4:	e1a00004 	mov	r0, r4
    a1d8:	e58d5000 	str	r5, [sp]
    a1dc:	ebfffd6d 	bl	9798 <i2c_write_read_reg_n>
    a1e0:	e5dd300f 	ldrb	r3, [sp, #15]
    a1e4:	e1a0000a 	mov	r0, sl
    a1e8:	e1a01243 	asr	r1, r3, #4
    a1ec:	e2011007 	and	r1, r1, #7, 0
    a1f0:	e203300f 	and	r3, r3, #15, 0
    a1f4:	e0811101 	add	r1, r1, r1, lsl #2
    a1f8:	e0831511 	add	r1, r3, r1, lsl r5
    a1fc:	eb0024cb 	bl	13530 <printk>
    a200:	e3a02005 	mov	r2, #5, 0
    a204:	e3a01068 	mov	r1, #104, 0	; 0x68
    a208:	e28d300f 	add	r3, sp, #15, 0
    a20c:	e1a00004 	mov	r0, r4
    a210:	e58d5000 	str	r5, [sp]
    a214:	ebfffd5f 	bl	9798 <i2c_write_read_reg_n>
    a218:	e5dd300f 	ldrb	r3, [sp, #15]
    a21c:	e1a00009 	mov	r0, r9
    a220:	e1a01243 	asr	r1, r3, #4
    a224:	e2011003 	and	r1, r1, #3, 0
    a228:	e203300f 	and	r3, r3, #15, 0
    a22c:	e0811101 	add	r1, r1, r1, lsl #2
    a230:	e0831511 	add	r1, r3, r1, lsl r5
    a234:	eb0024bd 	bl	13530 <printk>
    a238:	e3a02006 	mov	r2, #6, 0
    a23c:	e3a01068 	mov	r1, #104, 0	; 0x68
    a240:	e28d300f 	add	r3, sp, #15, 0
    a244:	e1a00004 	mov	r0, r4
    a248:	e58d5000 	str	r5, [sp]
    a24c:	ebfffd51 	bl	9798 <i2c_write_read_reg_n>
    a250:	e5dd300f 	ldrb	r3, [sp, #15]
    a254:	e1a00008 	mov	r0, r8
    a258:	e1a01243 	asr	r1, r3, #4
    a25c:	e2011003 	and	r1, r1, #3, 0
    a260:	e203300f 	and	r3, r3, #15, 0
    a264:	e0811101 	add	r1, r1, r1, lsl #2
    a268:	e0831511 	add	r1, r3, r1, lsl r5
    a26c:	eb0024af 	bl	13530 <printk>
    a270:	e3a02007 	mov	r2, #7, 0
    a274:	e28d300f 	add	r3, sp, #15, 0
    a278:	e3a01068 	mov	r1, #104, 0	; 0x68
    a27c:	e1a00004 	mov	r0, r4
    a280:	e58d5000 	str	r5, [sp]
    a284:	ebfffd43 	bl	9798 <i2c_write_read_reg_n>
    a288:	e5dd100f 	ldrb	r1, [sp, #15]
    a28c:	e1a00007 	mov	r0, r7
    a290:	e2011007 	and	r1, r1, #7, 0
    a294:	eb0024a5 	bl	13530 <printk>
    a298:	e3a02008 	mov	r2, #8, 0
    a29c:	e3a01068 	mov	r1, #104, 0	; 0x68
    a2a0:	e28d300f 	add	r3, sp, #15, 0
    a2a4:	e1a00004 	mov	r0, r4
    a2a8:	e58d5000 	str	r5, [sp]
    a2ac:	ebfffd39 	bl	9798 <i2c_write_read_reg_n>
    a2b0:	e5dd100f 	ldrb	r1, [sp, #15]
    a2b4:	e59f0094 	ldr	r0, [pc, #148]	; a350 <xnotmain+0x234>
    a2b8:	e1a03241 	asr	r3, r1, #4
    a2bc:	e0033005 	and	r3, r3, r5
    a2c0:	e1a02103 	lsl	r2, r3, #2
    a2c4:	e0833002 	add	r3, r3, r2
    a2c8:	e201100f 	and	r1, r1, #15, 0
    a2cc:	e0811513 	add	r1, r1, r3, lsl r5
    a2d0:	eb002496 	bl	13530 <printk>
    a2d4:	e3a02009 	mov	r2, #9, 0
    a2d8:	e3a01068 	mov	r1, #104, 0	; 0x68
    a2dc:	e28d300f 	add	r3, sp, #15, 0
    a2e0:	e1a00004 	mov	r0, r4
    a2e4:	e58d5000 	str	r5, [sp]
    a2e8:	ebfffd2a 	bl	9798 <i2c_write_read_reg_n>
    a2ec:	e5dd300f 	ldrb	r3, [sp, #15]
    a2f0:	e59f005c 	ldr	r0, [pc, #92]	; a354 <xnotmain+0x238>
    a2f4:	e1a01243 	asr	r1, r3, #4
    a2f8:	e0811101 	add	r1, r1, r1, lsl #2
    a2fc:	e203300f 	and	r3, r3, #15, 0
    a300:	e0831511 	add	r1, r3, r1, lsl r5
    a304:	e6ef1071 	uxtb	r1, r1
    a308:	eb002488 	bl	13530 <printk>
    a30c:	e3a00ffa 	mov	r0, #1000	; 0x3e8
    a310:	eb002628 	bl	13bb8 <delay_ms>
    a314:	e2566001 	subs	r6, r6, #1, 0
    a318:	1affff9b 	bne	a18c <xnotmain+0x70>
    a31c:	e28dd014 	add	sp, sp, #20, 0
    a320:	e8bd8ff0 	pop	{r4, r5, r6, r7, r8, r9, sl, fp, pc}
    a324:	e59f002c 	ldr	r0, [pc, #44]	; a358 <xnotmain+0x23c>
    a328:	eb002480 	bl	13530 <printk>
    a32c:	e28dd014 	add	sp, sp, #20, 0
    a330:	e8bd8ff0 	pop	{r4, r5, r6, r7, r8, r9, sl, fp, pc}
    a334:	0001418c 	.word	0x0001418c
    a338:	000141d8 	.word	0x000141d8
    a33c:	00014218 	.word	0x00014218
    a340:	00014224 	.word	0x00014224
    a344:	00014230 	.word	0x00014230
    a348:	0001423c 	.word	0x0001423c
    a34c:	00014248 	.word	0x00014248
    a350:	00014258 	.word	0x00014258
    a354:	00014264 	.word	0x00014264
    a358:	000141fc 	.word	0x000141fc

0000a35c <kalshi_send>:
    a35c:	e92d4010 	push	{r4, lr}
    a360:	e1a04000 	mov	r4, r0
    a364:	e5d00000 	ldrb	r0, [r0]
    a368:	e3500000 	cmp	r0, #0, 0
    a36c:	0a000003 	beq	a380 <kalshi_send+0x24>
    a370:	eb002291 	bl	12dbc <uart_put8>
    a374:	e5f40001 	ldrb	r0, [r4, #1]!
    a378:	e3500000 	cmp	r0, #0, 0
    a37c:	1afffffb 	bne	a370 <kalshi_send+0x14>
    a380:	e8bd4010 	pop	{r4, lr}
    a384:	e3a0000a 	mov	r0, #10, 0
    a388:	ea00228b 	b	12dbc <uart_put8>

0000a38c <kalshi_recv_str>:
    a38c:	e92d41f0 	push	{r4, r5, r6, r7, r8, lr}
    a390:	e2517000 	subs	r7, r1, #0, 0
    a394:	e1a06000 	mov	r6, r0
    a398:	01a05007 	moveq	r5, r7
    a39c:	0a000011 	beq	a3e8 <kalshi_recv_str+0x5c>
    a3a0:	e3a05000 	mov	r5, #0, 0
    a3a4:	e59f406c 	ldr	r4, [pc, #108]	; a418 <kalshi_recv_str+0x8c>
    a3a8:	ea000003 	b	a3bc <kalshi_recv_str+0x30>
    a3ac:	e3a0000a 	mov	r0, #10, 0
    a3b0:	eb0025f7 	bl	13b94 <delay_us>
    a3b4:	e2544001 	subs	r4, r4, #1, 0
    a3b8:	0a000013 	beq	a40c <kalshi_recv_str+0x80>
    a3bc:	eb002264 	bl	12d54 <uart_has_data>
    a3c0:	e3500000 	cmp	r0, #0, 0
    a3c4:	0afffff8 	beq	a3ac <kalshi_recv_str+0x20>
    a3c8:	eb002267 	bl	12d6c <uart_get8>
    a3cc:	e6ef3070 	uxtb	r3, r0
    a3d0:	e353000d 	cmp	r3, #13, 0
    a3d4:	1353000a 	cmpne	r3, #10, 0
    a3d8:	1a000006 	bne	a3f8 <kalshi_recv_str+0x6c>
    a3dc:	e3550000 	cmp	r5, #0, 0
    a3e0:	0a000006 	beq	a400 <kalshi_recv_str+0x74>
    a3e4:	e0866005 	add	r6, r6, r5
    a3e8:	e3a03000 	mov	r3, #0, 0
    a3ec:	e1a00005 	mov	r0, r5
    a3f0:	e5c63000 	strb	r3, [r6]
    a3f4:	e8bd81f0 	pop	{r4, r5, r6, r7, r8, pc}
    a3f8:	e7c63005 	strb	r3, [r6, r5]
    a3fc:	e2855001 	add	r5, r5, #1, 0
    a400:	e1570005 	cmp	r7, r5
    a404:	8affffe6 	bhi	a3a4 <kalshi_recv_str+0x18>
    a408:	eafffff5 	b	a3e4 <kalshi_recv_str+0x58>
    a40c:	e1a00005 	mov	r0, r5
    a410:	e7c64005 	strb	r4, [r6, r5]
    a414:	e8bd81f0 	pop	{r4, r5, r6, r7, r8, pc}
    a418:	0007a121 	.word	0x0007a121

0000a41c <kalshi_recv_int>:
    a41c:	e92d4030 	push	{r4, r5, lr}
    a420:	e3a05000 	mov	r5, #0, 0
    a424:	e24dd014 	sub	sp, sp, #20, 0
    a428:	e59f40f0 	ldr	r4, [pc, #240]	; a520 <kalshi_recv_int+0x104>
    a42c:	ea000003 	b	a440 <kalshi_recv_int+0x24>
    a430:	e3a0000a 	mov	r0, #10, 0
    a434:	eb0025d6 	bl	13b94 <delay_us>
    a438:	e2544001 	subs	r4, r4, #1, 0
    a43c:	0a000033 	beq	a510 <kalshi_recv_int+0xf4>
    a440:	eb002243 	bl	12d54 <uart_has_data>
    a444:	e3500000 	cmp	r0, #0, 0
    a448:	0afffff8 	beq	a430 <kalshi_recv_int+0x14>
    a44c:	eb002246 	bl	12d6c <uart_get8>
    a450:	e6ef0070 	uxtb	r0, r0
    a454:	e350000d 	cmp	r0, #13, 0
    a458:	1350000a 	cmpne	r0, #10, 0
    a45c:	1a00001a 	bne	a4cc <kalshi_recv_int+0xb0>
    a460:	e3550000 	cmp	r5, #0, 0
    a464:	0affffef 	beq	a428 <kalshi_recv_int+0xc>
    a468:	e3a03000 	mov	r3, #0, 0
    a46c:	e28d2010 	add	r2, sp, #16, 0
    a470:	e0825005 	add	r5, r2, r5
    a474:	e5453010 	strb	r3, [r5, #-16]
    a478:	e5dd2000 	ldrb	r2, [sp]
    a47c:	e352002d 	cmp	r2, #45, 0	; 0x2d
    a480:	0a000018 	beq	a4e8 <kalshi_recv_int+0xcc>
    a484:	e2423030 	sub	r3, r2, #48, 0	; 0x30
    a488:	e6ef2073 	uxtb	r2, r3
    a48c:	e3520009 	cmp	r2, #9, 0
    a490:	93a0c000 	movls	ip, #0, 0
    a494:	91a0100d 	movls	r1, sp
    a498:	8a000019 	bhi	a504 <kalshi_recv_int+0xe8>
    a49c:	e3a00000 	mov	r0, #0, 0
    a4a0:	e5f12001 	ldrb	r2, [r1, #1]!
    a4a4:	e0800100 	add	r0, r0, r0, lsl #2
    a4a8:	e0830080 	add	r0, r3, r0, lsl #1
    a4ac:	e2423030 	sub	r3, r2, #48, 0	; 0x30
    a4b0:	e6ef2073 	uxtb	r2, r3
    a4b4:	e3520009 	cmp	r2, #9, 0
    a4b8:	9afffff8 	bls	a4a0 <kalshi_recv_int+0x84>
    a4bc:	e35c0000 	cmp	ip, #0, 0
    a4c0:	12600000 	rsbne	r0, r0, #0, 0
    a4c4:	e28dd014 	add	sp, sp, #20, 0
    a4c8:	e8bd8030 	pop	{r4, r5, pc}
    a4cc:	e28d3010 	add	r3, sp, #16, 0
    a4d0:	e0833005 	add	r3, r3, r5
    a4d4:	e355000e 	cmp	r5, #14, 0
    a4d8:	e5430010 	strb	r0, [r3, #-16]
    a4dc:	e2855001 	add	r5, r5, #1, 0
    a4e0:	1affffd0 	bne	a428 <kalshi_recv_int+0xc>
    a4e4:	eaffffdf 	b	a468 <kalshi_recv_int+0x4c>
    a4e8:	e5dd2001 	ldrb	r2, [sp, #1]
    a4ec:	e2423030 	sub	r3, r2, #48, 0	; 0x30
    a4f0:	e6ef2073 	uxtb	r2, r3
    a4f4:	e3520009 	cmp	r2, #9, 0
    a4f8:	93a0c001 	movls	ip, #1, 0
    a4fc:	928d1001 	addls	r1, sp, #1, 0
    a500:	9affffe5 	bls	a49c <kalshi_recv_int+0x80>
    a504:	e3a00000 	mov	r0, #0, 0
    a508:	e28dd014 	add	sp, sp, #20, 0
    a50c:	e8bd8030 	pop	{r4, r5, pc}
    a510:	e28d3010 	add	r3, sp, #16, 0
    a514:	e0835005 	add	r5, r3, r5
    a518:	e5454010 	strb	r4, [r5, #-16]
    a51c:	eaffffd5 	b	a478 <kalshi_recv_int+0x5c>
    a520:	0007a121 	.word	0x0007a121

0000a524 <kalshi_load_top10>:
    a524:	e92d4070 	push	{r4, r5, r6, lr}
    a528:	e3a04054 	mov	r4, #84, 0	; 0x54
    a52c:	e59f5118 	ldr	r5, [pc, #280]	; a64c <kalshi_load_top10+0x128>
    a530:	e24dd010 	sub	sp, sp, #16, 0
    a534:	e1a00004 	mov	r0, r4
    a538:	eb00221f 	bl	12dbc <uart_put8>
    a53c:	e5f54001 	ldrb	r4, [r5, #1]!
    a540:	e3540000 	cmp	r4, #0, 0
    a544:	1afffffa 	bne	a534 <kalshi_load_top10+0x10>
    a548:	e3a0000a 	mov	r0, #10, 0
    a54c:	eb00221a 	bl	12dbc <uart_put8>
    a550:	e1a06004 	mov	r6, r4
    a554:	e59f50f4 	ldr	r5, [pc, #244]	; a650 <kalshi_load_top10+0x12c>
    a558:	ea000003 	b	a56c <kalshi_load_top10+0x48>
    a55c:	e3a0000a 	mov	r0, #10, 0
    a560:	eb00258b 	bl	13b94 <delay_us>
    a564:	e2555001 	subs	r5, r5, #1, 0
    a568:	0a000033 	beq	a63c <kalshi_load_top10+0x118>
    a56c:	eb0021f8 	bl	12d54 <uart_has_data>
    a570:	e3500000 	cmp	r0, #0, 0
    a574:	0afffff8 	beq	a55c <kalshi_load_top10+0x38>
    a578:	eb0021fb 	bl	12d6c <uart_get8>
    a57c:	e6ef0070 	uxtb	r0, r0
    a580:	e350000d 	cmp	r0, #13, 0
    a584:	1350000a 	cmpne	r0, #10, 0
    a588:	1a00001a 	bne	a5f8 <kalshi_load_top10+0xd4>
    a58c:	e3540000 	cmp	r4, #0, 0
    a590:	0affffef 	beq	a554 <kalshi_load_top10+0x30>
    a594:	e3a03000 	mov	r3, #0, 0
    a598:	e28d2010 	add	r2, sp, #16, 0
    a59c:	e0824004 	add	r4, r2, r4
    a5a0:	e5443010 	strb	r3, [r4, #-16]
    a5a4:	e5dd3000 	ldrb	r3, [sp]
    a5a8:	e353002d 	cmp	r3, #45, 0	; 0x2d
    a5ac:	0a000018 	beq	a614 <kalshi_load_top10+0xf0>
    a5b0:	e2432030 	sub	r2, r3, #48, 0	; 0x30
    a5b4:	e6ef3072 	uxtb	r3, r2
    a5b8:	e3530009 	cmp	r3, #9, 0
    a5bc:	91a0100d 	movls	r1, sp
    a5c0:	93a0c000 	movls	ip, #0, 0
    a5c4:	8a000019 	bhi	a630 <kalshi_load_top10+0x10c>
    a5c8:	e3a00000 	mov	r0, #0, 0
    a5cc:	e5f13001 	ldrb	r3, [r1, #1]!
    a5d0:	e0800100 	add	r0, r0, r0, lsl #2
    a5d4:	e0820080 	add	r0, r2, r0, lsl #1
    a5d8:	e2432030 	sub	r2, r3, #48, 0	; 0x30
    a5dc:	e6ef3072 	uxtb	r3, r2
    a5e0:	e3530009 	cmp	r3, #9, 0
    a5e4:	9afffff8 	bls	a5cc <kalshi_load_top10+0xa8>
    a5e8:	e35c0000 	cmp	ip, #0, 0
    a5ec:	12600000 	rsbne	r0, r0, #0, 0
    a5f0:	e28dd010 	add	sp, sp, #16, 0
    a5f4:	e8bd8070 	pop	{r4, r5, r6, pc}
    a5f8:	e2844001 	add	r4, r4, #1, 0
    a5fc:	e28d3010 	add	r3, sp, #16, 0
    a600:	e0836006 	add	r6, r3, r6
    a604:	e354000f 	cmp	r4, #15, 0
    a608:	e5460010 	strb	r0, [r6, #-16]
    a60c:	1affffcf 	bne	a550 <kalshi_load_top10+0x2c>
    a610:	eaffffdf 	b	a594 <kalshi_load_top10+0x70>
    a614:	e5dd3001 	ldrb	r3, [sp, #1]
    a618:	e2432030 	sub	r2, r3, #48, 0	; 0x30
    a61c:	e6ef3072 	uxtb	r3, r2
    a620:	e3530009 	cmp	r3, #9, 0
    a624:	93a0c001 	movls	ip, #1, 0
    a628:	908d100c 	addls	r1, sp, ip
    a62c:	9affffe5 	bls	a5c8 <kalshi_load_top10+0xa4>
    a630:	e3a00000 	mov	r0, #0, 0
    a634:	e28dd010 	add	sp, sp, #16, 0
    a638:	e8bd8070 	pop	{r4, r5, r6, pc}
    a63c:	e28d3010 	add	r3, sp, #16, 0
    a640:	e0834004 	add	r4, r3, r4
    a644:	e5445010 	strb	r5, [r4, #-16]
    a648:	eaffffd5 	b	a5a4 <kalshi_load_top10+0x80>
    a64c:	00014270 	.word	0x00014270
    a650:	0007a121 	.word	0x0007a121

0000a654 <kalshi_load_holdings>:
    a654:	e92d4070 	push	{r4, r5, r6, lr}
    a658:	e3a04048 	mov	r4, #72, 0	; 0x48
    a65c:	e59f5118 	ldr	r5, [pc, #280]	; a77c <kalshi_load_holdings+0x128>
    a660:	e24dd010 	sub	sp, sp, #16, 0
    a664:	e1a00004 	mov	r0, r4
    a668:	eb0021d3 	bl	12dbc <uart_put8>
    a66c:	e5f54001 	ldrb	r4, [r5, #1]!
    a670:	e3540000 	cmp	r4, #0, 0
    a674:	1afffffa 	bne	a664 <kalshi_load_holdings+0x10>
    a678:	e3a0000a 	mov	r0, #10, 0
    a67c:	eb0021ce 	bl	12dbc <uart_put8>
    a680:	e1a06004 	mov	r6, r4
    a684:	e59f50f4 	ldr	r5, [pc, #244]	; a780 <kalshi_load_holdings+0x12c>
    a688:	ea000003 	b	a69c <kalshi_load_holdings+0x48>
    a68c:	e3a0000a 	mov	r0, #10, 0
    a690:	eb00253f 	bl	13b94 <delay_us>
    a694:	e2555001 	subs	r5, r5, #1, 0
    a698:	0a000033 	beq	a76c <kalshi_load_holdings+0x118>
    a69c:	eb0021ac 	bl	12d54 <uart_has_data>
    a6a0:	e3500000 	cmp	r0, #0, 0
    a6a4:	0afffff8 	beq	a68c <kalshi_load_holdings+0x38>
    a6a8:	eb0021af 	bl	12d6c <uart_get8>
    a6ac:	e6ef0070 	uxtb	r0, r0
    a6b0:	e350000d 	cmp	r0, #13, 0
    a6b4:	1350000a 	cmpne	r0, #10, 0
    a6b8:	1a00001a 	bne	a728 <kalshi_load_holdings+0xd4>
    a6bc:	e3540000 	cmp	r4, #0, 0
    a6c0:	0affffef 	beq	a684 <kalshi_load_holdings+0x30>
    a6c4:	e3a03000 	mov	r3, #0, 0
    a6c8:	e28d2010 	add	r2, sp, #16, 0
    a6cc:	e0824004 	add	r4, r2, r4
    a6d0:	e5443010 	strb	r3, [r4, #-16]
    a6d4:	e5dd3000 	ldrb	r3, [sp]
    a6d8:	e353002d 	cmp	r3, #45, 0	; 0x2d
    a6dc:	0a000018 	beq	a744 <kalshi_load_holdings+0xf0>
    a6e0:	e2432030 	sub	r2, r3, #48, 0	; 0x30
    a6e4:	e6ef3072 	uxtb	r3, r2
    a6e8:	e3530009 	cmp	r3, #9, 0
    a6ec:	91a0100d 	movls	r1, sp
    a6f0:	93a0c000 	movls	ip, #0, 0
    a6f4:	8a000019 	bhi	a760 <kalshi_load_holdings+0x10c>
    a6f8:	e3a00000 	mov	r0, #0, 0
    a6fc:	e5f13001 	ldrb	r3, [r1, #1]!
    a700:	e0800100 	add	r0, r0, r0, lsl #2
    a704:	e0820080 	add	r0, r2, r0, lsl #1
    a708:	e2432030 	sub	r2, r3, #48, 0	; 0x30
    a70c:	e6ef3072 	uxtb	r3, r2
    a710:	e3530009 	cmp	r3, #9, 0
    a714:	9afffff8 	bls	a6fc <kalshi_load_holdings+0xa8>
    a718:	e35c0000 	cmp	ip, #0, 0
    a71c:	12600000 	rsbne	r0, r0, #0, 0
    a720:	e28dd010 	add	sp, sp, #16, 0
    a724:	e8bd8070 	pop	{r4, r5, r6, pc}
    a728:	e2844001 	add	r4, r4, #1, 0
    a72c:	e28d3010 	add	r3, sp, #16, 0
    a730:	e0836006 	add	r6, r3, r6
    a734:	e354000f 	cmp	r4, #15, 0
    a738:	e5460010 	strb	r0, [r6, #-16]
    a73c:	1affffcf 	bne	a680 <kalshi_load_holdings+0x2c>
    a740:	eaffffdf 	b	a6c4 <kalshi_load_holdings+0x70>
    a744:	e5dd3001 	ldrb	r3, [sp, #1]
    a748:	e2432030 	sub	r2, r3, #48, 0	; 0x30
    a74c:	e6ef3072 	uxtb	r3, r2
    a750:	e3530009 	cmp	r3, #9, 0
    a754:	93a0c001 	movls	ip, #1, 0
    a758:	908d100c 	addls	r1, sp, ip
    a75c:	9affffe5 	bls	a6f8 <kalshi_load_holdings+0xa4>
    a760:	e3a00000 	mov	r0, #0, 0
    a764:	e28dd010 	add	sp, sp, #16, 0
    a768:	e8bd8070 	pop	{r4, r5, r6, pc}
    a76c:	e28d3010 	add	r3, sp, #16, 0
    a770:	e0834004 	add	r4, r3, r4
    a774:	e5445010 	strb	r5, [r4, #-16]
    a778:	eaffffd5 	b	a6d4 <kalshi_load_holdings+0x80>
    a77c:	00014278 	.word	0x00014278
    a780:	0007a121 	.word	0x0007a121

0000a784 <kalshi_get_balance>:
    a784:	e92d4070 	push	{r4, r5, r6, lr}
    a788:	e3a04042 	mov	r4, #66, 0	; 0x42
    a78c:	e59f5118 	ldr	r5, [pc, #280]	; a8ac <kalshi_get_balance+0x128>
    a790:	e24dd010 	sub	sp, sp, #16, 0
    a794:	e1a00004 	mov	r0, r4
    a798:	eb002187 	bl	12dbc <uart_put8>
    a79c:	e5f54001 	ldrb	r4, [r5, #1]!
    a7a0:	e3540000 	cmp	r4, #0, 0
    a7a4:	1afffffa 	bne	a794 <kalshi_get_balance+0x10>
    a7a8:	e3a0000a 	mov	r0, #10, 0
    a7ac:	eb002182 	bl	12dbc <uart_put8>
    a7b0:	e1a06004 	mov	r6, r4
    a7b4:	e59f50f4 	ldr	r5, [pc, #244]	; a8b0 <kalshi_get_balance+0x12c>
    a7b8:	ea000003 	b	a7cc <kalshi_get_balance+0x48>
    a7bc:	e3a0000a 	mov	r0, #10, 0
    a7c0:	eb0024f3 	bl	13b94 <delay_us>
    a7c4:	e2555001 	subs	r5, r5, #1, 0
    a7c8:	0a000033 	beq	a89c <kalshi_get_balance+0x118>
    a7cc:	eb002160 	bl	12d54 <uart_has_data>
    a7d0:	e3500000 	cmp	r0, #0, 0
    a7d4:	0afffff8 	beq	a7bc <kalshi_get_balance+0x38>
    a7d8:	eb002163 	bl	12d6c <uart_get8>
    a7dc:	e6ef0070 	uxtb	r0, r0
    a7e0:	e350000d 	cmp	r0, #13, 0
    a7e4:	1350000a 	cmpne	r0, #10, 0
    a7e8:	1a00001a 	bne	a858 <kalshi_get_balance+0xd4>
    a7ec:	e3540000 	cmp	r4, #0, 0
    a7f0:	0affffef 	beq	a7b4 <kalshi_get_balance+0x30>
    a7f4:	e3a03000 	mov	r3, #0, 0
    a7f8:	e28d2010 	add	r2, sp, #16, 0
    a7fc:	e0824004 	add	r4, r2, r4
    a800:	e5443010 	strb	r3, [r4, #-16]
    a804:	e5dd3000 	ldrb	r3, [sp]
    a808:	e353002d 	cmp	r3, #45, 0	; 0x2d
    a80c:	0a000018 	beq	a874 <kalshi_get_balance+0xf0>
    a810:	e2432030 	sub	r2, r3, #48, 0	; 0x30
    a814:	e6ef3072 	uxtb	r3, r2
    a818:	e3530009 	cmp	r3, #9, 0
    a81c:	91a0100d 	movls	r1, sp
    a820:	93a0c000 	movls	ip, #0, 0
    a824:	8a000019 	bhi	a890 <kalshi_get_balance+0x10c>
    a828:	e3a00000 	mov	r0, #0, 0
    a82c:	e5f13001 	ldrb	r3, [r1, #1]!
    a830:	e0800100 	add	r0, r0, r0, lsl #2
    a834:	e0820080 	add	r0, r2, r0, lsl #1
    a838:	e2432030 	sub	r2, r3, #48, 0	; 0x30
    a83c:	e6ef3072 	uxtb	r3, r2
    a840:	e3530009 	cmp	r3, #9, 0
    a844:	9afffff8 	bls	a82c <kalshi_get_balance+0xa8>
    a848:	e35c0000 	cmp	ip, #0, 0
    a84c:	12600000 	rsbne	r0, r0, #0, 0
    a850:	e28dd010 	add	sp, sp, #16, 0
    a854:	e8bd8070 	pop	{r4, r5, r6, pc}
    a858:	e2844001 	add	r4, r4, #1, 0
    a85c:	e28d3010 	add	r3, sp, #16, 0
    a860:	e0836006 	add	r6, r3, r6
    a864:	e354000f 	cmp	r4, #15, 0
    a868:	e5460010 	strb	r0, [r6, #-16]
    a86c:	1affffcf 	bne	a7b0 <kalshi_get_balance+0x2c>
    a870:	eaffffdf 	b	a7f4 <kalshi_get_balance+0x70>
    a874:	e5dd3001 	ldrb	r3, [sp, #1]
    a878:	e2432030 	sub	r2, r3, #48, 0	; 0x30
    a87c:	e6ef3072 	uxtb	r3, r2
    a880:	e3530009 	cmp	r3, #9, 0
    a884:	93a0c001 	movls	ip, #1, 0
    a888:	908d100c 	addls	r1, sp, ip
    a88c:	9affffe5 	bls	a828 <kalshi_get_balance+0xa4>
    a890:	e3a00000 	mov	r0, #0, 0
    a894:	e28dd010 	add	sp, sp, #16, 0
    a898:	e8bd8070 	pop	{r4, r5, r6, pc}
    a89c:	e28d3010 	add	r3, sp, #16, 0
    a8a0:	e0834004 	add	r4, r3, r4
    a8a4:	e5445010 	strb	r5, [r4, #-16]
    a8a8:	eaffffd5 	b	a804 <kalshi_get_balance+0x80>
    a8ac:	00014284 	.word	0x00014284
    a8b0:	0007a121 	.word	0x0007a121

0000a8b4 <kalshi_get_profit>:
    a8b4:	e92d4070 	push	{r4, r5, r6, lr}
    a8b8:	e3a04050 	mov	r4, #80, 0	; 0x50
    a8bc:	e59f5118 	ldr	r5, [pc, #280]	; a9dc <kalshi_get_profit+0x128>
    a8c0:	e24dd010 	sub	sp, sp, #16, 0
    a8c4:	e1a00004 	mov	r0, r4
    a8c8:	eb00213b 	bl	12dbc <uart_put8>
    a8cc:	e5f54001 	ldrb	r4, [r5, #1]!
    a8d0:	e3540000 	cmp	r4, #0, 0
    a8d4:	1afffffa 	bne	a8c4 <kalshi_get_profit+0x10>
    a8d8:	e3a0000a 	mov	r0, #10, 0
    a8dc:	eb002136 	bl	12dbc <uart_put8>
    a8e0:	e1a06004 	mov	r6, r4
    a8e4:	e59f50f4 	ldr	r5, [pc, #244]	; a9e0 <kalshi_get_profit+0x12c>
    a8e8:	ea000003 	b	a8fc <kalshi_get_profit+0x48>
    a8ec:	e3a0000a 	mov	r0, #10, 0
    a8f0:	eb0024a7 	bl	13b94 <delay_us>
    a8f4:	e2555001 	subs	r5, r5, #1, 0
    a8f8:	0a000033 	beq	a9cc <kalshi_get_profit+0x118>
    a8fc:	eb002114 	bl	12d54 <uart_has_data>
    a900:	e3500000 	cmp	r0, #0, 0
    a904:	0afffff8 	beq	a8ec <kalshi_get_profit+0x38>
    a908:	eb002117 	bl	12d6c <uart_get8>
    a90c:	e6ef0070 	uxtb	r0, r0
    a910:	e350000d 	cmp	r0, #13, 0
    a914:	1350000a 	cmpne	r0, #10, 0
    a918:	1a00001a 	bne	a988 <kalshi_get_profit+0xd4>
    a91c:	e3540000 	cmp	r4, #0, 0
    a920:	0affffef 	beq	a8e4 <kalshi_get_profit+0x30>
    a924:	e3a03000 	mov	r3, #0, 0
    a928:	e28d2010 	add	r2, sp, #16, 0
    a92c:	e0824004 	add	r4, r2, r4
    a930:	e5443010 	strb	r3, [r4, #-16]
    a934:	e5dd3000 	ldrb	r3, [sp]
    a938:	e353002d 	cmp	r3, #45, 0	; 0x2d
    a93c:	0a000018 	beq	a9a4 <kalshi_get_profit+0xf0>
    a940:	e2432030 	sub	r2, r3, #48, 0	; 0x30
    a944:	e6ef3072 	uxtb	r3, r2
    a948:	e3530009 	cmp	r3, #9, 0
    a94c:	91a0100d 	movls	r1, sp
    a950:	93a0c000 	movls	ip, #0, 0
    a954:	8a000019 	bhi	a9c0 <kalshi_get_profit+0x10c>
    a958:	e3a00000 	mov	r0, #0, 0
    a95c:	e5f13001 	ldrb	r3, [r1, #1]!
    a960:	e0800100 	add	r0, r0, r0, lsl #2
    a964:	e0820080 	add	r0, r2, r0, lsl #1
    a968:	e2432030 	sub	r2, r3, #48, 0	; 0x30
    a96c:	e6ef3072 	uxtb	r3, r2
    a970:	e3530009 	cmp	r3, #9, 0
    a974:	9afffff8 	bls	a95c <kalshi_get_profit+0xa8>
    a978:	e35c0000 	cmp	ip, #0, 0
    a97c:	12600000 	rsbne	r0, r0, #0, 0
    a980:	e28dd010 	add	sp, sp, #16, 0
    a984:	e8bd8070 	pop	{r4, r5, r6, pc}
    a988:	e2844001 	add	r4, r4, #1, 0
    a98c:	e28d3010 	add	r3, sp, #16, 0
    a990:	e0836006 	add	r6, r3, r6
    a994:	e354000f 	cmp	r4, #15, 0
    a998:	e5460010 	strb	r0, [r6, #-16]
    a99c:	1affffcf 	bne	a8e0 <kalshi_get_profit+0x2c>
    a9a0:	eaffffdf 	b	a924 <kalshi_get_profit+0x70>
    a9a4:	e5dd3001 	ldrb	r3, [sp, #1]
    a9a8:	e2432030 	sub	r2, r3, #48, 0	; 0x30
    a9ac:	e6ef3072 	uxtb	r3, r2
    a9b0:	e3530009 	cmp	r3, #9, 0
    a9b4:	93a0c001 	movls	ip, #1, 0
    a9b8:	908d100c 	addls	r1, sp, ip
    a9bc:	9affffe5 	bls	a958 <kalshi_get_profit+0xa4>
    a9c0:	e3a00000 	mov	r0, #0, 0
    a9c4:	e28dd010 	add	sp, sp, #16, 0
    a9c8:	e8bd8070 	pop	{r4, r5, r6, pc}
    a9cc:	e28d3010 	add	r3, sp, #16, 0
    a9d0:	e0834004 	add	r4, r3, r4
    a9d4:	e5445010 	strb	r5, [r4, #-16]
    a9d8:	eaffffd5 	b	a934 <kalshi_get_profit+0x80>
    a9dc:	0001428c 	.word	0x0001428c
    a9e0:	0007a121 	.word	0x0007a121

0000a9e4 <kalshi_get_ticker>:
    a9e4:	e92d41f0 	push	{r4, r5, r6, r7, r8, lr}
    a9e8:	e59f313c 	ldr	r3, [pc, #316]	; ab2c <kalshi_get_ticker+0x148>
    a9ec:	e24dd010 	sub	sp, sp, #16, 0
    a9f0:	e2811030 	add	r1, r1, #48, 0	; 0x30
    a9f4:	e3500009 	cmp	r0, #9, 0
    a9f8:	e1a04002 	mov	r4, r2
    a9fc:	e6ef1071 	uxtb	r1, r1
    aa00:	e1cd30b4 	strh	r3, [sp, #4]
    aa04:	9a000040 	bls	ab0c <kalshi_get_ticker+0x128>
    aa08:	e59f3120 	ldr	r3, [pc, #288]	; ab30 <kalshi_get_ticker+0x14c>
    aa0c:	e3a02006 	mov	r2, #6, 0
    aa10:	e083c093 	umull	ip, r3, r3, r0
    aa14:	e3a06005 	mov	r6, #5, 0
    aa18:	e3a07004 	mov	r7, #4, 0
    aa1c:	e3a0c003 	mov	ip, #3, 0
    aa20:	e1a031a3 	lsr	r3, r3, #3
    aa24:	e2833030 	add	r3, r3, #48, 0	; 0x30
    aa28:	e5cd3006 	strb	r3, [sp, #6]
    aa2c:	e3a0503a 	mov	r5, #58, 0	; 0x3a
    aa30:	e3a0e000 	mov	lr, #0, 0
    aa34:	e59f30f4 	ldr	r3, [pc, #244]	; ab30 <kalshi_get_ticker+0x14c>
    aa38:	e28d8010 	add	r8, sp, #16, 0
    aa3c:	e088c00c 	add	ip, r8, ip
    aa40:	e0838093 	umull	r8, r3, r3, r0
    aa44:	e1a031a3 	lsr	r3, r3, #3
    aa48:	e0833103 	add	r3, r3, r3, lsl #2
    aa4c:	e0403083 	sub	r3, r0, r3, lsl #1
    aa50:	e28d0010 	add	r0, sp, #16, 0
    aa54:	e0807007 	add	r7, r0, r7
    aa58:	e0800006 	add	r0, r0, r6
    aa5c:	e28d6010 	add	r6, sp, #16, 0
    aa60:	e0862002 	add	r2, r6, r2
    aa64:	e2833030 	add	r3, r3, #48, 0	; 0x30
    aa68:	e54c300c 	strb	r3, [ip, #-12]
    aa6c:	e547500c 	strb	r5, [r7, #-12]
    aa70:	e540100c 	strb	r1, [r0, #-12]
    aa74:	e542e00c 	strb	lr, [r2, #-12]
    aa78:	e5dd0004 	ldrb	r0, [sp, #4]
    aa7c:	e150000e 	cmp	r0, lr
    aa80:	128d5004 	addne	r5, sp, #4, 0
    aa84:	0a000003 	beq	aa98 <kalshi_get_ticker+0xb4>
    aa88:	eb0020cb 	bl	12dbc <uart_put8>
    aa8c:	e5f50001 	ldrb	r0, [r5, #1]!
    aa90:	e3500000 	cmp	r0, #0, 0
    aa94:	1afffffb 	bne	aa88 <kalshi_get_ticker+0xa4>
    aa98:	e3a0000a 	mov	r0, #10, 0
    aa9c:	eb0020c6 	bl	12dbc <uart_put8>
    aaa0:	e3a05000 	mov	r5, #0, 0
    aaa4:	e1a07005 	mov	r7, r5
    aaa8:	e59f6084 	ldr	r6, [pc, #132]	; ab34 <kalshi_get_ticker+0x150>
    aaac:	ea000003 	b	aac0 <kalshi_get_ticker+0xdc>
    aab0:	e3a0000a 	mov	r0, #10, 0
    aab4:	eb002436 	bl	13b94 <delay_us>
    aab8:	e2566001 	subs	r6, r6, #1, 0
    aabc:	0a000017 	beq	ab20 <kalshi_get_ticker+0x13c>
    aac0:	eb0020a3 	bl	12d54 <uart_has_data>
    aac4:	e3500000 	cmp	r0, #0, 0
    aac8:	0afffff8 	beq	aab0 <kalshi_get_ticker+0xcc>
    aacc:	eb0020a6 	bl	12d6c <uart_get8>
    aad0:	e6ef0070 	uxtb	r0, r0
    aad4:	e350000d 	cmp	r0, #13, 0
    aad8:	1350000a 	cmpne	r0, #10, 0
    aadc:	1a000005 	bne	aaf8 <kalshi_get_ticker+0x114>
    aae0:	e3550000 	cmp	r5, #0, 0
    aae4:	0affffef 	beq	aaa8 <kalshi_get_ticker+0xc4>
    aae8:	e3a03000 	mov	r3, #0, 0
    aaec:	e7c43005 	strb	r3, [r4, r5]
    aaf0:	e28dd010 	add	sp, sp, #16, 0
    aaf4:	e8bd81f0 	pop	{r4, r5, r6, r7, r8, pc}
    aaf8:	e2855001 	add	r5, r5, #1, 0
    aafc:	e3550008 	cmp	r5, #8, 0
    ab00:	e7c40007 	strb	r0, [r4, r7]
    ab04:	1affffe6 	bne	aaa4 <kalshi_get_ticker+0xc0>
    ab08:	eafffff6 	b	aae8 <kalshi_get_ticker+0x104>
    ab0c:	e3a02005 	mov	r2, #5, 0
    ab10:	e3a06004 	mov	r6, #4, 0
    ab14:	e3a07003 	mov	r7, #3, 0
    ab18:	e3a0c002 	mov	ip, #2, 0
    ab1c:	eaffffc2 	b	aa2c <kalshi_get_ticker+0x48>
    ab20:	e7c46005 	strb	r6, [r4, r5]
    ab24:	e28dd010 	add	sp, sp, #16, 0
    ab28:	e8bd81f0 	pop	{r4, r5, r6, r7, r8, pc}
    ab2c:	00003a54 	.word	0x00003a54
    ab30:	cccccccd 	.word	0xcccccccd
    ab34:	0007a121 	.word	0x0007a121

0000ab38 <kalshi_get_name>:
    ab38:	e92d41f0 	push	{r4, r5, r6, r7, r8, lr}
    ab3c:	e59f313c 	ldr	r3, [pc, #316]	; ac80 <kalshi_get_name+0x148>
    ab40:	e24dd010 	sub	sp, sp, #16, 0
    ab44:	e2811030 	add	r1, r1, #48, 0	; 0x30
    ab48:	e3500009 	cmp	r0, #9, 0
    ab4c:	e1a04002 	mov	r4, r2
    ab50:	e6ef1071 	uxtb	r1, r1
    ab54:	e1cd30b4 	strh	r3, [sp, #4]
    ab58:	9a000040 	bls	ac60 <kalshi_get_name+0x128>
    ab5c:	e59f3120 	ldr	r3, [pc, #288]	; ac84 <kalshi_get_name+0x14c>
    ab60:	e3a02006 	mov	r2, #6, 0
    ab64:	e083c093 	umull	ip, r3, r3, r0
    ab68:	e3a06005 	mov	r6, #5, 0
    ab6c:	e3a07004 	mov	r7, #4, 0
    ab70:	e3a0c003 	mov	ip, #3, 0
    ab74:	e1a031a3 	lsr	r3, r3, #3
    ab78:	e2833030 	add	r3, r3, #48, 0	; 0x30
    ab7c:	e5cd3006 	strb	r3, [sp, #6]
    ab80:	e3a0503a 	mov	r5, #58, 0	; 0x3a
    ab84:	e3a0e000 	mov	lr, #0, 0
    ab88:	e59f30f4 	ldr	r3, [pc, #244]	; ac84 <kalshi_get_name+0x14c>
    ab8c:	e28d8010 	add	r8, sp, #16, 0
    ab90:	e088c00c 	add	ip, r8, ip
    ab94:	e0838093 	umull	r8, r3, r3, r0
    ab98:	e1a031a3 	lsr	r3, r3, #3
    ab9c:	e0833103 	add	r3, r3, r3, lsl #2
    aba0:	e0403083 	sub	r3, r0, r3, lsl #1
    aba4:	e28d0010 	add	r0, sp, #16, 0
    aba8:	e0807007 	add	r7, r0, r7
    abac:	e0800006 	add	r0, r0, r6
    abb0:	e28d6010 	add	r6, sp, #16, 0
    abb4:	e0862002 	add	r2, r6, r2
    abb8:	e2833030 	add	r3, r3, #48, 0	; 0x30
    abbc:	e54c300c 	strb	r3, [ip, #-12]
    abc0:	e547500c 	strb	r5, [r7, #-12]
    abc4:	e540100c 	strb	r1, [r0, #-12]
    abc8:	e542e00c 	strb	lr, [r2, #-12]
    abcc:	e5dd0004 	ldrb	r0, [sp, #4]
    abd0:	e150000e 	cmp	r0, lr
    abd4:	128d5004 	addne	r5, sp, #4, 0
    abd8:	0a000003 	beq	abec <kalshi_get_name+0xb4>
    abdc:	eb002076 	bl	12dbc <uart_put8>
    abe0:	e5f50001 	ldrb	r0, [r5, #1]!
    abe4:	e3500000 	cmp	r0, #0, 0
    abe8:	1afffffb 	bne	abdc <kalshi_get_name+0xa4>
    abec:	e3a0000a 	mov	r0, #10, 0
    abf0:	eb002071 	bl	12dbc <uart_put8>
    abf4:	e3a05000 	mov	r5, #0, 0
    abf8:	e1a07005 	mov	r7, r5
    abfc:	e59f6084 	ldr	r6, [pc, #132]	; ac88 <kalshi_get_name+0x150>
    ac00:	ea000003 	b	ac14 <kalshi_get_name+0xdc>
    ac04:	e3a0000a 	mov	r0, #10, 0
    ac08:	eb0023e1 	bl	13b94 <delay_us>
    ac0c:	e2566001 	subs	r6, r6, #1, 0
    ac10:	0a000017 	beq	ac74 <kalshi_get_name+0x13c>
    ac14:	eb00204e 	bl	12d54 <uart_has_data>
    ac18:	e3500000 	cmp	r0, #0, 0
    ac1c:	0afffff8 	beq	ac04 <kalshi_get_name+0xcc>
    ac20:	eb002051 	bl	12d6c <uart_get8>
    ac24:	e6ef0070 	uxtb	r0, r0
    ac28:	e350000d 	cmp	r0, #13, 0
    ac2c:	1350000a 	cmpne	r0, #10, 0
    ac30:	1a000005 	bne	ac4c <kalshi_get_name+0x114>
    ac34:	e3550000 	cmp	r5, #0, 0
    ac38:	0affffef 	beq	abfc <kalshi_get_name+0xc4>
    ac3c:	e3a03000 	mov	r3, #0, 0
    ac40:	e7c43005 	strb	r3, [r4, r5]
    ac44:	e28dd010 	add	sp, sp, #16, 0
    ac48:	e8bd81f0 	pop	{r4, r5, r6, r7, r8, pc}
    ac4c:	e2855001 	add	r5, r5, #1, 0
    ac50:	e3550008 	cmp	r5, #8, 0
    ac54:	e7c40007 	strb	r0, [r4, r7]
    ac58:	1affffe6 	bne	abf8 <kalshi_get_name+0xc0>
    ac5c:	eafffff6 	b	ac3c <kalshi_get_name+0x104>
    ac60:	e3a02005 	mov	r2, #5, 0
    ac64:	e3a06004 	mov	r6, #4, 0
    ac68:	e3a07003 	mov	r7, #3, 0
    ac6c:	e3a0c002 	mov	ip, #2, 0
    ac70:	eaffffc2 	b	ab80 <kalshi_get_name+0x48>
    ac74:	e7c46005 	strb	r6, [r4, r5]
    ac78:	e28dd010 	add	sp, sp, #16, 0
    ac7c:	e8bd81f0 	pop	{r4, r5, r6, r7, r8, pc}
    ac80:	00003a4e 	.word	0x00003a4e
    ac84:	cccccccd 	.word	0xcccccccd
    ac88:	0007a121 	.word	0x0007a121

0000ac8c <kalshi_get_name_length>:
    ac8c:	e92d4070 	push	{r4, r5, r6, lr}
    ac90:	e59f3180 	ldr	r3, [pc, #384]	; ae18 <kalshi_get_name_length+0x18c>
    ac94:	e3500009 	cmp	r0, #9, 0
    ac98:	e24dd018 	sub	sp, sp, #24, 0
    ac9c:	e1cd30b0 	strh	r3, [sp]
    aca0:	859f3174 	ldrhi	r3, [pc, #372]	; ae1c <kalshi_get_name_length+0x190>
    aca4:	93a01002 	movls	r1, #2, 0
    aca8:	80831093 	umullhi	r1, r3, r3, r0
    acac:	83a01003 	movhi	r1, #3, 0
    acb0:	83a02004 	movhi	r2, #4, 0
    acb4:	93a02003 	movls	r2, #3, 0
    acb8:	e3a0c000 	mov	ip, #0, 0
    acbc:	e3a0404c 	mov	r4, #76, 0	; 0x4c
    acc0:	e1a0500d 	mov	r5, sp
    acc4:	81a031a3 	lsrhi	r3, r3, #3
    acc8:	82833030 	addhi	r3, r3, #48, 0	; 0x30
    accc:	85cd3002 	strbhi	r3, [sp, #2]
    acd0:	e59f3144 	ldr	r3, [pc, #324]	; ae1c <kalshi_get_name_length+0x190>
    acd4:	e28de018 	add	lr, sp, #24, 0
    acd8:	e08e1001 	add	r1, lr, r1
    acdc:	e083e093 	umull	lr, r3, r3, r0
    ace0:	e1a031a3 	lsr	r3, r3, #3
    ace4:	e0833103 	add	r3, r3, r3, lsl #2
    ace8:	e0403083 	sub	r3, r0, r3, lsl #1
    acec:	e28d0018 	add	r0, sp, #24, 0
    acf0:	e0802002 	add	r2, r0, r2
    acf4:	e2833030 	add	r3, r3, #48, 0	; 0x30
    acf8:	e5413018 	strb	r3, [r1, #-24]	; 0xffffffe8
    acfc:	e542c018 	strb	ip, [r2, #-24]	; 0xffffffe8
    ad00:	e1a00004 	mov	r0, r4
    ad04:	eb00202c 	bl	12dbc <uart_put8>
    ad08:	e5f54001 	ldrb	r4, [r5, #1]!
    ad0c:	e3540000 	cmp	r4, #0, 0
    ad10:	1afffffa 	bne	ad00 <kalshi_get_name_length+0x74>
    ad14:	e3a0000a 	mov	r0, #10, 0
    ad18:	eb002027 	bl	12dbc <uart_put8>
    ad1c:	e1a06004 	mov	r6, r4
    ad20:	e59f50f8 	ldr	r5, [pc, #248]	; ae20 <kalshi_get_name_length+0x194>
    ad24:	ea000003 	b	ad38 <kalshi_get_name_length+0xac>
    ad28:	e3a0000a 	mov	r0, #10, 0
    ad2c:	eb002398 	bl	13b94 <delay_us>
    ad30:	e2555001 	subs	r5, r5, #1, 0
    ad34:	0a000033 	beq	ae08 <kalshi_get_name_length+0x17c>
    ad38:	eb002005 	bl	12d54 <uart_has_data>
    ad3c:	e3500000 	cmp	r0, #0, 0
    ad40:	0afffff8 	beq	ad28 <kalshi_get_name_length+0x9c>
    ad44:	eb002008 	bl	12d6c <uart_get8>
    ad48:	e6ef0070 	uxtb	r0, r0
    ad4c:	e350000d 	cmp	r0, #13, 0
    ad50:	1350000a 	cmpne	r0, #10, 0
    ad54:	1a00001a 	bne	adc4 <kalshi_get_name_length+0x138>
    ad58:	e3540000 	cmp	r4, #0, 0
    ad5c:	0affffef 	beq	ad20 <kalshi_get_name_length+0x94>
    ad60:	e3a03000 	mov	r3, #0, 0
    ad64:	e28d2018 	add	r2, sp, #24, 0
    ad68:	e0824004 	add	r4, r2, r4
    ad6c:	e5443010 	strb	r3, [r4, #-16]
    ad70:	e5dd3008 	ldrb	r3, [sp, #8]
    ad74:	e353002d 	cmp	r3, #45, 0	; 0x2d
    ad78:	0a000018 	beq	ade0 <kalshi_get_name_length+0x154>
    ad7c:	e2432030 	sub	r2, r3, #48, 0	; 0x30
    ad80:	e6ef3072 	uxtb	r3, r2
    ad84:	e3530009 	cmp	r3, #9, 0
    ad88:	93a0c000 	movls	ip, #0, 0
    ad8c:	928d1008 	addls	r1, sp, #8, 0
    ad90:	8a000019 	bhi	adfc <kalshi_get_name_length+0x170>
    ad94:	e3a00000 	mov	r0, #0, 0
    ad98:	e5f13001 	ldrb	r3, [r1, #1]!
    ad9c:	e0800100 	add	r0, r0, r0, lsl #2
    ada0:	e0820080 	add	r0, r2, r0, lsl #1
    ada4:	e2432030 	sub	r2, r3, #48, 0	; 0x30
    ada8:	e6ef3072 	uxtb	r3, r2
    adac:	e3530009 	cmp	r3, #9, 0
    adb0:	9afffff8 	bls	ad98 <kalshi_get_name_length+0x10c>
    adb4:	e35c0000 	cmp	ip, #0, 0
    adb8:	12600000 	rsbne	r0, r0, #0, 0
    adbc:	e28dd018 	add	sp, sp, #24, 0
    adc0:	e8bd8070 	pop	{r4, r5, r6, pc}
    adc4:	e2844001 	add	r4, r4, #1, 0
    adc8:	e28d3018 	add	r3, sp, #24, 0
    adcc:	e0836006 	add	r6, r3, r6
    add0:	e354000f 	cmp	r4, #15, 0
    add4:	e5460010 	strb	r0, [r6, #-16]
    add8:	1affffcf 	bne	ad1c <kalshi_get_name_length+0x90>
    addc:	eaffffdf 	b	ad60 <kalshi_get_name_length+0xd4>
    ade0:	e5dd3009 	ldrb	r3, [sp, #9]
    ade4:	e2432030 	sub	r2, r3, #48, 0	; 0x30
    ade8:	e6ef3072 	uxtb	r3, r2
    adec:	e3530009 	cmp	r3, #9, 0
    adf0:	93a0c001 	movls	ip, #1, 0
    adf4:	928d1009 	addls	r1, sp, #9, 0
    adf8:	9affffe5 	bls	ad94 <kalshi_get_name_length+0x108>
    adfc:	e3a00000 	mov	r0, #0, 0
    ae00:	e28dd018 	add	sp, sp, #24, 0
    ae04:	e8bd8070 	pop	{r4, r5, r6, pc}
    ae08:	e28d3018 	add	r3, sp, #24, 0
    ae0c:	e0834004 	add	r4, r3, r4
    ae10:	e5445010 	strb	r5, [r4, #-16]
    ae14:	eaffffd5 	b	ad70 <kalshi_get_name_length+0xe4>
    ae18:	00003a4c 	.word	0x00003a4c
    ae1c:	cccccccd 	.word	0xcccccccd
    ae20:	0007a121 	.word	0x0007a121

0000ae24 <kalshi_get_yes>:
    ae24:	e92d40f0 	push	{r4, r5, r6, r7, lr}
    ae28:	e59f30c8 	ldr	r3, [pc, #200]	; aef8 <kalshi_get_yes+0xd4>
    ae2c:	e24dd014 	sub	sp, sp, #20, 0
    ae30:	e3500009 	cmp	r0, #9, 0
    ae34:	e1cd30b4 	strh	r3, [sp, #4]
    ae38:	9a000029 	bls	aee4 <kalshi_get_yes+0xc0>
    ae3c:	e59f30b8 	ldr	r3, [pc, #184]	; aefc <kalshi_get_yes+0xd8>
    ae40:	e3a02006 	mov	r2, #6, 0
    ae44:	e0831093 	umull	r1, r3, r3, r0
    ae48:	e3a06004 	mov	r6, #4, 0
    ae4c:	e3a01005 	mov	r1, #5, 0
    ae50:	e3a0c003 	mov	ip, #3, 0
    ae54:	e1a031a3 	lsr	r3, r3, #3
    ae58:	e2833030 	add	r3, r3, #48, 0	; 0x30
    ae5c:	e5cd3006 	strb	r3, [sp, #6]
    ae60:	e3a04079 	mov	r4, #121, 0	; 0x79
    ae64:	e3a0e000 	mov	lr, #0, 0
    ae68:	e3a0503a 	mov	r5, #58, 0	; 0x3a
    ae6c:	e59f3088 	ldr	r3, [pc, #136]	; aefc <kalshi_get_yes+0xd8>
    ae70:	e28d7010 	add	r7, sp, #16, 0
    ae74:	e087c00c 	add	ip, r7, ip
    ae78:	e0837093 	umull	r7, r3, r3, r0
    ae7c:	e1a031a3 	lsr	r3, r3, #3
    ae80:	e0833103 	add	r3, r3, r3, lsl #2
    ae84:	e0403083 	sub	r3, r0, r3, lsl #1
    ae88:	e28d0010 	add	r0, sp, #16, 0
    ae8c:	e0800006 	add	r0, r0, r6
    ae90:	e28d6010 	add	r6, sp, #16, 0
    ae94:	e0861001 	add	r1, r6, r1
    ae98:	e0862002 	add	r2, r6, r2
    ae9c:	e2833030 	add	r3, r3, #48, 0	; 0x30
    aea0:	e54c300c 	strb	r3, [ip, #-12]
    aea4:	e540500c 	strb	r5, [r0, #-12]
    aea8:	e541400c 	strb	r4, [r1, #-12]
    aeac:	e542e00c 	strb	lr, [r2, #-12]
    aeb0:	e5dd0004 	ldrb	r0, [sp, #4]
    aeb4:	e150000e 	cmp	r0, lr
    aeb8:	128d4004 	addne	r4, sp, #4, 0
    aebc:	0a000003 	beq	aed0 <kalshi_get_yes+0xac>
    aec0:	eb001fbd 	bl	12dbc <uart_put8>
    aec4:	e5f40001 	ldrb	r0, [r4, #1]!
    aec8:	e3500000 	cmp	r0, #0, 0
    aecc:	1afffffb 	bne	aec0 <kalshi_get_yes+0x9c>
    aed0:	e3a0000a 	mov	r0, #10, 0
    aed4:	eb001fb8 	bl	12dbc <uart_put8>
    aed8:	e28dd014 	add	sp, sp, #20, 0
    aedc:	e8bd40f0 	pop	{r4, r5, r6, r7, lr}
    aee0:	eafffd4d 	b	a41c <kalshi_recv_int>
    aee4:	e3a02005 	mov	r2, #5, 0
    aee8:	e3a01004 	mov	r1, #4, 0
    aeec:	e3a06003 	mov	r6, #3, 0
    aef0:	e3a0c002 	mov	ip, #2, 0
    aef4:	eaffffd9 	b	ae60 <kalshi_get_yes+0x3c>
    aef8:	00003a50 	.word	0x00003a50
    aefc:	cccccccd 	.word	0xcccccccd

0000af00 <kalshi_get_no>:
    af00:	e92d40f0 	push	{r4, r5, r6, r7, lr}
    af04:	e59f30c8 	ldr	r3, [pc, #200]	; afd4 <kalshi_get_no+0xd4>
    af08:	e24dd014 	sub	sp, sp, #20, 0
    af0c:	e3500009 	cmp	r0, #9, 0
    af10:	e1cd30b4 	strh	r3, [sp, #4]
    af14:	9a000029 	bls	afc0 <kalshi_get_no+0xc0>
    af18:	e59f30b8 	ldr	r3, [pc, #184]	; afd8 <kalshi_get_no+0xd8>
    af1c:	e3a02006 	mov	r2, #6, 0
    af20:	e0831093 	umull	r1, r3, r3, r0
    af24:	e3a06004 	mov	r6, #4, 0
    af28:	e3a01005 	mov	r1, #5, 0
    af2c:	e3a0c003 	mov	ip, #3, 0
    af30:	e1a031a3 	lsr	r3, r3, #3
    af34:	e2833030 	add	r3, r3, #48, 0	; 0x30
    af38:	e5cd3006 	strb	r3, [sp, #6]
    af3c:	e3a0406e 	mov	r4, #110, 0	; 0x6e
    af40:	e3a0e000 	mov	lr, #0, 0
    af44:	e3a0503a 	mov	r5, #58, 0	; 0x3a
    af48:	e59f3088 	ldr	r3, [pc, #136]	; afd8 <kalshi_get_no+0xd8>
    af4c:	e28d7010 	add	r7, sp, #16, 0
    af50:	e087c00c 	add	ip, r7, ip
    af54:	e0837093 	umull	r7, r3, r3, r0
    af58:	e1a031a3 	lsr	r3, r3, #3
    af5c:	e0833103 	add	r3, r3, r3, lsl #2
    af60:	e0403083 	sub	r3, r0, r3, lsl #1
    af64:	e28d0010 	add	r0, sp, #16, 0
    af68:	e0800006 	add	r0, r0, r6
    af6c:	e28d6010 	add	r6, sp, #16, 0
    af70:	e0861001 	add	r1, r6, r1
    af74:	e0862002 	add	r2, r6, r2
    af78:	e2833030 	add	r3, r3, #48, 0	; 0x30
    af7c:	e54c300c 	strb	r3, [ip, #-12]
    af80:	e540500c 	strb	r5, [r0, #-12]
    af84:	e541400c 	strb	r4, [r1, #-12]
    af88:	e542e00c 	strb	lr, [r2, #-12]
    af8c:	e5dd0004 	ldrb	r0, [sp, #4]
    af90:	e150000e 	cmp	r0, lr
    af94:	128d4004 	addne	r4, sp, #4, 0
    af98:	0a000003 	beq	afac <kalshi_get_no+0xac>
    af9c:	eb001f86 	bl	12dbc <uart_put8>
    afa0:	e5f40001 	ldrb	r0, [r4, #1]!
    afa4:	e3500000 	cmp	r0, #0, 0
    afa8:	1afffffb 	bne	af9c <kalshi_get_no+0x9c>
    afac:	e3a0000a 	mov	r0, #10, 0
    afb0:	eb001f81 	bl	12dbc <uart_put8>
    afb4:	e28dd014 	add	sp, sp, #20, 0
    afb8:	e8bd40f0 	pop	{r4, r5, r6, r7, lr}
    afbc:	eafffd16 	b	a41c <kalshi_recv_int>
    afc0:	e3a02005 	mov	r2, #5, 0
    afc4:	e3a01004 	mov	r1, #4, 0
    afc8:	e3a06003 	mov	r6, #3, 0
    afcc:	e3a0c002 	mov	ip, #2, 0
    afd0:	eaffffd9 	b	af3c <kalshi_get_no+0x3c>
    afd4:	00003a50 	.word	0x00003a50
    afd8:	cccccccd 	.word	0xcccccccd

0000afdc <kalshi_get_contracts>:
    afdc:	e92d4070 	push	{r4, r5, r6, lr}
    afe0:	e59f3180 	ldr	r3, [pc, #384]	; b168 <kalshi_get_contracts+0x18c>
    afe4:	e3500009 	cmp	r0, #9, 0
    afe8:	e24dd018 	sub	sp, sp, #24, 0
    afec:	e1cd30b0 	strh	r3, [sp]
    aff0:	859f3174 	ldrhi	r3, [pc, #372]	; b16c <kalshi_get_contracts+0x190>
    aff4:	93a01002 	movls	r1, #2, 0
    aff8:	80831093 	umullhi	r1, r3, r3, r0
    affc:	83a01003 	movhi	r1, #3, 0
    b000:	83a02004 	movhi	r2, #4, 0
    b004:	93a02003 	movls	r2, #3, 0
    b008:	e3a0c000 	mov	ip, #0, 0
    b00c:	e3a04043 	mov	r4, #67, 0	; 0x43
    b010:	e1a0500d 	mov	r5, sp
    b014:	81a031a3 	lsrhi	r3, r3, #3
    b018:	82833030 	addhi	r3, r3, #48, 0	; 0x30
    b01c:	85cd3002 	strbhi	r3, [sp, #2]
    b020:	e59f3144 	ldr	r3, [pc, #324]	; b16c <kalshi_get_contracts+0x190>
    b024:	e28de018 	add	lr, sp, #24, 0
    b028:	e08e1001 	add	r1, lr, r1
    b02c:	e083e093 	umull	lr, r3, r3, r0
    b030:	e1a031a3 	lsr	r3, r3, #3
    b034:	e0833103 	add	r3, r3, r3, lsl #2
    b038:	e0403083 	sub	r3, r0, r3, lsl #1
    b03c:	e28d0018 	add	r0, sp, #24, 0
    b040:	e0802002 	add	r2, r0, r2
    b044:	e2833030 	add	r3, r3, #48, 0	; 0x30
    b048:	e5413018 	strb	r3, [r1, #-24]	; 0xffffffe8
    b04c:	e542c018 	strb	ip, [r2, #-24]	; 0xffffffe8
    b050:	e1a00004 	mov	r0, r4
    b054:	eb001f58 	bl	12dbc <uart_put8>
    b058:	e5f54001 	ldrb	r4, [r5, #1]!
    b05c:	e3540000 	cmp	r4, #0, 0
    b060:	1afffffa 	bne	b050 <kalshi_get_contracts+0x74>
    b064:	e3a0000a 	mov	r0, #10, 0
    b068:	eb001f53 	bl	12dbc <uart_put8>
    b06c:	e1a06004 	mov	r6, r4
    b070:	e59f50f8 	ldr	r5, [pc, #248]	; b170 <kalshi_get_contracts+0x194>
    b074:	ea000003 	b	b088 <kalshi_get_contracts+0xac>
    b078:	e3a0000a 	mov	r0, #10, 0
    b07c:	eb0022c4 	bl	13b94 <delay_us>
    b080:	e2555001 	subs	r5, r5, #1, 0
    b084:	0a000033 	beq	b158 <kalshi_get_contracts+0x17c>
    b088:	eb001f31 	bl	12d54 <uart_has_data>
    b08c:	e3500000 	cmp	r0, #0, 0
    b090:	0afffff8 	beq	b078 <kalshi_get_contracts+0x9c>
    b094:	eb001f34 	bl	12d6c <uart_get8>
    b098:	e6ef0070 	uxtb	r0, r0
    b09c:	e350000d 	cmp	r0, #13, 0
    b0a0:	1350000a 	cmpne	r0, #10, 0
    b0a4:	1a00001a 	bne	b114 <kalshi_get_contracts+0x138>
    b0a8:	e3540000 	cmp	r4, #0, 0
    b0ac:	0affffef 	beq	b070 <kalshi_get_contracts+0x94>
    b0b0:	e3a03000 	mov	r3, #0, 0
    b0b4:	e28d2018 	add	r2, sp, #24, 0
    b0b8:	e0824004 	add	r4, r2, r4
    b0bc:	e5443010 	strb	r3, [r4, #-16]
    b0c0:	e5dd3008 	ldrb	r3, [sp, #8]
    b0c4:	e353002d 	cmp	r3, #45, 0	; 0x2d
    b0c8:	0a000018 	beq	b130 <kalshi_get_contracts+0x154>
    b0cc:	e2432030 	sub	r2, r3, #48, 0	; 0x30
    b0d0:	e6ef3072 	uxtb	r3, r2
    b0d4:	e3530009 	cmp	r3, #9, 0
    b0d8:	93a0c000 	movls	ip, #0, 0
    b0dc:	928d1008 	addls	r1, sp, #8, 0
    b0e0:	8a000019 	bhi	b14c <kalshi_get_contracts+0x170>
    b0e4:	e3a00000 	mov	r0, #0, 0
    b0e8:	e5f13001 	ldrb	r3, [r1, #1]!
    b0ec:	e0800100 	add	r0, r0, r0, lsl #2
    b0f0:	e0820080 	add	r0, r2, r0, lsl #1
    b0f4:	e2432030 	sub	r2, r3, #48, 0	; 0x30
    b0f8:	e6ef3072 	uxtb	r3, r2
    b0fc:	e3530009 	cmp	r3, #9, 0
    b100:	9afffff8 	bls	b0e8 <kalshi_get_contracts+0x10c>
    b104:	e35c0000 	cmp	ip, #0, 0
    b108:	12600000 	rsbne	r0, r0, #0, 0
    b10c:	e28dd018 	add	sp, sp, #24, 0
    b110:	e8bd8070 	pop	{r4, r5, r6, pc}
    b114:	e2844001 	add	r4, r4, #1, 0
    b118:	e28d3018 	add	r3, sp, #24, 0
    b11c:	e0836006 	add	r6, r3, r6
    b120:	e354000f 	cmp	r4, #15, 0
    b124:	e5460010 	strb	r0, [r6, #-16]
    b128:	1affffcf 	bne	b06c <kalshi_get_contracts+0x90>
    b12c:	eaffffdf 	b	b0b0 <kalshi_get_contracts+0xd4>
    b130:	e5dd3009 	ldrb	r3, [sp, #9]
    b134:	e2432030 	sub	r2, r3, #48, 0	; 0x30
    b138:	e6ef3072 	uxtb	r3, r2
    b13c:	e3530009 	cmp	r3, #9, 0
    b140:	93a0c001 	movls	ip, #1, 0
    b144:	928d1009 	addls	r1, sp, #9, 0
    b148:	9affffe5 	bls	b0e4 <kalshi_get_contracts+0x108>
    b14c:	e3a00000 	mov	r0, #0, 0
    b150:	e28dd018 	add	sp, sp, #24, 0
    b154:	e8bd8070 	pop	{r4, r5, r6, pc}
    b158:	e28d3018 	add	r3, sp, #24, 0
    b15c:	e0834004 	add	r4, r3, r4
    b160:	e5445010 	strb	r5, [r4, #-16]
    b164:	eaffffd5 	b	b0c0 <kalshi_get_contracts+0xe4>
    b168:	00003a43 	.word	0x00003a43
    b16c:	cccccccd 	.word	0xcccccccd
    b170:	0007a121 	.word	0x0007a121

0000b174 <kalshi_get_ask>:
    b174:	e92d40f0 	push	{r4, r5, r6, r7, lr}
    b178:	e5d12000 	ldrb	r2, [r1]
    b17c:	e59f30cc 	ldr	r3, [pc, #204]	; b250 <kalshi_get_ask+0xdc>
    b180:	e3520079 	cmp	r2, #121, 0	; 0x79
    b184:	13a0206e 	movne	r2, #110, 0	; 0x6e
    b188:	e24dd014 	sub	sp, sp, #20, 0
    b18c:	e3500009 	cmp	r0, #9, 0
    b190:	e1cd30b4 	strh	r3, [sp, #4]
    b194:	9a000028 	bls	b23c <kalshi_get_ask+0xc8>
    b198:	e59f30b4 	ldr	r3, [pc, #180]	; b254 <kalshi_get_ask+0xe0>
    b19c:	e3a01006 	mov	r1, #6, 0
    b1a0:	e083c093 	umull	ip, r3, r3, r0
    b1a4:	e3a05005 	mov	r5, #5, 0
    b1a8:	e3a06004 	mov	r6, #4, 0
    b1ac:	e3a0c003 	mov	ip, #3, 0
    b1b0:	e1a031a3 	lsr	r3, r3, #3
    b1b4:	e2833030 	add	r3, r3, #48, 0	; 0x30
    b1b8:	e5cd3006 	strb	r3, [sp, #6]
    b1bc:	e3a0403a 	mov	r4, #58, 0	; 0x3a
    b1c0:	e3a0e000 	mov	lr, #0, 0
    b1c4:	e59f3088 	ldr	r3, [pc, #136]	; b254 <kalshi_get_ask+0xe0>
    b1c8:	e28d7010 	add	r7, sp, #16, 0
    b1cc:	e087c00c 	add	ip, r7, ip
    b1d0:	e0837093 	umull	r7, r3, r3, r0
    b1d4:	e1a031a3 	lsr	r3, r3, #3
    b1d8:	e0833103 	add	r3, r3, r3, lsl #2
    b1dc:	e0403083 	sub	r3, r0, r3, lsl #1
    b1e0:	e28d0010 	add	r0, sp, #16, 0
    b1e4:	e0806006 	add	r6, r0, r6
    b1e8:	e0800005 	add	r0, r0, r5
    b1ec:	e28d5010 	add	r5, sp, #16, 0
    b1f0:	e0851001 	add	r1, r5, r1
    b1f4:	e2833030 	add	r3, r3, #48, 0	; 0x30
    b1f8:	e54c300c 	strb	r3, [ip, #-12]
    b1fc:	e546400c 	strb	r4, [r6, #-12]
    b200:	e540200c 	strb	r2, [r0, #-12]
    b204:	e541e00c 	strb	lr, [r1, #-12]
    b208:	e5dd0004 	ldrb	r0, [sp, #4]
    b20c:	e150000e 	cmp	r0, lr
    b210:	128d4004 	addne	r4, sp, #4, 0
    b214:	0a000003 	beq	b228 <kalshi_get_ask+0xb4>
    b218:	eb001ee7 	bl	12dbc <uart_put8>
    b21c:	e5f40001 	ldrb	r0, [r4, #1]!
    b220:	e3500000 	cmp	r0, #0, 0
    b224:	1afffffb 	bne	b218 <kalshi_get_ask+0xa4>
    b228:	e3a0000a 	mov	r0, #10, 0
    b22c:	eb001ee2 	bl	12dbc <uart_put8>
    b230:	e28dd014 	add	sp, sp, #20, 0
    b234:	e8bd40f0 	pop	{r4, r5, r6, r7, lr}
    b238:	eafffc77 	b	a41c <kalshi_recv_int>
    b23c:	e3a01005 	mov	r1, #5, 0
    b240:	e3a05004 	mov	r5, #4, 0
    b244:	e3a06003 	mov	r6, #3, 0
    b248:	e3a0c002 	mov	ip, #2, 0
    b24c:	eaffffda 	b	b1bc <kalshi_get_ask+0x48>
    b250:	00003a41 	.word	0x00003a41
    b254:	cccccccd 	.word	0xcccccccd

0000b258 <kalshi_get_bid>:
    b258:	e92d40f0 	push	{r4, r5, r6, r7, lr}
    b25c:	e5d12000 	ldrb	r2, [r1]
    b260:	e59f30cc 	ldr	r3, [pc, #204]	; b334 <kalshi_get_bid+0xdc>
    b264:	e3520079 	cmp	r2, #121, 0	; 0x79
    b268:	13a0206e 	movne	r2, #110, 0	; 0x6e
    b26c:	e24dd014 	sub	sp, sp, #20, 0
    b270:	e3500009 	cmp	r0, #9, 0
    b274:	e1cd30b4 	strh	r3, [sp, #4]
    b278:	9a000028 	bls	b320 <kalshi_get_bid+0xc8>
    b27c:	e59f30b4 	ldr	r3, [pc, #180]	; b338 <kalshi_get_bid+0xe0>
    b280:	e3a01006 	mov	r1, #6, 0
    b284:	e083c093 	umull	ip, r3, r3, r0
    b288:	e3a05005 	mov	r5, #5, 0
    b28c:	e3a06004 	mov	r6, #4, 0
    b290:	e3a0c003 	mov	ip, #3, 0
    b294:	e1a031a3 	lsr	r3, r3, #3
    b298:	e2833030 	add	r3, r3, #48, 0	; 0x30
    b29c:	e5cd3006 	strb	r3, [sp, #6]
    b2a0:	e3a0403a 	mov	r4, #58, 0	; 0x3a
    b2a4:	e3a0e000 	mov	lr, #0, 0
    b2a8:	e59f3088 	ldr	r3, [pc, #136]	; b338 <kalshi_get_bid+0xe0>
    b2ac:	e28d7010 	add	r7, sp, #16, 0
    b2b0:	e087c00c 	add	ip, r7, ip
    b2b4:	e0837093 	umull	r7, r3, r3, r0
    b2b8:	e1a031a3 	lsr	r3, r3, #3
    b2bc:	e0833103 	add	r3, r3, r3, lsl #2
    b2c0:	e0403083 	sub	r3, r0, r3, lsl #1
    b2c4:	e28d0010 	add	r0, sp, #16, 0
    b2c8:	e0806006 	add	r6, r0, r6
    b2cc:	e0800005 	add	r0, r0, r5
    b2d0:	e28d5010 	add	r5, sp, #16, 0
    b2d4:	e0851001 	add	r1, r5, r1
    b2d8:	e2833030 	add	r3, r3, #48, 0	; 0x30
    b2dc:	e54c300c 	strb	r3, [ip, #-12]
    b2e0:	e546400c 	strb	r4, [r6, #-12]
    b2e4:	e540200c 	strb	r2, [r0, #-12]
    b2e8:	e541e00c 	strb	lr, [r1, #-12]
    b2ec:	e5dd0004 	ldrb	r0, [sp, #4]
    b2f0:	e150000e 	cmp	r0, lr
    b2f4:	128d4004 	addne	r4, sp, #4, 0
    b2f8:	0a000003 	beq	b30c <kalshi_get_bid+0xb4>
    b2fc:	eb001eae 	bl	12dbc <uart_put8>
    b300:	e5f40001 	ldrb	r0, [r4, #1]!
    b304:	e3500000 	cmp	r0, #0, 0
    b308:	1afffffb 	bne	b2fc <kalshi_get_bid+0xa4>
    b30c:	e3a0000a 	mov	r0, #10, 0
    b310:	eb001ea9 	bl	12dbc <uart_put8>
    b314:	e28dd014 	add	sp, sp, #20, 0
    b318:	e8bd40f0 	pop	{r4, r5, r6, r7, lr}
    b31c:	eafffc3e 	b	a41c <kalshi_recv_int>
    b320:	e3a01005 	mov	r1, #5, 0
    b324:	e3a05004 	mov	r5, #4, 0
    b328:	e3a06003 	mov	r6, #3, 0
    b32c:	e3a0c002 	mov	ip, #2, 0
    b330:	eaffffda 	b	b2a0 <kalshi_get_bid+0x48>
    b334:	00003a44 	.word	0x00003a44
    b338:	cccccccd 	.word	0xcccccccd

0000b33c <kalshi_buy>:
    b33c:	e92d40f0 	push	{r4, r5, r6, r7, lr}
    b340:	e59f31d8 	ldr	r3, [pc, #472]	; b520 <kalshi_buy+0x1e4>
    b344:	e24dd034 	sub	sp, sp, #52, 0	; 0x34
    b348:	e3500009 	cmp	r0, #9, 0
    b34c:	e58d3000 	str	r3, [sp]
    b350:	9a000069 	bls	b4fc <kalshi_buy+0x1c0>
    b354:	e59f31c8 	ldr	r3, [pc, #456]	; b524 <kalshi_buy+0x1e8>
    b358:	e3a0e008 	mov	lr, #8, 0
    b35c:	e083c093 	umull	ip, r3, r3, r0
    b360:	e3a06006 	mov	r6, #6, 0
    b364:	e3a0c007 	mov	ip, #7, 0
    b368:	e3a04005 	mov	r4, #5, 0
    b36c:	e1a031a3 	lsr	r3, r3, #3
    b370:	e2833030 	add	r3, r3, #48, 0	; 0x30
    b374:	e5cd3004 	strb	r3, [sp, #4]
    b378:	e3a0503a 	mov	r5, #58, 0	; 0x3a
    b37c:	e59f31a0 	ldr	r3, [pc, #416]	; b524 <kalshi_buy+0x1e8>
    b380:	e28d7030 	add	r7, sp, #48, 0	; 0x30
    b384:	e0874004 	add	r4, r7, r4
    b388:	e0837093 	umull	r7, r3, r3, r0
    b38c:	e1a031a3 	lsr	r3, r3, #3
    b390:	e0833103 	add	r3, r3, r3, lsl #2
    b394:	e0400083 	sub	r0, r0, r3, lsl #1
    b398:	e5d13000 	ldrb	r3, [r1]
    b39c:	e28d7030 	add	r7, sp, #48, 0	; 0x30
    b3a0:	e0876006 	add	r6, r7, r6
    b3a4:	e2800030 	add	r0, r0, #48, 0	; 0x30
    b3a8:	e3530000 	cmp	r3, #0, 0
    b3ac:	e5440030 	strb	r0, [r4, #-48]	; 0xffffffd0
    b3b0:	e5465030 	strb	r5, [r6, #-48]	; 0xffffffd0
    b3b4:	0a000008 	beq	b3dc <kalshi_buy+0xa0>
    b3b8:	e261e001 	rsb	lr, r1, #1, 0
    b3bc:	e08ee00c 	add	lr, lr, ip
    b3c0:	e08d000c 	add	r0, sp, ip
    b3c4:	e4c03001 	strb	r3, [r0], #1
    b3c8:	e08ec001 	add	ip, lr, r1
    b3cc:	e5f13001 	ldrb	r3, [r1, #1]!
    b3d0:	e3530000 	cmp	r3, #0, 0
    b3d4:	1afffffa 	bne	b3c4 <kalshi_buy+0x88>
    b3d8:	e28ce001 	add	lr, ip, #1, 0
    b3dc:	e3a0103a 	mov	r1, #58, 0	; 0x3a
    b3e0:	e28d3030 	add	r3, sp, #48, 0	; 0x30
    b3e4:	e083300c 	add	r3, r3, ip
    b3e8:	e3520009 	cmp	r2, #9, 0
    b3ec:	e5431030 	strb	r1, [r3, #-48]	; 0xffffffd0
    b3f0:	9a000007 	bls	b414 <kalshi_buy+0xd8>
    b3f4:	e59f3128 	ldr	r3, [pc, #296]	; b524 <kalshi_buy+0x1e8>
    b3f8:	e28d1030 	add	r1, sp, #48, 0	; 0x30
    b3fc:	e0830293 	umull	r0, r3, r3, r2
    b400:	e1a031a3 	lsr	r3, r3, #3
    b404:	e081100e 	add	r1, r1, lr
    b408:	e2833030 	add	r3, r3, #48, 0	; 0x30
    b40c:	e28ce002 	add	lr, ip, #2, 0
    b410:	e5413030 	strb	r3, [r1, #-48]	; 0xffffffd0
    b414:	e3a01000 	mov	r1, #0, 0
    b418:	e59f3104 	ldr	r3, [pc, #260]	; b524 <kalshi_buy+0x1e8>
    b41c:	e28d0030 	add	r0, sp, #48, 0	; 0x30
    b420:	e080e00e 	add	lr, r0, lr
    b424:	e0830293 	umull	r0, r3, r3, r2
    b428:	e1a031a3 	lsr	r3, r3, #3
    b42c:	e0833103 	add	r3, r3, r3, lsl #2
    b430:	e0423083 	sub	r3, r2, r3, lsl #1
    b434:	e2833030 	add	r3, r3, #48, 0	; 0x30
    b438:	e54e3030 	strb	r3, [lr, #-48]	; 0xffffffd0
    b43c:	e54e102f 	strb	r1, [lr, #-47]	; 0xffffffd1
    b440:	e5dd0000 	ldrb	r0, [sp]
    b444:	e1500001 	cmp	r0, r1
    b448:	11a0400d 	movne	r4, sp
    b44c:	0a000003 	beq	b460 <kalshi_buy+0x124>
    b450:	eb001e59 	bl	12dbc <uart_put8>
    b454:	e5f40001 	ldrb	r0, [r4, #1]!
    b458:	e3500000 	cmp	r0, #0, 0
    b45c:	1afffffb 	bne	b450 <kalshi_buy+0x114>
    b460:	e3a0000a 	mov	r0, #10, 0
    b464:	eb001e54 	bl	12dbc <uart_put8>
    b468:	e3a05000 	mov	r5, #0, 0
    b46c:	e59f40b4 	ldr	r4, [pc, #180]	; b528 <kalshi_buy+0x1ec>
    b470:	ea000003 	b	b484 <kalshi_buy+0x148>
    b474:	e3a0000a 	mov	r0, #10, 0
    b478:	eb0021c5 	bl	13b94 <delay_us>
    b47c:	e2544001 	subs	r4, r4, #1, 0
    b480:	0a000022 	beq	b510 <kalshi_buy+0x1d4>
    b484:	eb001e32 	bl	12d54 <uart_has_data>
    b488:	e3500000 	cmp	r0, #0, 0
    b48c:	0afffff8 	beq	b474 <kalshi_buy+0x138>
    b490:	eb001e35 	bl	12d6c <uart_get8>
    b494:	e6ef0070 	uxtb	r0, r0
    b498:	e350000d 	cmp	r0, #13, 0
    b49c:	1350000a 	cmpne	r0, #10, 0
    b4a0:	1a00000e 	bne	b4e0 <kalshi_buy+0x1a4>
    b4a4:	e3550000 	cmp	r5, #0, 0
    b4a8:	0affffef 	beq	b46c <kalshi_buy+0x130>
    b4ac:	e3a03000 	mov	r3, #0, 0
    b4b0:	e28d2030 	add	r2, sp, #48, 0	; 0x30
    b4b4:	e0825005 	add	r5, r2, r5
    b4b8:	e5453018 	strb	r3, [r5, #-24]	; 0xffffffe8
    b4bc:	e5dd3018 	ldrb	r3, [sp, #24]
    b4c0:	e353004f 	cmp	r3, #79, 0	; 0x4f
    b4c4:	05dd0019 	ldrbeq	r0, [sp, #25]
    b4c8:	13a00000 	movne	r0, #0, 0
    b4cc:	0240004b 	subeq	r0, r0, #75, 0	; 0x4b
    b4d0:	016f0f10 	clzeq	r0, r0
    b4d4:	01a002a0 	lsreq	r0, r0, #5
    b4d8:	e28dd034 	add	sp, sp, #52, 0	; 0x34
    b4dc:	e8bd80f0 	pop	{r4, r5, r6, r7, pc}
    b4e0:	e28d3030 	add	r3, sp, #48, 0	; 0x30
    b4e4:	e0833005 	add	r3, r3, r5
    b4e8:	e3550016 	cmp	r5, #22, 0
    b4ec:	e5430018 	strb	r0, [r3, #-24]	; 0xffffffe8
    b4f0:	e2855001 	add	r5, r5, #1, 0
    b4f4:	1affffdc 	bne	b46c <kalshi_buy+0x130>
    b4f8:	eaffffeb 	b	b4ac <kalshi_buy+0x170>
    b4fc:	e3a0e007 	mov	lr, #7, 0
    b500:	e3a0c006 	mov	ip, #6, 0
    b504:	e3a06005 	mov	r6, #5, 0
    b508:	e3a04004 	mov	r4, #4, 0
    b50c:	eaffff99 	b	b378 <kalshi_buy+0x3c>
    b510:	e28d3030 	add	r3, sp, #48, 0	; 0x30
    b514:	e0835005 	add	r5, r3, r5
    b518:	e5454018 	strb	r4, [r5, #-24]	; 0xffffffe8
    b51c:	eaffffe6 	b	b4bc <kalshi_buy+0x180>
    b520:	3a595542 	.word	0x3a595542
    b524:	cccccccd 	.word	0xcccccccd
    b528:	0007a121 	.word	0x0007a121

0000b52c <kalshi_sell>:
    b52c:	e3a0c03a 	mov	ip, #58, 0	; 0x3a
    b530:	e92d40f0 	push	{r4, r5, r6, r7, lr}
    b534:	e59f3218 	ldr	r3, [pc, #536]	; b754 <kalshi_sell+0x228>
    b538:	e24dd03c 	sub	sp, sp, #60, 0	; 0x3c
    b53c:	e3500009 	cmp	r0, #9, 0
    b540:	e5cdc020 	strb	ip, [sp, #32]
    b544:	e58d301c 	str	r3, [sp, #28]
    b548:	9a000063 	bls	b6dc <kalshi_sell+0x1b0>
    b54c:	e59f3204 	ldr	r3, [pc, #516]	; b758 <kalshi_sell+0x22c>
    b550:	e3a0e009 	mov	lr, #9, 0
    b554:	e083c093 	umull	ip, r3, r3, r0
    b558:	e3a06007 	mov	r6, #7, 0
    b55c:	e3a0c008 	mov	ip, #8, 0
    b560:	e3a04006 	mov	r4, #6, 0
    b564:	e1a031a3 	lsr	r3, r3, #3
    b568:	e2833030 	add	r3, r3, #48, 0	; 0x30
    b56c:	e5cd3021 	strb	r3, [sp, #33]	; 0x21
    b570:	e3a0503a 	mov	r5, #58, 0	; 0x3a
    b574:	e59f31dc 	ldr	r3, [pc, #476]	; b758 <kalshi_sell+0x22c>
    b578:	e28d7038 	add	r7, sp, #56, 0	; 0x38
    b57c:	e0874004 	add	r4, r7, r4
    b580:	e0837093 	umull	r7, r3, r3, r0
    b584:	e1a031a3 	lsr	r3, r3, #3
    b588:	e0833103 	add	r3, r3, r3, lsl #2
    b58c:	e0400083 	sub	r0, r0, r3, lsl #1
    b590:	e5d13000 	ldrb	r3, [r1]
    b594:	e28d7038 	add	r7, sp, #56, 0	; 0x38
    b598:	e0876006 	add	r6, r7, r6
    b59c:	e2800030 	add	r0, r0, #48, 0	; 0x30
    b5a0:	e3530000 	cmp	r3, #0, 0
    b5a4:	e544001c 	strb	r0, [r4, #-28]	; 0xffffffe4
    b5a8:	e546501c 	strb	r5, [r6, #-28]	; 0xffffffe4
    b5ac:	0a000009 	beq	b5d8 <kalshi_sell+0xac>
    b5b0:	e261e001 	rsb	lr, r1, #1, 0
    b5b4:	e28d001c 	add	r0, sp, #28, 0
    b5b8:	e08ee00c 	add	lr, lr, ip
    b5bc:	e080000c 	add	r0, r0, ip
    b5c0:	e4c03001 	strb	r3, [r0], #1
    b5c4:	e08ec001 	add	ip, lr, r1
    b5c8:	e5f13001 	ldrb	r3, [r1, #1]!
    b5cc:	e3530000 	cmp	r3, #0, 0
    b5d0:	1afffffa 	bne	b5c0 <kalshi_sell+0x94>
    b5d4:	e28ce001 	add	lr, ip, #1, 0
    b5d8:	e3a0103a 	mov	r1, #58, 0	; 0x3a
    b5dc:	e28d3038 	add	r3, sp, #56, 0	; 0x38
    b5e0:	e083300c 	add	r3, r3, ip
    b5e4:	e3520000 	cmp	r2, #0, 0
    b5e8:	e543101c 	strb	r1, [r3, #-28]	; 0xffffffe4
    b5ec:	1a00003f 	bne	b6f0 <kalshi_sell+0x1c4>
    b5f0:	e3a0204c 	mov	r2, #76, 0	; 0x4c
    b5f4:	e3a01041 	mov	r1, #65, 0	; 0x41
    b5f8:	e28d0038 	add	r0, sp, #56, 0	; 0x38
    b5fc:	e080e00e 	add	lr, r0, lr
    b600:	e54e101c 	strb	r1, [lr, #-28]	; 0xffffffe4
    b604:	e28cc004 	add	ip, ip, #4, 0
    b608:	e543201a 	strb	r2, [r3, #-26]	; 0xffffffe6
    b60c:	e5432019 	strb	r2, [r3, #-25]	; 0xffffffe7
    b610:	e3a03000 	mov	r3, #0, 0
    b614:	e28d2038 	add	r2, sp, #56, 0	; 0x38
    b618:	e082c00c 	add	ip, r2, ip
    b61c:	e54c301c 	strb	r3, [ip, #-28]	; 0xffffffe4
    b620:	e5dd001c 	ldrb	r0, [sp, #28]
    b624:	e1500003 	cmp	r0, r3
    b628:	128d401c 	addne	r4, sp, #28, 0
    b62c:	0a000003 	beq	b640 <kalshi_sell+0x114>
    b630:	eb001de1 	bl	12dbc <uart_put8>
    b634:	e5f40001 	ldrb	r0, [r4, #1]!
    b638:	e3500000 	cmp	r0, #0, 0
    b63c:	1afffffb 	bne	b630 <kalshi_sell+0x104>
    b640:	e3a0000a 	mov	r0, #10, 0
    b644:	eb001ddc 	bl	12dbc <uart_put8>
    b648:	e3a05000 	mov	r5, #0, 0
    b64c:	e59f4108 	ldr	r4, [pc, #264]	; b75c <kalshi_sell+0x230>
    b650:	ea000003 	b	b664 <kalshi_sell+0x138>
    b654:	e3a0000a 	mov	r0, #10, 0
    b658:	eb00214d 	bl	13b94 <delay_us>
    b65c:	e2544001 	subs	r4, r4, #1, 0
    b660:	0a000037 	beq	b744 <kalshi_sell+0x218>
    b664:	eb001dba 	bl	12d54 <uart_has_data>
    b668:	e3500000 	cmp	r0, #0, 0
    b66c:	0afffff8 	beq	b654 <kalshi_sell+0x128>
    b670:	eb001dbd 	bl	12d6c <uart_get8>
    b674:	e6ef0070 	uxtb	r0, r0
    b678:	e350000d 	cmp	r0, #13, 0
    b67c:	1350000a 	cmpne	r0, #10, 0
    b680:	1a00000e 	bne	b6c0 <kalshi_sell+0x194>
    b684:	e3550000 	cmp	r5, #0, 0
    b688:	0affffef 	beq	b64c <kalshi_sell+0x120>
    b68c:	e3a03000 	mov	r3, #0, 0
    b690:	e28d2038 	add	r2, sp, #56, 0	; 0x38
    b694:	e0825005 	add	r5, r2, r5
    b698:	e5453034 	strb	r3, [r5, #-52]	; 0xffffffcc
    b69c:	e5dd3004 	ldrb	r3, [sp, #4]
    b6a0:	e353004f 	cmp	r3, #79, 0	; 0x4f
    b6a4:	05dd0005 	ldrbeq	r0, [sp, #5]
    b6a8:	13a00000 	movne	r0, #0, 0
    b6ac:	0240004b 	subeq	r0, r0, #75, 0	; 0x4b
    b6b0:	016f0f10 	clzeq	r0, r0
    b6b4:	01a002a0 	lsreq	r0, r0, #5
    b6b8:	e28dd03c 	add	sp, sp, #60, 0	; 0x3c
    b6bc:	e8bd80f0 	pop	{r4, r5, r6, r7, pc}
    b6c0:	e28d3038 	add	r3, sp, #56, 0	; 0x38
    b6c4:	e0833005 	add	r3, r3, r5
    b6c8:	e3550016 	cmp	r5, #22, 0
    b6cc:	e5430034 	strb	r0, [r3, #-52]	; 0xffffffcc
    b6d0:	e2855001 	add	r5, r5, #1, 0
    b6d4:	1affffdc 	bne	b64c <kalshi_sell+0x120>
    b6d8:	eaffffeb 	b	b68c <kalshi_sell+0x160>
    b6dc:	e3a0e008 	mov	lr, #8, 0
    b6e0:	e3a0c007 	mov	ip, #7, 0
    b6e4:	e3a06006 	mov	r6, #6, 0
    b6e8:	e3a04005 	mov	r4, #5, 0
    b6ec:	eaffff9f 	b	b570 <kalshi_sell+0x44>
    b6f0:	e3520009 	cmp	r2, #9, 0
    b6f4:	9a000007 	bls	b718 <kalshi_sell+0x1ec>
    b6f8:	e59f3058 	ldr	r3, [pc, #88]	; b758 <kalshi_sell+0x22c>
    b6fc:	e28d1038 	add	r1, sp, #56, 0	; 0x38
    b700:	e0830293 	umull	r0, r3, r3, r2
    b704:	e1a031a3 	lsr	r3, r3, #3
    b708:	e081100e 	add	r1, r1, lr
    b70c:	e2833030 	add	r3, r3, #48, 0	; 0x30
    b710:	e28ce002 	add	lr, ip, #2, 0
    b714:	e541301c 	strb	r3, [r1, #-28]	; 0xffffffe4
    b718:	e59f3038 	ldr	r3, [pc, #56]	; b758 <kalshi_sell+0x22c>
    b71c:	e28d1038 	add	r1, sp, #56, 0	; 0x38
    b720:	e0830293 	umull	r0, r3, r3, r2
    b724:	e1a031a3 	lsr	r3, r3, #3
    b728:	e0833103 	add	r3, r3, r3, lsl #2
    b72c:	e0422083 	sub	r2, r2, r3, lsl #1
    b730:	e081100e 	add	r1, r1, lr
    b734:	e2822030 	add	r2, r2, #48, 0	; 0x30
    b738:	e541201c 	strb	r2, [r1, #-28]	; 0xffffffe4
    b73c:	e28ec001 	add	ip, lr, #1, 0
    b740:	eaffffb2 	b	b610 <kalshi_sell+0xe4>
    b744:	e28d3038 	add	r3, sp, #56, 0	; 0x38
    b748:	e0835005 	add	r5, r3, r5
    b74c:	e5454034 	strb	r4, [r5, #-52]	; 0xffffffcc
    b750:	eaffffd1 	b	b69c <kalshi_sell+0x170>
    b754:	4c4c4553 	.word	0x4c4c4553
    b758:	cccccccd 	.word	0xcccccccd
    b75c:	0007a121 	.word	0x0007a121

0000b760 <kalshi_pick_random>:
    b760:	e92d4070 	push	{r4, r5, r6, lr}
    b764:	e3a04047 	mov	r4, #71, 0	; 0x47
    b768:	e59f5118 	ldr	r5, [pc, #280]	; b888 <kalshi_pick_random+0x128>
    b76c:	e24dd010 	sub	sp, sp, #16, 0
    b770:	e1a00004 	mov	r0, r4
    b774:	eb001d90 	bl	12dbc <uart_put8>
    b778:	e5f54001 	ldrb	r4, [r5, #1]!
    b77c:	e3540000 	cmp	r4, #0, 0
    b780:	1afffffa 	bne	b770 <kalshi_pick_random+0x10>
    b784:	e3a0000a 	mov	r0, #10, 0
    b788:	eb001d8b 	bl	12dbc <uart_put8>
    b78c:	e1a06004 	mov	r6, r4
    b790:	e59f50f4 	ldr	r5, [pc, #244]	; b88c <kalshi_pick_random+0x12c>
    b794:	ea000003 	b	b7a8 <kalshi_pick_random+0x48>
    b798:	e3a0000a 	mov	r0, #10, 0
    b79c:	eb0020fc 	bl	13b94 <delay_us>
    b7a0:	e2555001 	subs	r5, r5, #1, 0
    b7a4:	0a000033 	beq	b878 <kalshi_pick_random+0x118>
    b7a8:	eb001d69 	bl	12d54 <uart_has_data>
    b7ac:	e3500000 	cmp	r0, #0, 0
    b7b0:	0afffff8 	beq	b798 <kalshi_pick_random+0x38>
    b7b4:	eb001d6c 	bl	12d6c <uart_get8>
    b7b8:	e6ef0070 	uxtb	r0, r0
    b7bc:	e350000d 	cmp	r0, #13, 0
    b7c0:	1350000a 	cmpne	r0, #10, 0
    b7c4:	1a00001a 	bne	b834 <kalshi_pick_random+0xd4>
    b7c8:	e3540000 	cmp	r4, #0, 0
    b7cc:	0affffef 	beq	b790 <kalshi_pick_random+0x30>
    b7d0:	e3a03000 	mov	r3, #0, 0
    b7d4:	e28d2010 	add	r2, sp, #16, 0
    b7d8:	e0824004 	add	r4, r2, r4
    b7dc:	e5443010 	strb	r3, [r4, #-16]
    b7e0:	e5dd3000 	ldrb	r3, [sp]
    b7e4:	e353002d 	cmp	r3, #45, 0	; 0x2d
    b7e8:	0a000018 	beq	b850 <kalshi_pick_random+0xf0>
    b7ec:	e2432030 	sub	r2, r3, #48, 0	; 0x30
    b7f0:	e6ef3072 	uxtb	r3, r2
    b7f4:	e3530009 	cmp	r3, #9, 0
    b7f8:	91a0100d 	movls	r1, sp
    b7fc:	93a0c000 	movls	ip, #0, 0
    b800:	8a000019 	bhi	b86c <kalshi_pick_random+0x10c>
    b804:	e3a00000 	mov	r0, #0, 0
    b808:	e5f13001 	ldrb	r3, [r1, #1]!
    b80c:	e0800100 	add	r0, r0, r0, lsl #2
    b810:	e0820080 	add	r0, r2, r0, lsl #1
    b814:	e2432030 	sub	r2, r3, #48, 0	; 0x30
    b818:	e6ef3072 	uxtb	r3, r2
    b81c:	e3530009 	cmp	r3, #9, 0
    b820:	9afffff8 	bls	b808 <kalshi_pick_random+0xa8>
    b824:	e35c0000 	cmp	ip, #0, 0
    b828:	12600000 	rsbne	r0, r0, #0, 0
    b82c:	e28dd010 	add	sp, sp, #16, 0
    b830:	e8bd8070 	pop	{r4, r5, r6, pc}
    b834:	e2844001 	add	r4, r4, #1, 0
    b838:	e28d3010 	add	r3, sp, #16, 0
    b83c:	e0836006 	add	r6, r3, r6
    b840:	e354000f 	cmp	r4, #15, 0
    b844:	e5460010 	strb	r0, [r6, #-16]
    b848:	1affffcf 	bne	b78c <kalshi_pick_random+0x2c>
    b84c:	eaffffdf 	b	b7d0 <kalshi_pick_random+0x70>
    b850:	e5dd3001 	ldrb	r3, [sp, #1]
    b854:	e2432030 	sub	r2, r3, #48, 0	; 0x30
    b858:	e6ef3072 	uxtb	r3, r2
    b85c:	e3530009 	cmp	r3, #9, 0
    b860:	93a0c001 	movls	ip, #1, 0
    b864:	908d100c 	addls	r1, sp, ip
    b868:	9affffe5 	bls	b804 <kalshi_pick_random+0xa4>
    b86c:	e3a00000 	mov	r0, #0, 0
    b870:	e28dd010 	add	sp, sp, #16, 0
    b874:	e8bd8070 	pop	{r4, r5, r6, pc}
    b878:	e28d3010 	add	r3, sp, #16, 0
    b87c:	e0834004 	add	r4, r3, r4
    b880:	e5445010 	strb	r5, [r4, #-16]
    b884:	eaffffd5 	b	b7e0 <kalshi_pick_random+0x80>
    b888:	00014294 	.word	0x00014294
    b88c:	0007a121 	.word	0x0007a121

0000b890 <simple_atoi>:
    b890:	e5d01000 	ldrb	r1, [r0]
    b894:	e1a02000 	mov	r2, r0
    b898:	e351002d 	cmp	r1, #45, 0	; 0x2d
    b89c:	0a00000f 	beq	b8e0 <simple_atoi+0x50>
    b8a0:	e2413030 	sub	r3, r1, #48, 0	; 0x30
    b8a4:	e6ef1073 	uxtb	r1, r3
    b8a8:	e3510009 	cmp	r1, #9, 0
    b8ac:	93a0c000 	movls	ip, #0, 0
    b8b0:	8a000011 	bhi	b8fc <simple_atoi+0x6c>
    b8b4:	e3a00000 	mov	r0, #0, 0
    b8b8:	e5f21001 	ldrb	r1, [r2, #1]!
    b8bc:	e0800100 	add	r0, r0, r0, lsl #2
    b8c0:	e0830080 	add	r0, r3, r0, lsl #1
    b8c4:	e2413030 	sub	r3, r1, #48, 0	; 0x30
    b8c8:	e6ef1073 	uxtb	r1, r3
    b8cc:	e3510009 	cmp	r1, #9, 0
    b8d0:	9afffff8 	bls	b8b8 <simple_atoi+0x28>
    b8d4:	e35c0000 	cmp	ip, #0, 0
    b8d8:	12600000 	rsbne	r0, r0, #0, 0
    b8dc:	e12fff1e 	bx	lr
    b8e0:	e5d01001 	ldrb	r1, [r0, #1]
    b8e4:	e2802001 	add	r2, r0, #1, 0
    b8e8:	e2413030 	sub	r3, r1, #48, 0	; 0x30
    b8ec:	e6ef1073 	uxtb	r1, r3
    b8f0:	e3510009 	cmp	r1, #9, 0
    b8f4:	93a0c001 	movls	ip, #1, 0
    b8f8:	9affffed 	bls	b8b4 <simple_atoi+0x24>
    b8fc:	e3a00000 	mov	r0, #0, 0
    b900:	e12fff1e 	bx	lr

0000b904 <setup_fs>:
    b904:	e92d4030 	push	{r4, r5, lr}
    b908:	e3a01302 	mov	r1, #134217728	; 0x8000000
    b90c:	e24dd034 	sub	sp, sp, #52, 0	; 0x34
    b910:	e3a00502 	mov	r0, #8388608	; 0x800000
    b914:	eb001b51 	bl	12660 <kmalloc_init_set_start>
    b918:	eb000307 	bl	c53c <pi_sd_init>
    b91c:	eb0019ee 	bl	120dc <mbr_read>
    b920:	e2801f6f 	add	r1, r0, #444	; 0x1bc
    b924:	e3a02010 	mov	r2, #16, 0
    b928:	e59f403c 	ldr	r4, [pc, #60]	; b96c <setup_fs+0x68>
    b92c:	e2811002 	add	r1, r1, #2, 0
    b930:	e28d0020 	add	r0, sp, #32, 0
    b934:	eb001e8b 	bl	13368 <memcpy>
    b938:	e1a0000d 	mov	r0, sp
    b93c:	e28d1020 	add	r1, sp, #32, 0
    b940:	eb001473 	bl	10b14 <fat32_mk>
    b944:	e1a0c00d 	mov	ip, sp
    b948:	e1a0e004 	mov	lr, r4
    b94c:	e8bc000f 	ldm	ip!, {r0, r1, r2, r3}
    b950:	e3a05001 	mov	r5, #1, 0
    b954:	e8ae000f 	stmia	lr!, {r0, r1, r2, r3}
    b958:	e584501c 	str	r5, [r4, #28]
    b95c:	e89c0007 	ldm	ip, {r0, r1, r2}
    b960:	e88e0007 	stm	lr, {r0, r1, r2}
    b964:	e28dd034 	add	sp, sp, #52, 0	; 0x34
    b968:	e8bd8030 	pop	{r4, r5, pc}
    b96c:	00017780 	.word	0x00017780

0000b970 <get_fs>:
    b970:	e92d4030 	push	{r4, r5, lr}
    b974:	e59f4078 	ldr	r4, [pc, #120]	; b9f4 <get_fs+0x84>
    b978:	e24dd034 	sub	sp, sp, #52, 0	; 0x34
    b97c:	e594301c 	ldr	r3, [r4, #28]
    b980:	e3530000 	cmp	r3, #0, 0
    b984:	0a000002 	beq	b994 <get_fs+0x24>
    b988:	e59f0064 	ldr	r0, [pc, #100]	; b9f4 <get_fs+0x84>
    b98c:	e28dd034 	add	sp, sp, #52, 0	; 0x34
    b990:	e8bd8030 	pop	{r4, r5, pc}
    b994:	e3a01302 	mov	r1, #134217728	; 0x8000000
    b998:	e3a00502 	mov	r0, #8388608	; 0x800000
    b99c:	eb001b2f 	bl	12660 <kmalloc_init_set_start>
    b9a0:	eb0002e5 	bl	c53c <pi_sd_init>
    b9a4:	eb0019cc 	bl	120dc <mbr_read>
    b9a8:	e2801f6f 	add	r1, r0, #444	; 0x1bc
    b9ac:	e3a02010 	mov	r2, #16, 0
    b9b0:	e2811002 	add	r1, r1, #2, 0
    b9b4:	e28d0020 	add	r0, sp, #32, 0
    b9b8:	eb001e6a 	bl	13368 <memcpy>
    b9bc:	e1a0000d 	mov	r0, sp
    b9c0:	e28d1020 	add	r1, sp, #32, 0
    b9c4:	eb001452 	bl	10b14 <fat32_mk>
    b9c8:	e1a0c00d 	mov	ip, sp
    b9cc:	e1a0e004 	mov	lr, r4
    b9d0:	e8bc000f 	ldm	ip!, {r0, r1, r2, r3}
    b9d4:	e3a05001 	mov	r5, #1, 0
    b9d8:	e8ae000f 	stmia	lr!, {r0, r1, r2, r3}
    b9dc:	e89c0007 	ldm	ip, {r0, r1, r2}
    b9e0:	e88e0007 	stm	lr, {r0, r1, r2}
    b9e4:	e59f0008 	ldr	r0, [pc, #8]	; b9f4 <get_fs+0x84>
    b9e8:	e584501c 	str	r5, [r4, #28]
    b9ec:	e28dd034 	add	sp, sp, #52, 0	; 0x34
    b9f0:	e8bd8030 	pop	{r4, r5, pc}
    b9f4:	00017780 	.word	0x00017780

0000b9f8 <init_tama_info>:
    b9f8:	e92d4ff0 	push	{r4, r5, r6, r7, r8, r9, sl, fp, lr}
    b9fc:	e28db020 	add	fp, sp, #32, 0
    ba00:	e24dd07c 	sub	sp, sp, #124, 0	; 0x7c
    ba04:	e59f423c 	ldr	r4, [pc, #572]	; bc48 <init_tama_info+0x250>
    ba08:	e50bd090 	str	sp, [fp, #-144]	; 0xffffff70
    ba0c:	e594301c 	ldr	r3, [r4, #28]
    ba10:	e3530000 	cmp	r3, #0, 0
    ba14:	0a000064 	beq	bbac <init_tama_info+0x1b4>
    ba18:	e24b3050 	sub	r3, fp, #80, 0	; 0x50
    ba1c:	e50b308c 	str	r3, [fp, #-140]	; 0xffffff74
    ba20:	e51b408c 	ldr	r4, [fp, #-140]	; 0xffffff74
    ba24:	e59f8220 	ldr	r8, [pc, #544]	; bc4c <init_tama_info+0x254>
    ba28:	e1a00004 	mov	r0, r4
    ba2c:	e59f1214 	ldr	r1, [pc, #532]	; bc48 <init_tama_info+0x250>
    ba30:	eb0014b5 	bl	10d0c <fat32_get_root>
    ba34:	e1a01004 	mov	r1, r4
    ba38:	e5982000 	ldr	r2, [r8]
    ba3c:	e59f0204 	ldr	r0, [pc, #516]	; bc48 <init_tama_info+0x250>
    ba40:	eb00155c 	bl	10fb8 <fat32_stat>
    ba44:	e2507000 	subs	r7, r0, #0, 0
    ba48:	0a000005 	beq	ba64 <init_tama_info+0x6c>
    ba4c:	e5981000 	ldr	r1, [r8]
    ba50:	e59f01f8 	ldr	r0, [pc, #504]	; bc50 <init_tama_info+0x258>
    ba54:	eb001eb5 	bl	13530 <printk>
    ba58:	e51bd090 	ldr	sp, [fp, #-144]	; 0xffffff70
    ba5c:	e24bd020 	sub	sp, fp, #32, 0
    ba60:	e8bd8ff0 	pop	{r4, r5, r6, r7, r8, r9, sl, fp, pc}
    ba64:	e1a03007 	mov	r3, r7
    ba68:	e5982000 	ldr	r2, [r8]
    ba6c:	e51b108c 	ldr	r1, [fp, #-140]	; 0xffffff74
    ba70:	e59f01d0 	ldr	r0, [pc, #464]	; bc48 <init_tama_info+0x250>
    ba74:	eb00168f 	bl	114b8 <fat32_create>
    ba78:	e3500000 	cmp	r0, #0, 0
    ba7c:	03a03040 	moveq	r3, #64, 0	; 0x40
    ba80:	059f21cc 	ldreq	r2, [pc, #460]	; bc54 <init_tama_info+0x25c>
    ba84:	0a000069 	beq	bc30 <init_tama_info+0x238>
    ba88:	e5984004 	ldr	r4, [r8, #4]
    ba8c:	e0843104 	add	r3, r4, r4, lsl #2
    ba90:	e0833103 	add	r3, r3, r3, lsl #2
    ba94:	e1a03103 	lsl	r3, r3, #2
    ba98:	e50b3088 	str	r3, [fp, #-136]	; 0xffffff78
    ba9c:	e2833007 	add	r3, r3, #7, 0
    baa0:	e3c33007 	bic	r3, r3, #7, 0
    baa4:	e04dd003 	sub	sp, sp, r3
    baa8:	e28d3008 	add	r3, sp, #8, 0
    baac:	e3540000 	cmp	r4, #0, 0
    bab0:	e50b3084 	str	r3, [fp, #-132]	; 0xffffff7c
    bab4:	0a00002d 	beq	bb70 <init_tama_info+0x178>
    bab8:	e50b7080 	str	r7, [fp, #-128]	; 0xffffff80
    babc:	e1a07003 	mov	r7, r3
    bac0:	e59fa190 	ldr	sl, [pc, #400]	; bc58 <init_tama_info+0x260>
    bac4:	e59f9190 	ldr	r9, [pc, #400]	; bc5c <init_tama_info+0x264>
    bac8:	e2886004 	add	r6, r8, #4, 0
    bacc:	e288502c 	add	r5, r8, #44, 0	; 0x2c
    bad0:	e5b60004 	ldr	r0, [r6, #4]!
    bad4:	eb001fc8 	bl	139fc <strlen>
    bad8:	e1a04000 	mov	r4, r0
    badc:	e5b50004 	ldr	r0, [r5, #4]!
    bae0:	eb001fc5 	bl	139fc <strlen>
    bae4:	e51b3084 	ldr	r3, [fp, #-132]	; 0xffffff7c
    bae8:	e0844000 	add	r4, r4, r0
    baec:	e2844004 	add	r4, r4, #4, 0
    baf0:	e0470003 	sub	r0, r7, r3
    baf4:	e51b3088 	ldr	r3, [fp, #-136]	; 0xffffff78
    baf8:	e0844000 	add	r4, r4, r0
    bafc:	e1540003 	cmp	r4, r3
    bb00:	2a000042 	bcs	bc10 <init_tama_info+0x218>
    bb04:	e5961000 	ldr	r1, [r6]
    bb08:	e1a00007 	mov	r0, r7
    bb0c:	eb001fb2 	bl	139dc <strcpy>
    bb10:	e5960000 	ldr	r0, [r6]
    bb14:	eb001fb8 	bl	139fc <strlen>
    bb18:	e0870000 	add	r0, r7, r0
    bb1c:	e2804002 	add	r4, r0, #2, 0
    bb20:	e1a0100a 	mov	r1, sl
    bb24:	eb001fac 	bl	139dc <strcpy>
    bb28:	e5951000 	ldr	r1, [r5]
    bb2c:	e1a00004 	mov	r0, r4
    bb30:	eb001fa9 	bl	139dc <strcpy>
    bb34:	e5950000 	ldr	r0, [r5]
    bb38:	eb001faf 	bl	139fc <strlen>
    bb3c:	e0844000 	add	r4, r4, r0
    bb40:	e1a00004 	mov	r0, r4
    bb44:	e1a01009 	mov	r1, r9
    bb48:	eb001fa3 	bl	139dc <strcpy>
    bb4c:	e51b2080 	ldr	r2, [fp, #-128]	; 0xffffff80
    bb50:	e5983004 	ldr	r3, [r8, #4]
    bb54:	e2822001 	add	r2, r2, #1, 0
    bb58:	e1530002 	cmp	r3, r2
    bb5c:	e50b2080 	str	r2, [fp, #-128]	; 0xffffff80
    bb60:	e2847002 	add	r7, r4, #2, 0
    bb64:	8affffd9 	bhi	bad0 <init_tama_info+0xd8>
    bb68:	e51b3084 	ldr	r3, [fp, #-132]	; 0xffffff7c
    bb6c:	e0474003 	sub	r4, r7, r3
    bb70:	e51b0084 	ldr	r0, [fp, #-132]	; 0xffffff7c
    bb74:	e51bc088 	ldr	ip, [fp, #-136]	; 0xffffff78
    bb78:	e50b005c 	str	r0, [fp, #-92]	; 0xffffffa4
    bb7c:	e5982000 	ldr	r2, [r8]
    bb80:	e51b108c 	ldr	r1, [fp, #-140]	; 0xffffff74
    bb84:	e59f00bc 	ldr	r0, [pc, #188]	; bc48 <init_tama_info+0x250>
    bb88:	e24b305c 	sub	r3, fp, #92, 0	; 0x5c
    bb8c:	e50bc058 	str	ip, [fp, #-88]	; 0xffffffa8
    bb90:	e50b4054 	str	r4, [fp, #-84]	; 0xffffffac
    bb94:	eb001881 	bl	11da0 <fat32_write>
    bb98:	e3500000 	cmp	r0, #0, 0
    bb9c:	0a000021 	beq	bc28 <init_tama_info+0x230>
    bba0:	e51bd090 	ldr	sp, [fp, #-144]	; 0xffffff70
    bba4:	e24bd020 	sub	sp, fp, #32, 0
    bba8:	e8bd8ff0 	pop	{r4, r5, r6, r7, r8, r9, sl, fp, pc}
    bbac:	e3a01302 	mov	r1, #134217728	; 0x8000000
    bbb0:	e3a00502 	mov	r0, #8388608	; 0x800000
    bbb4:	eb001aa9 	bl	12660 <kmalloc_init_set_start>
    bbb8:	eb00025f 	bl	c53c <pi_sd_init>
    bbbc:	eb001946 	bl	120dc <mbr_read>
    bbc0:	e24b3050 	sub	r3, fp, #80, 0	; 0x50
    bbc4:	e1a05003 	mov	r5, r3
    bbc8:	e2801f6f 	add	r1, r0, #444	; 0x1bc
    bbcc:	e3a02010 	mov	r2, #16, 0
    bbd0:	e1a00003 	mov	r0, r3
    bbd4:	e2811002 	add	r1, r1, #2, 0
    bbd8:	e50b308c 	str	r3, [fp, #-140]	; 0xffffff74
    bbdc:	eb001de1 	bl	13368 <memcpy>
    bbe0:	e1a01005 	mov	r1, r5
    bbe4:	e24b007c 	sub	r0, fp, #124, 0	; 0x7c
    bbe8:	eb0013c9 	bl	10b14 <fat32_mk>
    bbec:	e1a0e004 	mov	lr, r4
    bbf0:	e3a05001 	mov	r5, #1, 0
    bbf4:	e24bc07c 	sub	ip, fp, #124, 0	; 0x7c
    bbf8:	e8bc000f 	ldm	ip!, {r0, r1, r2, r3}
    bbfc:	e8ae000f 	stmia	lr!, {r0, r1, r2, r3}
    bc00:	e89c0007 	ldm	ip, {r0, r1, r2}
    bc04:	e584501c 	str	r5, [r4, #28]
    bc08:	e88e0007 	stm	lr, {r0, r1, r2}
    bc0c:	eaffff83 	b	ba20 <init_tama_info+0x28>
    bc10:	e3a03049 	mov	r3, #73, 0	; 0x49
    bc14:	e59f2044 	ldr	r2, [pc, #68]	; bc60 <init_tama_info+0x268>
    bc18:	e59f1044 	ldr	r1, [pc, #68]	; bc64 <init_tama_info+0x26c>
    bc1c:	e59f0044 	ldr	r0, [pc, #68]	; bc68 <init_tama_info+0x270>
    bc20:	eb001e42 	bl	13530 <printk>
    bc24:	eb001f86 	bl	13a44 <clean_reboot>
    bc28:	e3a03059 	mov	r3, #89, 0	; 0x59
    bc2c:	e59f2038 	ldr	r2, [pc, #56]	; bc6c <init_tama_info+0x274>
    bc30:	e59f102c 	ldr	r1, [pc, #44]	; bc64 <init_tama_info+0x26c>
    bc34:	e58d2000 	str	r2, [sp]
    bc38:	e59f0030 	ldr	r0, [pc, #48]	; bc70 <init_tama_info+0x278>
    bc3c:	e59f201c 	ldr	r2, [pc, #28]	; bc60 <init_tama_info+0x268>
    bc40:	eb001e3a 	bl	13530 <printk>
    bc44:	eb001f7e 	bl	13a44 <clean_reboot>
    bc48:	00017780 	.word	0x00017780
    bc4c:	00017694 	.word	0x00017694
    bc50:	0001429c 	.word	0x0001429c
    bc54:	000142cc 	.word	0x000142cc
    bc58:	00014330 	.word	0x00014330
    bc5c:	00015dc0 	.word	0x00015dc0
    bc60:	00014484 	.word	0x00014484
    bc64:	000142b0 	.word	0x000142b0
    bc68:	000142f0 	.word	0x000142f0
    bc6c:	00014334 	.word	0x00014334
    bc70:	00013f8c 	.word	0x00013f8c

0000bc74 <get_field_data>:
    bc74:	e92d47f0 	push	{r4, r5, r6, r7, r8, r9, sl, lr}
    bc78:	e59f51e8 	ldr	r5, [pc, #488]	; be68 <get_field_data+0x1f4>
    bc7c:	e24dd058 	sub	sp, sp, #88, 0	; 0x58
    bc80:	e595301c 	ldr	r3, [r5, #28]
    bc84:	e1a08000 	mov	r8, r0
    bc88:	e3530000 	cmp	r3, #0, 0
    bc8c:	128d402c 	addne	r4, sp, #44, 0	; 0x2c
    bc90:	0a000055 	beq	bdec <get_field_data+0x178>
    bc94:	e59f51d0 	ldr	r5, [pc, #464]	; be6c <get_field_data+0x1f8>
    bc98:	e1a00004 	mov	r0, r4
    bc9c:	e59f11c4 	ldr	r1, [pc, #452]	; be68 <get_field_data+0x1f4>
    bca0:	eb001419 	bl	10d0c <fat32_get_root>
    bca4:	e1a01004 	mov	r1, r4
    bca8:	e5952000 	ldr	r2, [r5]
    bcac:	e59f01b4 	ldr	r0, [pc, #436]	; be68 <get_field_data+0x1f4>
    bcb0:	eb001541 	bl	111bc <fat32_read>
    bcb4:	e2507000 	subs	r7, r0, #0, 0
    bcb8:	0a000062 	beq	be48 <get_field_data+0x1d4>
    bcbc:	e1a00008 	mov	r0, r8
    bcc0:	e5975008 	ldr	r5, [r7, #8]
    bcc4:	eb001f4c 	bl	139fc <strlen>
    bcc8:	e3550000 	cmp	r5, #0, 0
    bccc:	e1a0a000 	mov	sl, r0
    bcd0:	0a000013 	beq	bd24 <get_field_data+0xb0>
    bcd4:	e3a04000 	mov	r4, #0, 0
    bcd8:	e08a6004 	add	r6, sl, r4
    bcdc:	e2869002 	add	r9, r6, #2, 0
    bce0:	e1590005 	cmp	r9, r5
    bce4:	3a00001a 	bcc	bd54 <get_field_data+0xe0>
    bce8:	e1550004 	cmp	r5, r4
    bcec:	9a000009 	bls	bd18 <get_field_data+0xa4>
    bcf0:	e5973000 	ldr	r3, [r7]
    bcf4:	e2442001 	sub	r2, r4, #1, 0
    bcf8:	e0833002 	add	r3, r3, r2
    bcfc:	ea000002 	b	bd0c <get_field_data+0x98>
    bd00:	e2844001 	add	r4, r4, #1, 0
    bd04:	e1550004 	cmp	r5, r4
    bd08:	0a00000c 	beq	bd40 <get_field_data+0xcc>
    bd0c:	e5f31001 	ldrb	r1, [r3, #1]!
    bd10:	e351000a 	cmp	r1, #10, 0
    bd14:	1afffff9 	bne	bd00 <get_field_data+0x8c>
    bd18:	e2844001 	add	r4, r4, #1, 0
    bd1c:	e1550004 	cmp	r5, r4
    bd20:	8affffec 	bhi	bcd8 <get_field_data+0x64>
    bd24:	e3a03083 	mov	r3, #131, 0	; 0x83
    bd28:	e59f2140 	ldr	r2, [pc, #320]	; be70 <get_field_data+0x1fc>
    bd2c:	e59f1140 	ldr	r1, [pc, #320]	; be74 <get_field_data+0x200>
    bd30:	e59f0140 	ldr	r0, [pc, #320]	; be78 <get_field_data+0x204>
    bd34:	e58d8000 	str	r8, [sp]
    bd38:	eb001dfc 	bl	13530 <printk>
    bd3c:	eb001f40 	bl	13a44 <clean_reboot>
    bd40:	e1a04005 	mov	r4, r5
    bd44:	e2844001 	add	r4, r4, #1, 0
    bd48:	e1550004 	cmp	r5, r4
    bd4c:	8affffe1 	bhi	bcd8 <get_field_data+0x64>
    bd50:	eafffff3 	b	bd24 <get_field_data+0xb0>
    bd54:	e5970000 	ldr	r0, [r7]
    bd58:	e1a0200a 	mov	r2, sl
    bd5c:	e1a01008 	mov	r1, r8
    bd60:	e0800004 	add	r0, r0, r4
    bd64:	eb001f2b 	bl	13a18 <strncmp>
    bd68:	e3500000 	cmp	r0, #0, 0
    bd6c:	1affffdd 	bne	bce8 <get_field_data+0x74>
    bd70:	e5973000 	ldr	r3, [r7]
    bd74:	e7d32006 	ldrb	r2, [r3, r6]
    bd78:	e352003d 	cmp	r2, #61, 0	; 0x3d
    bd7c:	1affffd9 	bne	bce8 <get_field_data+0x74>
    bd80:	e0832006 	add	r2, r3, r6
    bd84:	e5d22001 	ldrb	r2, [r2, #1]
    bd88:	e3520022 	cmp	r2, #34, 0	; 0x22
    bd8c:	1affffd5 	bne	bce8 <get_field_data+0x74>
    bd90:	e2866001 	add	r6, r6, #1, 0
    bd94:	e0836006 	add	r6, r3, r6
    bd98:	e1a03009 	mov	r3, r9
    bd9c:	ea000002 	b	bdac <get_field_data+0x138>
    bda0:	e2833001 	add	r3, r3, #1, 0
    bda4:	e1550003 	cmp	r5, r3
    bda8:	9a000002 	bls	bdb8 <get_field_data+0x144>
    bdac:	e5f62001 	ldrb	r2, [r6, #1]!
    bdb0:	e3520022 	cmp	r2, #34, 0	; 0x22
    bdb4:	1afffff9 	bne	bda0 <get_field_data+0x12c>
    bdb8:	e0434009 	sub	r4, r3, r9
    bdbc:	e2840001 	add	r0, r4, #1, 0
    bdc0:	eb001aab 	bl	12874 <kmalloc>
    bdc4:	e1a05000 	mov	r5, r0
    bdc8:	e5971000 	ldr	r1, [r7]
    bdcc:	e1a02004 	mov	r2, r4
    bdd0:	e0811009 	add	r1, r1, r9
    bdd4:	eb001d63 	bl	13368 <memcpy>
    bdd8:	e3a03000 	mov	r3, #0, 0
    bddc:	e1a00005 	mov	r0, r5
    bde0:	e7c53004 	strb	r3, [r5, r4]
    bde4:	e28dd058 	add	sp, sp, #88, 0	; 0x58
    bde8:	e8bd87f0 	pop	{r4, r5, r6, r7, r8, r9, sl, pc}
    bdec:	e3a01302 	mov	r1, #134217728	; 0x8000000
    bdf0:	e3a00502 	mov	r0, #8388608	; 0x800000
    bdf4:	eb001a19 	bl	12660 <kmalloc_init_set_start>
    bdf8:	eb0001cf 	bl	c53c <pi_sd_init>
    bdfc:	eb0018b6 	bl	120dc <mbr_read>
    be00:	e28d402c 	add	r4, sp, #44, 0	; 0x2c
    be04:	e2801f6f 	add	r1, r0, #444	; 0x1bc
    be08:	e3a02010 	mov	r2, #16, 0
    be0c:	e2811002 	add	r1, r1, #2, 0
    be10:	e1a00004 	mov	r0, r4
    be14:	eb001d53 	bl	13368 <memcpy>
    be18:	e1a01004 	mov	r1, r4
    be1c:	e28d0008 	add	r0, sp, #8, 0
    be20:	eb00133b 	bl	10b14 <fat32_mk>
    be24:	e1a0e005 	mov	lr, r5
    be28:	e3a06001 	mov	r6, #1, 0
    be2c:	e28dc008 	add	ip, sp, #8, 0
    be30:	e8bc000f 	ldm	ip!, {r0, r1, r2, r3}
    be34:	e8ae000f 	stmia	lr!, {r0, r1, r2, r3}
    be38:	e89c0007 	ldm	ip, {r0, r1, r2}
    be3c:	e585601c 	str	r6, [r5, #28]
    be40:	e88e0007 	stm	lr, {r0, r1, r2}
    be44:	eaffff92 	b	bc94 <get_field_data+0x20>
    be48:	e5952000 	ldr	r2, [r5]
    be4c:	e3a03061 	mov	r3, #97, 0	; 0x61
    be50:	e59f101c 	ldr	r1, [pc, #28]	; be74 <get_field_data+0x200>
    be54:	e58d2000 	str	r2, [sp]
    be58:	e59f001c 	ldr	r0, [pc, #28]	; be7c <get_field_data+0x208>
    be5c:	e59f200c 	ldr	r2, [pc, #12]	; be70 <get_field_data+0x1fc>
    be60:	eb001db2 	bl	13530 <printk>
    be64:	eb001ef6 	bl	13a44 <clean_reboot>
    be68:	00017780 	.word	0x00017780
    be6c:	00017694 	.word	0x00017694
    be70:	00014494 	.word	0x00014494
    be74:	000142b0 	.word	0x000142b0
    be78:	00014384 	.word	0x00014384
    be7c:	00014360 	.word	0x00014360

0000be80 <get_age>:
    be80:	e59f0000 	ldr	r0, [pc]	; be88 <get_age+0x8>
    be84:	e12fff1e 	bx	lr
    be88:	000143a8 	.word	0x000143a8

0000be8c <get_start>:
    be8c:	e59f0000 	ldr	r0, [pc]	; be94 <get_start+0x8>
    be90:	eaffff77 	b	bc74 <get_field_data>
    be94:	000143b8 	.word	0x000143b8

0000be98 <get_peak>:
    be98:	e59f0000 	ldr	r0, [pc]	; bea0 <get_peak+0x8>
    be9c:	eaffff74 	b	bc74 <get_field_data>
    bea0:	000143c0 	.word	0x000143c0

0000bea4 <get_num_trades>:
    bea4:	e59f0000 	ldr	r0, [pc]	; beac <get_num_trades+0x8>
    bea8:	eaffff71 	b	bc74 <get_field_data>
    beac:	000143c8 	.word	0x000143c8

0000beb0 <get_level>:
    beb0:	e59f0000 	ldr	r0, [pc]	; beb8 <get_level+0x8>
    beb4:	eaffff6e 	b	bc74 <get_field_data>
    beb8:	000143d4 	.word	0x000143d4

0000bebc <get_last_trade_time>:
    bebc:	e92d41f0 	push	{r4, r5, r6, r7, r8, lr}
    bec0:	e59f013c 	ldr	r0, [pc, #316]	; c004 <get_last_trade_time+0x148>
    bec4:	ebffff6a 	bl	bc74 <get_field_data>
    bec8:	e5d02001 	ldrb	r2, [r0, #1]
    becc:	e5d03000 	ldrb	r3, [r0]
    bed0:	e2422030 	sub	r2, r2, #48, 0	; 0x30
    bed4:	e5d01002 	ldrb	r1, [r0, #2]
    bed8:	e2433030 	sub	r3, r3, #48, 0	; 0x30
    bedc:	e0822102 	add	r2, r2, r2, lsl #2
    bee0:	e0634283 	rsb	r4, r3, r3, lsl #5
    bee4:	e0822102 	add	r2, r2, r2, lsl #2
    bee8:	e5d0c004 	ldrb	ip, [r0, #4]
    beec:	e1a02102 	lsl	r2, r2, #2
    bef0:	e0833104 	add	r3, r3, r4, lsl #2
    bef4:	e2411030 	sub	r1, r1, #48, 0	; 0x30
    bef8:	e5d0e005 	ldrb	lr, [r0, #5]
    befc:	e0823183 	add	r3, r2, r3, lsl #3
    bf00:	e0811101 	add	r1, r1, r1, lsl #2
    bf04:	e0831081 	add	r1, r3, r1, lsl #1
    bf08:	e24cc030 	sub	ip, ip, #48, 0	; 0x30
    bf0c:	e5d03003 	ldrb	r3, [r0, #3]
    bf10:	e5d05006 	ldrb	r5, [r0, #6]
    bf14:	e24ee030 	sub	lr, lr, #48, 0	; 0x30
    bf18:	e08cc10c 	add	ip, ip, ip, lsl #2
    bf1c:	e08ec08c 	add	ip, lr, ip, lsl #1
    bf20:	e5d08007 	ldrb	r8, [r0, #7]
    bf24:	e5d0e00c 	ldrb	lr, [r0, #12]
    bf28:	e2433030 	sub	r3, r3, #48, 0	; 0x30
    bf2c:	e0811003 	add	r1, r1, r3
    bf30:	e2455030 	sub	r5, r5, #48, 0	; 0x30
    bf34:	e5d0300d 	ldrb	r3, [r0, #13]
    bf38:	e5d04008 	ldrb	r4, [r0, #8]
    bf3c:	e5d0600a 	ldrb	r6, [r0, #10]
    bf40:	e0852105 	add	r2, r5, r5, lsl #2
    bf44:	e24ee030 	sub	lr, lr, #48, 0	; 0x30
    bf48:	e2485030 	sub	r5, r8, #48, 0	; 0x30
    bf4c:	e0855082 	add	r5, r5, r2, lsl #1
    bf50:	e2433030 	sub	r3, r3, #48, 0	; 0x30
    bf54:	e5d0200b 	ldrb	r2, [r0, #11]
    bf58:	e08ee10e 	add	lr, lr, lr, lsl #2
    bf5c:	e35c0002 	cmp	ip, #2, 0
    bf60:	e083e08e 	add	lr, r3, lr, lsl #1
    bf64:	e2444030 	sub	r4, r4, #48, 0	; 0x30
    bf68:	e59f3098 	ldr	r3, [pc, #152]	; c008 <get_last_trade_time+0x14c>
    bf6c:	e2466030 	sub	r6, r6, #48, 0	; 0x30
    bf70:	92411001 	subls	r1, r1, #1, 0
    bf74:	e0847104 	add	r7, r4, r4, lsl #2
    bf78:	e0866106 	add	r6, r6, r6, lsl #2
    bf7c:	e5d04009 	ldrb	r4, [r0, #9]
    bf80:	e2420030 	sub	r0, r2, #48, 0	; 0x30
    bf84:	e0800086 	add	r0, r0, r6, lsl #1
    bf88:	928cc00c 	addls	ip, ip, #12, 0
    bf8c:	e0863193 	umull	r3, r6, r3, r1
    bf90:	e0812181 	add	r2, r1, r1, lsl #3
    bf94:	e59f3070 	ldr	r3, [pc, #112]	; c00c <get_last_trade_time+0x150>
    bf98:	e0812182 	add	r2, r1, r2, lsl #3
    bf9c:	e08cc18c 	add	ip, ip, ip, lsl #3
    bfa0:	e0822102 	add	r2, r2, r2, lsl #2
    bfa4:	e0853003 	add	r3, r5, r3
    bfa8:	e08cc20c 	add	ip, ip, ip, lsl #4
    bfac:	e0823003 	add	r3, r2, r3
    bfb0:	e24ccf72 	sub	ip, ip, #456	; 0x1c8
    bfb4:	e59f2054 	ldr	r2, [pc, #84]	; c010 <get_last_trade_time+0x154>
    bfb8:	e24cc001 	sub	ip, ip, #1, 0
    bfbc:	e08c2c92 	umull	r2, ip, r2, ip
    bfc0:	e0833121 	add	r3, r3, r1, lsr #2
    bfc4:	e08333a6 	add	r3, r3, r6, lsr #7
    bfc8:	e2444030 	sub	r4, r4, #48, 0	; 0x30
    bfcc:	e0844087 	add	r4, r4, r7, lsl #1
    bfd0:	e04332a6 	sub	r3, r3, r6, lsr #5
    bfd4:	e083312c 	add	r3, r3, ip, lsr #2
    bfd8:	e0644204 	rsb	r4, r4, r4, lsl #4
    bfdc:	e0600200 	rsb	r0, r0, r0, lsl #4
    bfe0:	e0644204 	rsb	r4, r4, r4, lsl #4
    bfe4:	e1a00100 	lsl	r0, r0, #2
    bfe8:	e0833083 	add	r3, r3, r3, lsl #1
    bfec:	e0800204 	add	r0, r0, r4, lsl #4
    bff0:	e0633203 	rsb	r3, r3, r3, lsl #4
    bff4:	e080000e 	add	r0, r0, lr
    bff8:	e0633203 	rsb	r3, r3, r3, lsl #4
    bffc:	e0800383 	add	r0, r0, r3, lsl #7
    c000:	e8bd81f0 	pop	{r4, r5, r6, r7, r8, pc}
    c004:	000143dc 	.word	0x000143dc
    c008:	51eb851f 	.word	0x51eb851f
    c00c:	fff4dac6 	.word	0xfff4dac6
    c010:	cccccccd 	.word	0xcccccccd

0000c014 <write_field_data>:
    c014:	e92d4ff0 	push	{r4, r5, r6, r7, r8, r9, sl, fp, lr}
    c018:	e28db020 	add	fp, sp, #32, 0
    c01c:	e24dd084 	sub	sp, sp, #132, 0	; 0x84
    c020:	e59f4300 	ldr	r4, [pc, #768]	; c328 <write_field_data+0x314>
    c024:	e50b0084 	str	r0, [fp, #-132]	; 0xffffff7c
    c028:	e594301c 	ldr	r3, [r4, #28]
    c02c:	e50b1098 	str	r1, [fp, #-152]	; 0xffffff68
    c030:	e3530000 	cmp	r3, #0, 0
    c034:	0a000055 	beq	c190 <write_field_data+0x17c>
    c038:	e24b3050 	sub	r3, fp, #80, 0	; 0x50
    c03c:	e50b3088 	str	r3, [fp, #-136]	; 0xffffff78
    c040:	e51b4088 	ldr	r4, [fp, #-136]	; 0xffffff78
    c044:	e59f12dc 	ldr	r1, [pc, #732]	; c328 <write_field_data+0x314>
    c048:	e1a00004 	mov	r0, r4
    c04c:	eb00132e 	bl	10d0c <fat32_get_root>
    c050:	e59f32d4 	ldr	r3, [pc, #724]	; c32c <write_field_data+0x318>
    c054:	e1a01004 	mov	r1, r4
    c058:	e5932000 	ldr	r2, [r3]
    c05c:	e59f02c4 	ldr	r0, [pc, #708]	; c328 <write_field_data+0x314>
    c060:	eb001455 	bl	111bc <fat32_read>
    c064:	e2507000 	subs	r7, r0, #0, 0
    c068:	0a00009d 	beq	c2e4 <write_field_data+0x2d0>
    c06c:	e5973004 	ldr	r3, [r7, #4]
    c070:	e5976008 	ldr	r6, [r7, #8]
    c074:	e2833007 	add	r3, r3, #7, 0
    c078:	e3c33007 	bic	r3, r3, #7, 0
    c07c:	e04dd003 	sub	sp, sp, r3
    c080:	e51b0084 	ldr	r0, [fp, #-132]	; 0xffffff7c
    c084:	eb001e5c 	bl	139fc <strlen>
    c088:	e3560000 	cmp	r6, #0, 0
    c08c:	13a04000 	movne	r4, #0, 0
    c090:	e28d3008 	add	r3, sp, #8, 0
    c094:	e1a0a000 	mov	sl, r0
    c098:	11a05003 	movne	r5, r3
    c09c:	e50b308c 	str	r3, [fp, #-140]	; 0xffffff74
    c0a0:	150b4080 	strne	r4, [fp, #-128]	; 0xffffff80
    c0a4:	0a000086 	beq	c2c4 <write_field_data+0x2b0>
    c0a8:	e51b3080 	ldr	r3, [fp, #-128]	; 0xffffff80
    c0ac:	e3530000 	cmp	r3, #0, 0
    c0b0:	1a000014 	bne	c108 <write_field_data+0xf4>
    c0b4:	e08a9004 	add	r9, sl, r4
    c0b8:	e2898002 	add	r8, r9, #2, 0
    c0bc:	e1580006 	cmp	r8, r6
    c0c0:	2a000010 	bcs	c108 <write_field_data+0xf4>
    c0c4:	e5970000 	ldr	r0, [r7]
    c0c8:	e1a0200a 	mov	r2, sl
    c0cc:	e51b1084 	ldr	r1, [fp, #-132]	; 0xffffff7c
    c0d0:	e0800004 	add	r0, r0, r4
    c0d4:	eb001e4f 	bl	13a18 <strncmp>
    c0d8:	e3500000 	cmp	r0, #0, 0
    c0dc:	1a000009 	bne	c108 <write_field_data+0xf4>
    c0e0:	e5972000 	ldr	r2, [r7]
    c0e4:	e7d23009 	ldrb	r3, [r2, r9]
    c0e8:	e353003d 	cmp	r3, #61, 0	; 0x3d
    c0ec:	e50b3090 	str	r3, [fp, #-144]	; 0xffffff70
    c0f0:	1a000004 	bne	c108 <write_field_data+0xf4>
    c0f4:	e2893001 	add	r3, r9, #1, 0
    c0f8:	e50b3094 	str	r3, [fp, #-148]	; 0xffffff6c
    c0fc:	e7d23003 	ldrb	r3, [r2, r3]
    c100:	e3530022 	cmp	r3, #34, 0	; 0x22
    c104:	0a00003a 	beq	c1f4 <write_field_data+0x1e0>
    c108:	e1560004 	cmp	r6, r4
    c10c:	9a00000c 	bls	c144 <write_field_data+0x130>
    c110:	e5973000 	ldr	r3, [r7]
    c114:	ea000001 	b	c120 <write_field_data+0x10c>
    c118:	e1560004 	cmp	r6, r4
    c11c:	9a000008 	bls	c144 <write_field_data+0x130>
    c120:	e7d33004 	ldrb	r3, [r3, r4]
    c124:	e4c53001 	strb	r3, [r5], #1
    c128:	e5973000 	ldr	r3, [r7]
    c12c:	e7d32004 	ldrb	r2, [r3, r4]
    c130:	e2844001 	add	r4, r4, #1, 0
    c134:	e352000a 	cmp	r2, #10, 0
    c138:	1afffff6 	bne	c118 <write_field_data+0x104>
    c13c:	e1560004 	cmp	r6, r4
    c140:	8affffd8 	bhi	c0a8 <write_field_data+0x94>
    c144:	e51b3080 	ldr	r3, [fp, #-128]	; 0xffffff80
    c148:	e3530000 	cmp	r3, #0, 0
    c14c:	0a00005c 	beq	c2c4 <write_field_data+0x2b0>
    c150:	e51be08c 	ldr	lr, [fp, #-140]	; 0xffffff74
    c154:	e59f31d0 	ldr	r3, [pc, #464]	; c32c <write_field_data+0x318>
    c158:	e597c004 	ldr	ip, [r7, #4]
    c15c:	e5932000 	ldr	r2, [r3]
    c160:	e045500e 	sub	r5, r5, lr
    c164:	e51b1088 	ldr	r1, [fp, #-136]	; 0xffffff78
    c168:	e59f01b8 	ldr	r0, [pc, #440]	; c328 <write_field_data+0x314>
    c16c:	e24b305c 	sub	r3, fp, #92, 0	; 0x5c
    c170:	e50bc058 	str	ip, [fp, #-88]	; 0xffffffa8
    c174:	e50b5054 	str	r5, [fp, #-84]	; 0xffffffac
    c178:	e50be05c 	str	lr, [fp, #-92]	; 0xffffffa4
    c17c:	eb001707 	bl	11da0 <fat32_write>
    c180:	e3500000 	cmp	r0, #0, 0
    c184:	0a00005f 	beq	c308 <write_field_data+0x2f4>
    c188:	e24bd020 	sub	sp, fp, #32, 0
    c18c:	e8bd8ff0 	pop	{r4, r5, r6, r7, r8, r9, sl, fp, pc}
    c190:	e3a01302 	mov	r1, #134217728	; 0x8000000
    c194:	e3a00502 	mov	r0, #8388608	; 0x800000
    c198:	eb001930 	bl	12660 <kmalloc_init_set_start>
    c19c:	eb0000e6 	bl	c53c <pi_sd_init>
    c1a0:	eb0017cd 	bl	120dc <mbr_read>
    c1a4:	e24b3050 	sub	r3, fp, #80, 0	; 0x50
    c1a8:	e1a05003 	mov	r5, r3
    c1ac:	e2801f6f 	add	r1, r0, #444	; 0x1bc
    c1b0:	e3a02010 	mov	r2, #16, 0
    c1b4:	e1a00003 	mov	r0, r3
    c1b8:	e2811002 	add	r1, r1, #2, 0
    c1bc:	e50b3088 	str	r3, [fp, #-136]	; 0xffffff78
    c1c0:	eb001c68 	bl	13368 <memcpy>
    c1c4:	e1a01005 	mov	r1, r5
    c1c8:	e24b007c 	sub	r0, fp, #124, 0	; 0x7c
    c1cc:	eb001250 	bl	10b14 <fat32_mk>
    c1d0:	e1a0e004 	mov	lr, r4
    c1d4:	e3a05001 	mov	r5, #1, 0
    c1d8:	e24bc07c 	sub	ip, fp, #124, 0	; 0x7c
    c1dc:	e8bc000f 	ldm	ip!, {r0, r1, r2, r3}
    c1e0:	e8ae000f 	stmia	lr!, {r0, r1, r2, r3}
    c1e4:	e89c0007 	ldm	ip, {r0, r1, r2}
    c1e8:	e584501c 	str	r5, [r4, #28]
    c1ec:	e88e0007 	stm	lr, {r0, r1, r2}
    c1f0:	eaffff92 	b	c040 <write_field_data+0x2c>
    c1f4:	e1a0200a 	mov	r2, sl
    c1f8:	e51b1084 	ldr	r1, [fp, #-132]	; 0xffffff7c
    c1fc:	e1a00005 	mov	r0, r5
    c200:	e50b3080 	str	r3, [fp, #-128]	; 0xffffff80
    c204:	eb001c57 	bl	13368 <memcpy>
    c208:	e51b3090 	ldr	r3, [fp, #-144]	; 0xffffff70
    c20c:	e085400a 	add	r4, r5, sl
    c210:	e7c5300a 	strb	r3, [r5, sl]
    c214:	e51b5098 	ldr	r5, [fp, #-152]	; 0xffffff68
    c218:	e51b3080 	ldr	r3, [fp, #-128]	; 0xffffff80
    c21c:	e1a00005 	mov	r0, r5
    c220:	e5c43001 	strb	r3, [r4, #1]
    c224:	eb001df4 	bl	139fc <strlen>
    c228:	e1a09000 	mov	r9, r0
    c22c:	e2844002 	add	r4, r4, #2, 0
    c230:	e1a02009 	mov	r2, r9
    c234:	e1a01005 	mov	r1, r5
    c238:	e1a00004 	mov	r0, r4
    c23c:	eb001c49 	bl	13368 <memcpy>
    c240:	e51b3080 	ldr	r3, [fp, #-128]	; 0xffffff80
    c244:	e0845009 	add	r5, r4, r9
    c248:	e7c43009 	strb	r3, [r4, r9]
    c24c:	e3a0300a 	mov	r3, #10, 0
    c250:	e5c53001 	strb	r3, [r5, #1]
    c254:	e5973000 	ldr	r3, [r7]
    c258:	e51b2094 	ldr	r2, [fp, #-148]	; 0xffffff6c
    c25c:	e2855002 	add	r5, r5, #2, 0
    c260:	e0832002 	add	r2, r3, r2
    c264:	ea000002 	b	c274 <write_field_data+0x260>
    c268:	e2888001 	add	r8, r8, #1, 0
    c26c:	e1560008 	cmp	r6, r8
    c270:	9a000002 	bls	c280 <write_field_data+0x26c>
    c274:	e5f21001 	ldrb	r1, [r2, #1]!
    c278:	e3510022 	cmp	r1, #34, 0	; 0x22
    c27c:	1afffff9 	bne	c268 <write_field_data+0x254>
    c280:	e2884001 	add	r4, r8, #1, 0
    c284:	e1560004 	cmp	r6, r4
    c288:	9a000007 	bls	c2ac <write_field_data+0x298>
    c28c:	e0838008 	add	r8, r3, r8
    c290:	ea000002 	b	c2a0 <write_field_data+0x28c>
    c294:	e2844001 	add	r4, r4, #1, 0
    c298:	e1560004 	cmp	r6, r4
    c29c:	9a000002 	bls	c2ac <write_field_data+0x298>
    c2a0:	e5f82001 	ldrb	r2, [r8, #1]!
    c2a4:	e352000a 	cmp	r2, #10, 0
    c2a8:	1afffff9 	bne	c294 <write_field_data+0x280>
    c2ac:	e2844001 	add	r4, r4, #1, 0
    c2b0:	e1560004 	cmp	r6, r4
    c2b4:	9affffa5 	bls	c150 <write_field_data+0x13c>
    c2b8:	e3a02001 	mov	r2, #1, 0
    c2bc:	e50b2080 	str	r2, [fp, #-128]	; 0xffffff80
    c2c0:	eaffff96 	b	c120 <write_field_data+0x10c>
    c2c4:	e51b3084 	ldr	r3, [fp, #-132]	; 0xffffff7c
    c2c8:	e59f2060 	ldr	r2, [pc, #96]	; c330 <write_field_data+0x31c>
    c2cc:	e59f1060 	ldr	r1, [pc, #96]	; c334 <write_field_data+0x320>
    c2d0:	e58d3000 	str	r3, [sp]
    c2d4:	e59f005c 	ldr	r0, [pc, #92]	; c338 <write_field_data+0x324>
    c2d8:	e3a030e7 	mov	r3, #231, 0	; 0xe7
    c2dc:	eb001c93 	bl	13530 <printk>
    c2e0:	eb001dd7 	bl	13a44 <clean_reboot>
    c2e4:	e59f3040 	ldr	r3, [pc, #64]	; c32c <write_field_data+0x318>
    c2e8:	e59f1044 	ldr	r1, [pc, #68]	; c334 <write_field_data+0x320>
    c2ec:	e5932000 	ldr	r2, [r3]
    c2f0:	e59f0044 	ldr	r0, [pc, #68]	; c33c <write_field_data+0x328>
    c2f4:	e3a030b3 	mov	r3, #179, 0	; 0xb3
    c2f8:	e58d2000 	str	r2, [sp]
    c2fc:	e59f202c 	ldr	r2, [pc, #44]	; c330 <write_field_data+0x31c>
    c300:	eb001c8a 	bl	13530 <printk>
    c304:	eb001dce 	bl	13a44 <clean_reboot>
    c308:	e59f2030 	ldr	r2, [pc, #48]	; c340 <write_field_data+0x32c>
    c30c:	e3a030f1 	mov	r3, #241, 0	; 0xf1
    c310:	e59f101c 	ldr	r1, [pc, #28]	; c334 <write_field_data+0x320>
    c314:	e58d2000 	str	r2, [sp]
    c318:	e59f0024 	ldr	r0, [pc, #36]	; c344 <write_field_data+0x330>
    c31c:	e59f200c 	ldr	r2, [pc, #12]	; c330 <write_field_data+0x31c>
    c320:	eb001c82 	bl	13530 <printk>
    c324:	eb001dc6 	bl	13a44 <clean_reboot>
    c328:	00017780 	.word	0x00017780
    c32c:	00017694 	.word	0x00017694
    c330:	000144a4 	.word	0x000144a4
    c334:	000142b0 	.word	0x000142b0
    c338:	00014384 	.word	0x00014384
    c33c:	00014360 	.word	0x00014360
    c340:	000143e8 	.word	0x000143e8
    c344:	00013f8c 	.word	0x00013f8c

0000c348 <write_last_trade>:
    c348:	e92d4ff0 	push	{r4, r5, r6, r7, r8, r9, sl, fp, lr}
    c34c:	e24dd014 	sub	sp, sp, #20, 0
    c350:	e1a06000 	mov	r6, r0
    c354:	ebfff760 	bl	a0dc <rtc_get_years>
    c358:	e1a02000 	mov	r2, r0
    c35c:	e1a00006 	mov	r0, r6
    c360:	e2822e7d 	add	r2, r2, #2000	; 0x7d0
    c364:	e6ff5072 	uxth	r5, r2
    c368:	ebfff74a 	bl	a098 <rtc_get_months>
    c36c:	e1a04000 	mov	r4, r0
    c370:	e1a00006 	mov	r0, r6
    c374:	ebfff72b 	bl	a028 <rtc_get_days>
    c378:	e1a09000 	mov	r9, r0
    c37c:	e1a00006 	mov	r0, r6
    c380:	ebfff718 	bl	9fe8 <rtc_get_hours>
    c384:	e1a08000 	mov	r8, r0
    c388:	e1a00006 	mov	r0, r6
    c38c:	ebfff705 	bl	9fa8 <rtc_get_minutes>
    c390:	e1a07000 	mov	r7, r0
    c394:	e1a00006 	mov	r0, r6
    c398:	ebfff6f2 	bl	9f68 <rtc_get_seconds>
    c39c:	e59f1114 	ldr	r1, [pc, #276]	; c4b8 <write_last_trade+0x170>
    c3a0:	e59f3114 	ldr	r3, [pc, #276]	; c4bc <write_last_trade+0x174>
    c3a4:	e0812591 	umull	r2, r1, r1, r5
    c3a8:	e082c593 	umull	ip, r2, r3, r5
    c3ac:	e1a0e2a1 	lsr	lr, r1, #5
    c3b0:	e081ce93 	umull	ip, r1, r3, lr
    c3b4:	e1a0c1a2 	lsr	ip, r2, #3
    c3b8:	e08b6c93 	umull	r6, fp, r3, ip
    c3bc:	e1a011a1 	lsr	r1, r1, #3
    c3c0:	e0811101 	add	r1, r1, r1, lsl #2
    c3c4:	e04e1081 	sub	r1, lr, r1, lsl #1
    c3c8:	e08c210c 	add	r2, ip, ip, lsl #2
    c3cc:	e086e493 	umull	lr, r6, r3, r4
    c3d0:	e1a0b1ab 	lsr	fp, fp, #3
    c3d4:	e0452082 	sub	r2, r5, r2, lsl #1
    c3d8:	e08bb10b 	add	fp, fp, fp, lsl #2
    c3dc:	e085e993 	umull	lr, r5, r3, r9
    c3e0:	e04cb08b 	sub	fp, ip, fp, lsl #1
    c3e4:	e08ec893 	umull	ip, lr, r3, r8
    c3e8:	e08ca793 	umull	sl, ip, r3, r7
    c3ec:	e1a061a6 	lsr	r6, r6, #3
    c3f0:	e083a093 	umull	sl, r3, r3, r0
    c3f4:	e2822030 	add	r2, r2, #48, 0	; 0x30
    c3f8:	e5cd2003 	strb	r2, [sp, #3]
    c3fc:	e1a051a5 	lsr	r5, r5, #3
    c400:	e0862106 	add	r2, r6, r6, lsl #2
    c404:	e1a0e1ae 	lsr	lr, lr, #3
    c408:	e0444082 	sub	r4, r4, r2, lsl #1
    c40c:	e0852105 	add	r2, r5, r5, lsl #2
    c410:	e1a0c1ac 	lsr	ip, ip, #3
    c414:	e0499082 	sub	r9, r9, r2, lsl #1
    c418:	e08e210e 	add	r2, lr, lr, lsl #2
    c41c:	e1a031a3 	lsr	r3, r3, #3
    c420:	e0488082 	sub	r8, r8, r2, lsl #1
    c424:	e08c210c 	add	r2, ip, ip, lsl #2
    c428:	e0477082 	sub	r7, r7, r2, lsl #1
    c42c:	e0832103 	add	r2, r3, r3, lsl #2
    c430:	e2833030 	add	r3, r3, #48, 0	; 0x30
    c434:	e5cd300c 	strb	r3, [sp, #12]
    c438:	e3a03032 	mov	r3, #50, 0	; 0x32
    c43c:	e5cd3000 	strb	r3, [sp]
    c440:	e3a03000 	mov	r3, #0, 0
    c444:	e2811030 	add	r1, r1, #48, 0	; 0x30
    c448:	e0400082 	sub	r0, r0, r2, lsl #1
    c44c:	e2802030 	add	r2, r0, #48, 0	; 0x30
    c450:	e5cd1001 	strb	r1, [sp, #1]
    c454:	e28ee030 	add	lr, lr, #48, 0	; 0x30
    c458:	e28cc030 	add	ip, ip, #48, 0	; 0x30
    c45c:	e1a0100d 	mov	r1, sp
    c460:	e59f0058 	ldr	r0, [pc, #88]	; c4c0 <write_last_trade+0x178>
    c464:	e28bb030 	add	fp, fp, #48, 0	; 0x30
    c468:	e2844030 	add	r4, r4, #48, 0	; 0x30
    c46c:	e2866030 	add	r6, r6, #48, 0	; 0x30
    c470:	e2899030 	add	r9, r9, #48, 0	; 0x30
    c474:	e2855030 	add	r5, r5, #48, 0	; 0x30
    c478:	e2888030 	add	r8, r8, #48, 0	; 0x30
    c47c:	e2877030 	add	r7, r7, #48, 0	; 0x30
    c480:	e5cdb002 	strb	fp, [sp, #2]
    c484:	e5cd4005 	strb	r4, [sp, #5]
    c488:	e5cd6004 	strb	r6, [sp, #4]
    c48c:	e5cd9007 	strb	r9, [sp, #7]
    c490:	e5cd5006 	strb	r5, [sp, #6]
    c494:	e5cd8009 	strb	r8, [sp, #9]
    c498:	e5cde008 	strb	lr, [sp, #8]
    c49c:	e5cd700b 	strb	r7, [sp, #11]
    c4a0:	e5cdc00a 	strb	ip, [sp, #10]
    c4a4:	e5cd200d 	strb	r2, [sp, #13]
    c4a8:	e5cd300e 	strb	r3, [sp, #14]
    c4ac:	ebfffed8 	bl	c014 <write_field_data>
    c4b0:	e28dd014 	add	sp, sp, #20, 0
    c4b4:	e8bd8ff0 	pop	{r4, r5, r6, r7, r8, r9, sl, fp, pc}
    c4b8:	51eb851f 	.word	0x51eb851f
    c4bc:	cccccccd 	.word	0xcccccccd
    c4c0:	000143dc 	.word	0x000143dc

0000c4c4 <write_level>:
    c4c4:	e52de004 	push	{lr}		; (str lr, [sp, #-4]!)
    c4c8:	e3500009 	cmp	r0, #9, 0
    c4cc:	92800030 	addls	r0, r0, #48, 0	; 0x30
    c4d0:	e3a02000 	mov	r2, #0, 0
    c4d4:	e24dd00c 	sub	sp, sp, #12, 0
    c4d8:	96ef3070 	uxtbls	r3, r0
    c4dc:	9a000009 	bls	c508 <write_level+0x44>
    c4e0:	e59f303c 	ldr	r3, [pc, #60]	; c524 <write_level+0x60>
    c4e4:	e5cd2006 	strb	r2, [sp, #6]
    c4e8:	e0832093 	umull	r2, r3, r3, r0
    c4ec:	e1a031a3 	lsr	r3, r3, #3
    c4f0:	e0832103 	add	r2, r3, r3, lsl #2
    c4f4:	e0400082 	sub	r0, r0, r2, lsl #1
    c4f8:	e2800030 	add	r0, r0, #48, 0	; 0x30
    c4fc:	e2833030 	add	r3, r3, #48, 0	; 0x30
    c500:	e6ef2070 	uxtb	r2, r0
    c504:	e6ef3073 	uxtb	r3, r3
    c508:	e59f0018 	ldr	r0, [pc, #24]	; c528 <write_level+0x64>
    c50c:	e28d1004 	add	r1, sp, #4, 0
    c510:	e5cd2005 	strb	r2, [sp, #5]
    c514:	e5cd3004 	strb	r3, [sp, #4]
    c518:	ebfffebd 	bl	c014 <write_field_data>
    c51c:	e28dd00c 	add	sp, sp, #12, 0
    c520:	e49df004 	pop	{pc}		; (ldr pc, [sp], #4)
    c524:	cccccccd 	.word	0xcccccccd
    c528:	000143d4 	.word	0x000143d4

0000c52c <pi_sd_trace>:
    c52c:	e59f3004 	ldr	r3, [pc, #4]	; c538 <pi_sd_trace+0xc>
    c530:	e5830000 	str	r0, [r3]
    c534:	e12fff1e 	bx	lr
    c538:	000177a0 	.word	0x000177a0

0000c53c <pi_sd_init>:
    c53c:	e92d4010 	push	{r4, lr}
    c540:	eb000e1f 	bl	fdc4 <emmc_init>
    c544:	e3500000 	cmp	r0, #0, 0
    c548:	0a000003 	beq	c55c <pi_sd_init+0x20>
    c54c:	e3a00001 	mov	r0, #1, 0
    c550:	e59f301c 	ldr	r3, [pc, #28]	; c574 <pi_sd_init+0x38>
    c554:	e5830004 	str	r0, [r3, #4]
    c558:	e8bd8010 	pop	{r4, pc}
    c55c:	e3a0301d 	mov	r3, #29, 0
    c560:	e59f2010 	ldr	r2, [pc, #16]	; c578 <pi_sd_init+0x3c>
    c564:	e59f1010 	ldr	r1, [pc, #16]	; c57c <pi_sd_init+0x40>
    c568:	e59f0010 	ldr	r0, [pc, #16]	; c580 <pi_sd_init+0x44>
    c56c:	eb001bef 	bl	13530 <printk>
    c570:	eb001d33 	bl	13a44 <clean_reboot>
    c574:	000177a0 	.word	0x000177a0
    c578:	00014620 	.word	0x00014620
    c57c:	000144b8 	.word	0x000144b8
    c580:	000144e8 	.word	0x000144e8

0000c584 <pi_sd_read>:
    c584:	e92d40f0 	push	{r4, r5, r6, r7, lr}
    c588:	e59f7108 	ldr	r7, [pc, #264]	; c698 <pi_sd_read+0x114>
    c58c:	e24dd00c 	sub	sp, sp, #12, 0
    c590:	e5973004 	ldr	r3, [r7, #4]
    c594:	e3530000 	cmp	r3, #0, 0
    c598:	0a00002f 	beq	c65c <pi_sd_read+0xd8>
    c59c:	e1a05001 	mov	r5, r1
    c5a0:	e1a04482 	lsl	r4, r2, #9
    c5a4:	e1a01000 	mov	r1, r0
    c5a8:	e1a06000 	mov	r6, r0
    c5ac:	e1a02004 	mov	r2, r4
    c5b0:	e1a00005 	mov	r0, r5
    c5b4:	eb000dbd 	bl	fcb0 <emmc_read>
    c5b8:	e1500004 	cmp	r0, r4
    c5bc:	1a00002e 	bne	c67c <pi_sd_read+0xf8>
    c5c0:	e5973000 	ldr	r3, [r7]
    c5c4:	e3530000 	cmp	r3, #0, 0
    c5c8:	1a000002 	bne	c5d8 <pi_sd_read+0x54>
    c5cc:	e3a00001 	mov	r0, #1, 0
    c5d0:	e28dd00c 	add	sp, sp, #12, 0
    c5d4:	e8bd80f0 	pop	{r4, r5, r6, r7, pc}
    c5d8:	e3560000 	cmp	r6, #0, 0
    c5dc:	13540000 	cmpne	r4, #0, 0
    c5e0:	03a03000 	moveq	r3, #0, 0
    c5e4:	0a000015 	beq	c640 <pi_sd_read+0xbc>
    c5e8:	e1b00124 	lsrs	r0, r4, #2
    c5ec:	0a00000d 	beq	c628 <pi_sd_read+0xa4>
    c5f0:	e0860100 	add	r0, r6, r0, lsl #2
    c5f4:	e5d61001 	ldrb	r1, [r6, #1]
    c5f8:	e5d62000 	ldrb	r2, [r6]
    c5fc:	e5d63002 	ldrb	r3, [r6, #2]
    c600:	e1822401 	orr	r2, r2, r1, lsl #8
    c604:	e5d61003 	ldrb	r1, [r6, #3]
    c608:	e0822004 	add	r2, r2, r4
    c60c:	e1834401 	orr	r4, r3, r1, lsl #8
    c610:	e0224584 	eor	r4, r2, r4, lsl #11
    c614:	e2866004 	add	r6, r6, #4, 0
    c618:	e0244802 	eor	r4, r4, r2, lsl #16
    c61c:	e1500006 	cmp	r0, r6
    c620:	e08445a4 	add	r4, r4, r4, lsr #11
    c624:	1afffff2 	bne	c5f4 <pi_sd_read+0x70>
    c628:	e0243184 	eor	r3, r4, r4, lsl #3
    c62c:	e08332a3 	add	r3, r3, r3, lsr #5
    c630:	e0233203 	eor	r3, r3, r3, lsl #4
    c634:	e08338a3 	add	r3, r3, r3, lsr #17
    c638:	e0233c83 	eor	r3, r3, r3, lsl #25
    c63c:	e0833323 	add	r3, r3, r3, lsr #6
    c640:	e1a02005 	mov	r2, r5
    c644:	e59f1050 	ldr	r1, [pc, #80]	; c69c <pi_sd_read+0x118>
    c648:	e59f0050 	ldr	r0, [pc, #80]	; c6a0 <pi_sd_read+0x11c>
    c64c:	eb001bb7 	bl	13530 <printk>
    c650:	e3a00001 	mov	r0, #1, 0
    c654:	e28dd00c 	add	sp, sp, #12, 0
    c658:	e8bd80f0 	pop	{r4, r5, r6, r7, pc}
    c65c:	e59f2040 	ldr	r2, [pc, #64]	; c6a4 <pi_sd_read+0x120>
    c660:	e3a03023 	mov	r3, #35, 0	; 0x23
    c664:	e59f103c 	ldr	r1, [pc, #60]	; c6a8 <pi_sd_read+0x124>
    c668:	e58d2000 	str	r2, [sp]
    c66c:	e59f0038 	ldr	r0, [pc, #56]	; c6ac <pi_sd_read+0x128>
    c670:	e59f2024 	ldr	r2, [pc, #36]	; c69c <pi_sd_read+0x118>
    c674:	eb001bad 	bl	13530 <printk>
    c678:	eb001cf1 	bl	13a44 <clean_reboot>
    c67c:	e3a03026 	mov	r3, #38, 0	; 0x26
    c680:	e59f2014 	ldr	r2, [pc, #20]	; c69c <pi_sd_read+0x118>
    c684:	e59f101c 	ldr	r1, [pc, #28]	; c6a8 <pi_sd_read+0x124>
    c688:	e58d0000 	str	r0, [sp]
    c68c:	e59f001c 	ldr	r0, [pc, #28]	; c6b0 <pi_sd_read+0x12c>
    c690:	eb001ba6 	bl	13530 <printk>
    c694:	eb001cea 	bl	13a44 <clean_reboot>
    c698:	000177a0 	.word	0x000177a0
    c69c:	0001462c 	.word	0x0001462c
    c6a0:	00014594 	.word	0x00014594
    c6a4:	00014550 	.word	0x00014550
    c6a8:	000144b8 	.word	0x000144b8
    c6ac:	00014508 	.word	0x00014508
    c6b0:	00014558 	.word	0x00014558

0000c6b4 <pi_sec_read>:
    c6b4:	e92d40f0 	push	{r4, r5, r6, r7, lr}
    c6b8:	e59f7140 	ldr	r7, [pc, #320]	; c800 <pi_sec_read+0x14c>
    c6bc:	e24dd00c 	sub	sp, sp, #12, 0
    c6c0:	e5973004 	ldr	r3, [r7, #4]
    c6c4:	e3530000 	cmp	r3, #0, 0
    c6c8:	0a000035 	beq	c7a4 <pi_sec_read+0xf0>
    c6cc:	e1a04481 	lsl	r4, r1, #9
    c6d0:	e1a06000 	mov	r6, r0
    c6d4:	e1a00004 	mov	r0, r4
    c6d8:	eb001865 	bl	12874 <kmalloc>
    c6dc:	e5973004 	ldr	r3, [r7, #4]
    c6e0:	e1a05000 	mov	r5, r0
    c6e4:	e3530000 	cmp	r3, #0, 0
    c6e8:	0a00003c 	beq	c7e0 <pi_sec_read+0x12c>
    c6ec:	e1a01000 	mov	r1, r0
    c6f0:	e1a02004 	mov	r2, r4
    c6f4:	e1a00006 	mov	r0, r6
    c6f8:	eb000d6c 	bl	fcb0 <emmc_read>
    c6fc:	e1540000 	cmp	r4, r0
    c700:	1a00002f 	bne	c7c4 <pi_sec_read+0x110>
    c704:	e5973000 	ldr	r3, [r7]
    c708:	e3530000 	cmp	r3, #0, 0
    c70c:	1a000002 	bne	c71c <pi_sec_read+0x68>
    c710:	e1a00005 	mov	r0, r5
    c714:	e28dd00c 	add	sp, sp, #12, 0
    c718:	e8bd80f0 	pop	{r4, r5, r6, r7, pc}
    c71c:	e3550000 	cmp	r5, #0, 0
    c720:	13540000 	cmpne	r4, #0, 0
    c724:	03a03000 	moveq	r3, #0, 0
    c728:	0a000016 	beq	c788 <pi_sec_read+0xd4>
    c72c:	e1b0c124 	lsrs	ip, r4, #2
    c730:	0a00000e 	beq	c770 <pi_sec_read+0xbc>
    c734:	e1a00005 	mov	r0, r5
    c738:	e085c10c 	add	ip, r5, ip, lsl #2
    c73c:	e5d01001 	ldrb	r1, [r0, #1]
    c740:	e5d02000 	ldrb	r2, [r0]
    c744:	e5d03002 	ldrb	r3, [r0, #2]
    c748:	e1822401 	orr	r2, r2, r1, lsl #8
    c74c:	e5d01003 	ldrb	r1, [r0, #3]
    c750:	e0822004 	add	r2, r2, r4
    c754:	e1834401 	orr	r4, r3, r1, lsl #8
    c758:	e0224584 	eor	r4, r2, r4, lsl #11
    c75c:	e2800004 	add	r0, r0, #4, 0
    c760:	e0244802 	eor	r4, r4, r2, lsl #16
    c764:	e15c0000 	cmp	ip, r0
    c768:	e08445a4 	add	r4, r4, r4, lsr #11
    c76c:	1afffff2 	bne	c73c <pi_sec_read+0x88>
    c770:	e0243184 	eor	r3, r4, r4, lsl #3
    c774:	e08332a3 	add	r3, r3, r3, lsr #5
    c778:	e0233203 	eor	r3, r3, r3, lsl #4
    c77c:	e08338a3 	add	r3, r3, r3, lsr #17
    c780:	e0233c83 	eor	r3, r3, r3, lsl #25
    c784:	e0833323 	add	r3, r3, r3, lsr #6
    c788:	e1a02006 	mov	r2, r6
    c78c:	e59f1070 	ldr	r1, [pc, #112]	; c804 <pi_sec_read+0x150>
    c790:	e59f0070 	ldr	r0, [pc, #112]	; c808 <pi_sec_read+0x154>
    c794:	eb001b65 	bl	13530 <printk>
    c798:	e1a00005 	mov	r0, r5
    c79c:	e28dd00c 	add	sp, sp, #12, 0
    c7a0:	e8bd80f0 	pop	{r4, r5, r6, r7, pc}
    c7a4:	e59f2060 	ldr	r2, [pc, #96]	; c80c <pi_sec_read+0x158>
    c7a8:	e3a03030 	mov	r3, #48, 0	; 0x30
    c7ac:	e59f105c 	ldr	r1, [pc, #92]	; c810 <pi_sec_read+0x15c>
    c7b0:	e58d2000 	str	r2, [sp]
    c7b4:	e59f0058 	ldr	r0, [pc, #88]	; c814 <pi_sec_read+0x160>
    c7b8:	e59f2058 	ldr	r2, [pc, #88]	; c818 <pi_sec_read+0x164>
    c7bc:	eb001b5b 	bl	13530 <printk>
    c7c0:	eb001c9f 	bl	13a44 <clean_reboot>
    c7c4:	e3a03026 	mov	r3, #38, 0	; 0x26
    c7c8:	e59f2034 	ldr	r2, [pc, #52]	; c804 <pi_sec_read+0x150>
    c7cc:	e59f103c 	ldr	r1, [pc, #60]	; c810 <pi_sec_read+0x15c>
    c7d0:	e58d0000 	str	r0, [sp]
    c7d4:	e59f0040 	ldr	r0, [pc, #64]	; c81c <pi_sec_read+0x168>
    c7d8:	eb001b54 	bl	13530 <printk>
    c7dc:	eb001c98 	bl	13a44 <clean_reboot>
    c7e0:	e59f2024 	ldr	r2, [pc, #36]	; c80c <pi_sec_read+0x158>
    c7e4:	e3a03023 	mov	r3, #35, 0	; 0x23
    c7e8:	e59f1020 	ldr	r1, [pc, #32]	; c810 <pi_sec_read+0x15c>
    c7ec:	e58d2000 	str	r2, [sp]
    c7f0:	e59f001c 	ldr	r0, [pc, #28]	; c814 <pi_sec_read+0x160>
    c7f4:	e59f2008 	ldr	r2, [pc, #8]	; c804 <pi_sec_read+0x150>
    c7f8:	eb001b4c 	bl	13530 <printk>
    c7fc:	eb001c90 	bl	13a44 <clean_reboot>
    c800:	000177a0 	.word	0x000177a0
    c804:	0001462c 	.word	0x0001462c
    c808:	00014594 	.word	0x00014594
    c80c:	00014550 	.word	0x00014550
    c810:	000144b8 	.word	0x000144b8
    c814:	00014508 	.word	0x00014508
    c818:	00014638 	.word	0x00014638
    c81c:	00014558 	.word	0x00014558

0000c820 <pi_sd_write>:
    c820:	e92d40f0 	push	{r4, r5, r6, r7, lr}
    c824:	e59f70b0 	ldr	r7, [pc, #176]	; c8dc <pi_sd_write+0xbc>
    c828:	e24dd00c 	sub	sp, sp, #12, 0
    c82c:	e5973004 	ldr	r3, [r7, #4]
    c830:	e3530000 	cmp	r3, #0, 0
    c834:	0a000020 	beq	c8bc <pi_sd_write+0x9c>
    c838:	e1a05001 	mov	r5, r1
    c83c:	e1a04482 	lsl	r4, r2, #9
    c840:	e1a01000 	mov	r1, r0
    c844:	e1a06000 	mov	r6, r0
    c848:	e1a02004 	mov	r2, r4
    c84c:	e1a00005 	mov	r0, r5
    c850:	eb000d3a 	bl	fd40 <emmc_write>
    c854:	e1500004 	cmp	r0, r4
    c858:	1a000010 	bne	c8a0 <pi_sd_write+0x80>
    c85c:	e5973000 	ldr	r3, [r7]
    c860:	e3530000 	cmp	r3, #0, 0
    c864:	1a000002 	bne	c874 <pi_sd_write+0x54>
    c868:	e3a00001 	mov	r0, #1, 0
    c86c:	e28dd00c 	add	sp, sp, #12, 0
    c870:	e8bd80f0 	pop	{r4, r5, r6, r7, pc}
    c874:	e1a01000 	mov	r1, r0
    c878:	e1a00006 	mov	r0, r6
    c87c:	eb001b27 	bl	13520 <our_crc32>
    c880:	e1a02005 	mov	r2, r5
    c884:	e1a03000 	mov	r3, r0
    c888:	e59f1050 	ldr	r1, [pc, #80]	; c8e0 <pi_sd_write+0xc0>
    c88c:	e59f0050 	ldr	r0, [pc, #80]	; c8e4 <pi_sd_write+0xc4>
    c890:	eb001b26 	bl	13530 <printk>
    c894:	e3a00001 	mov	r0, #1, 0
    c898:	e28dd00c 	add	sp, sp, #12, 0
    c89c:	e8bd80f0 	pop	{r4, r5, r6, r7, pc}
    c8a0:	e3a0303e 	mov	r3, #62, 0	; 0x3e
    c8a4:	e59f2034 	ldr	r2, [pc, #52]	; c8e0 <pi_sd_write+0xc0>
    c8a8:	e59f1038 	ldr	r1, [pc, #56]	; c8e8 <pi_sd_write+0xc8>
    c8ac:	e58d0000 	str	r0, [sp]
    c8b0:	e59f0034 	ldr	r0, [pc, #52]	; c8ec <pi_sd_write+0xcc>
    c8b4:	eb001b1d 	bl	13530 <printk>
    c8b8:	eb001c61 	bl	13a44 <clean_reboot>
    c8bc:	e59f202c 	ldr	r2, [pc, #44]	; c8f0 <pi_sd_write+0xd0>
    c8c0:	e3a0303b 	mov	r3, #59, 0	; 0x3b
    c8c4:	e59f101c 	ldr	r1, [pc, #28]	; c8e8 <pi_sd_write+0xc8>
    c8c8:	e58d2000 	str	r2, [sp]
    c8cc:	e59f0020 	ldr	r0, [pc, #32]	; c8f4 <pi_sd_write+0xd4>
    c8d0:	e59f2008 	ldr	r2, [pc, #8]	; c8e0 <pi_sd_write+0xc0>
    c8d4:	eb001b15 	bl	13530 <printk>
    c8d8:	eb001c59 	bl	13a44 <clean_reboot>
    c8dc:	000177a0 	.word	0x000177a0
    c8e0:	00014644 	.word	0x00014644
    c8e4:	000145f8 	.word	0x000145f8
    c8e8:	000144b8 	.word	0x000144b8
    c8ec:	000145bc 	.word	0x000145bc
    c8f0:	00014550 	.word	0x00014550
    c8f4:	00014508 	.word	0x00014508

0000c8f8 <pi_sec_write>:
    c8f8:	e92d40f0 	push	{r4, r5, r6, r7, lr}
    c8fc:	e59f70a0 	ldr	r7, [pc, #160]	; c9a4 <pi_sec_write+0xac>
    c900:	e24dd00c 	sub	sp, sp, #12, 0
    c904:	e5973004 	ldr	r3, [r7, #4]
    c908:	e3530000 	cmp	r3, #0, 0
    c90c:	0a00001c 	beq	c984 <pi_sec_write+0x8c>
    c910:	e1a04482 	lsl	r4, r2, #9
    c914:	e1a02004 	mov	r2, r4
    c918:	e1a05000 	mov	r5, r0
    c91c:	e1a06001 	mov	r6, r1
    c920:	eb000d06 	bl	fd40 <emmc_write>
    c924:	e1540000 	cmp	r4, r0
    c928:	1a00000e 	bne	c968 <pi_sec_write+0x70>
    c92c:	e5973000 	ldr	r3, [r7]
    c930:	e3530000 	cmp	r3, #0, 0
    c934:	1a000001 	bne	c940 <pi_sec_write+0x48>
    c938:	e28dd00c 	add	sp, sp, #12, 0
    c93c:	e8bd80f0 	pop	{r4, r5, r6, r7, pc}
    c940:	e1a01004 	mov	r1, r4
    c944:	e1a00006 	mov	r0, r6
    c948:	eb001af4 	bl	13520 <our_crc32>
    c94c:	e1a02005 	mov	r2, r5
    c950:	e1a03000 	mov	r3, r0
    c954:	e59f104c 	ldr	r1, [pc, #76]	; c9a8 <pi_sec_write+0xb0>
    c958:	e59f004c 	ldr	r0, [pc, #76]	; c9ac <pi_sec_write+0xb4>
    c95c:	e28dd00c 	add	sp, sp, #12, 0
    c960:	e8bd40f0 	pop	{r4, r5, r6, r7, lr}
    c964:	ea001af1 	b	13530 <printk>
    c968:	e3a0303e 	mov	r3, #62, 0	; 0x3e
    c96c:	e59f2034 	ldr	r2, [pc, #52]	; c9a8 <pi_sec_write+0xb0>
    c970:	e59f1038 	ldr	r1, [pc, #56]	; c9b0 <pi_sec_write+0xb8>
    c974:	e58d0000 	str	r0, [sp]
    c978:	e59f0034 	ldr	r0, [pc, #52]	; c9b4 <pi_sec_write+0xbc>
    c97c:	eb001aeb 	bl	13530 <printk>
    c980:	eb001c2f 	bl	13a44 <clean_reboot>
    c984:	e59f202c 	ldr	r2, [pc, #44]	; c9b8 <pi_sec_write+0xc0>
    c988:	e3a03046 	mov	r3, #70, 0	; 0x46
    c98c:	e59f101c 	ldr	r1, [pc, #28]	; c9b0 <pi_sec_write+0xb8>
    c990:	e58d2000 	str	r2, [sp]
    c994:	e59f0020 	ldr	r0, [pc, #32]	; c9bc <pi_sec_write+0xc4>
    c998:	e59f2020 	ldr	r2, [pc, #32]	; c9c0 <pi_sec_write+0xc8>
    c99c:	eb001ae3 	bl	13530 <printk>
    c9a0:	eb001c27 	bl	13a44 <clean_reboot>
    c9a4:	000177a0 	.word	0x000177a0
    c9a8:	00014644 	.word	0x00014644
    c9ac:	000145f8 	.word	0x000145f8
    c9b0:	000144b8 	.word	0x000144b8
    c9b4:	000145bc 	.word	0x000145bc
    c9b8:	00014550 	.word	0x00014550
    c9bc:	00014508 	.word	0x00014508
    c9c0:	00014650 	.word	0x00014650

0000c9c4 <mbr_check>:
    c9c4:	e92d4030 	push	{r4, r5, lr}
    c9c8:	e2803f7f 	add	r3, r0, #508	; 0x1fc
    c9cc:	e1d320b2 	ldrh	r2, [r3, #2]
    c9d0:	e59f30e0 	ldr	r3, [pc, #224]	; cab8 <mbr_check+0xf4>
    c9d4:	e24dd01c 	sub	sp, sp, #28, 0
    c9d8:	e1520003 	cmp	r2, r3
    c9dc:	13a03009 	movne	r3, #9, 0
    c9e0:	159f20d4 	ldrne	r2, [pc, #212]	; cabc <mbr_check+0xf8>
    c9e4:	1a00002d 	bne	caa0 <mbr_check+0xdc>
    c9e8:	e2805f6f 	add	r5, r0, #444	; 0x1bc
    c9ec:	e2855002 	add	r5, r5, #2, 0
    c9f0:	e1a04000 	mov	r4, r0
    c9f4:	e1a01005 	mov	r1, r5
    c9f8:	e3a02010 	mov	r2, #16, 0
    c9fc:	e28d0008 	add	r0, sp, #8, 0
    ca00:	eb001a58 	bl	13368 <memcpy>
    ca04:	e5dd300c 	ldrb	r3, [sp, #12]
    ca08:	e243300b 	sub	r3, r3, #11, 0
    ca0c:	e3530001 	cmp	r3, #1, 0
    ca10:	8a000020 	bhi	ca98 <mbr_check+0xd4>
    ca14:	e1a00005 	mov	r0, r5
    ca18:	e3a01010 	mov	r1, #16, 0
    ca1c:	eb001a7c 	bl	13414 <memiszero>
    ca20:	e3500000 	cmp	r0, #0, 0
    ca24:	13a03015 	movne	r3, #21, 0
    ca28:	159f2090 	ldrne	r2, [pc, #144]	; cac0 <mbr_check+0xfc>
    ca2c:	1a00001b 	bne	caa0 <mbr_check+0xdc>
    ca30:	e2840f73 	add	r0, r4, #460	; 0x1cc
    ca34:	e3a01010 	mov	r1, #16, 0
    ca38:	e2800002 	add	r0, r0, #2, 0
    ca3c:	eb001a74 	bl	13414 <memiszero>
    ca40:	e3500000 	cmp	r0, #0, 0
    ca44:	03a03016 	moveq	r3, #22, 0
    ca48:	059f2074 	ldreq	r2, [pc, #116]	; cac4 <mbr_check+0x100>
    ca4c:	0a000013 	beq	caa0 <mbr_check+0xdc>
    ca50:	e2840f77 	add	r0, r4, #476	; 0x1dc
    ca54:	e3a01010 	mov	r1, #16, 0
    ca58:	e2800002 	add	r0, r0, #2, 0
    ca5c:	eb001a6c 	bl	13414 <memiszero>
    ca60:	e3500000 	cmp	r0, #0, 0
    ca64:	03a03017 	moveq	r3, #23, 0
    ca68:	059f2058 	ldreq	r2, [pc, #88]	; cac8 <mbr_check+0x104>
    ca6c:	0a00000b 	beq	caa0 <mbr_check+0xdc>
    ca70:	e2840f7b 	add	r0, r4, #492	; 0x1ec
    ca74:	e3a01010 	mov	r1, #16, 0
    ca78:	e2800002 	add	r0, r0, #2, 0
    ca7c:	eb001a64 	bl	13414 <memiszero>
    ca80:	e3500000 	cmp	r0, #0, 0
    ca84:	03a03018 	moveq	r3, #24, 0
    ca88:	059f203c 	ldreq	r2, [pc, #60]	; cacc <mbr_check+0x108>
    ca8c:	0a000003 	beq	caa0 <mbr_check+0xdc>
    ca90:	e28dd01c 	add	sp, sp, #28, 0
    ca94:	e8bd8030 	pop	{r4, r5, pc}
    ca98:	e3a0300f 	mov	r3, #15, 0
    ca9c:	e59f202c 	ldr	r2, [pc, #44]	; cad0 <mbr_check+0x10c>
    caa0:	e59f102c 	ldr	r1, [pc, #44]	; cad4 <mbr_check+0x110>
    caa4:	e58d2000 	str	r2, [sp]
    caa8:	e59f0028 	ldr	r0, [pc, #40]	; cad8 <mbr_check+0x114>
    caac:	e59f2028 	ldr	r2, [pc, #40]	; cadc <mbr_check+0x118>
    cab0:	eb001a9e 	bl	13530 <printk>
    cab4:	eb001be2 	bl	13a44 <clean_reboot>
    cab8:	0000aa55 	.word	0x0000aa55
    cabc:	00014694 	.word	0x00014694
    cac0:	000146cc 	.word	0x000146cc
    cac4:	000146f8 	.word	0x000146f8
    cac8:	00014720 	.word	0x00014720
    cacc:	00014748 	.word	0x00014748
    cad0:	000146ac 	.word	0x000146ac
    cad4:	00014660 	.word	0x00014660
    cad8:	00013f8c 	.word	0x00013f8c
    cadc:	00014ab8 	.word	0x00014ab8

0000cae0 <mbr_get_partition>:
    cae0:	e92d4010 	push	{r4, lr}
    cae4:	e3520003 	cmp	r2, #3, 0
    cae8:	e24dd018 	sub	sp, sp, #24, 0
    caec:	8a00000d 	bhi	cb28 <mbr_get_partition+0x48>
    caf0:	e1a04000 	mov	r4, r0
    caf4:	e2811f6f 	add	r1, r1, #444	; 0x1bc
    caf8:	e2811002 	add	r1, r1, #2, 0
    cafc:	e0811202 	add	r1, r1, r2, lsl #4
    cb00:	e28d0008 	add	r0, sp, #8, 0
    cb04:	e3a02010 	mov	r2, #16, 0
    cb08:	eb001a16 	bl	13368 <memcpy>
    cb0c:	e3a02010 	mov	r2, #16, 0
    cb10:	e1a00004 	mov	r0, r4
    cb14:	e28d1008 	add	r1, sp, #8, 0
    cb18:	eb001a12 	bl	13368 <memcpy>
    cb1c:	e1a00004 	mov	r0, r4
    cb20:	e28dd018 	add	sp, sp, #24, 0
    cb24:	e8bd8010 	pop	{r4, pc}
    cb28:	e59f2018 	ldr	r2, [pc, #24]	; cb48 <mbr_get_partition+0x68>
    cb2c:	e3a0301c 	mov	r3, #28, 0
    cb30:	e59f1014 	ldr	r1, [pc, #20]	; cb4c <mbr_get_partition+0x6c>
    cb34:	e58d2000 	str	r2, [sp]
    cb38:	e59f0010 	ldr	r0, [pc, #16]	; cb50 <mbr_get_partition+0x70>
    cb3c:	e59f2010 	ldr	r2, [pc, #16]	; cb54 <mbr_get_partition+0x74>
    cb40:	eb001a7a 	bl	13530 <printk>
    cb44:	eb001bbe 	bl	13a44 <clean_reboot>
    cb48:	00014770 	.word	0x00014770
    cb4c:	00014660 	.word	0x00014660
    cb50:	00013f8c 	.word	0x00013f8c
    cb54:	00014ac4 	.word	0x00014ac4

0000cb58 <mbr_part_str>:
    cb58:	e35000fc 	cmp	r0, #252, 0	; 0xfc
    cb5c:	979ff100 	ldrls	pc, [pc, r0, lsl #2]
    cb60:	ea000100 	b	cf68 <mbr_part_str+0x410>
    cb64:	0000d06c 	.word	0x0000d06c
    cb68:	0000d07c 	.word	0x0000d07c
    cb6c:	0000cf68 	.word	0x0000cf68
    cb70:	0000cf68 	.word	0x0000cf68
    cb74:	0000d074 	.word	0x0000d074
    cb78:	0000cff4 	.word	0x0000cff4
    cb7c:	0000cfec 	.word	0x0000cfec
    cb80:	0000cfe4 	.word	0x0000cfe4
    cb84:	0000cf68 	.word	0x0000cf68
    cb88:	0000cf68 	.word	0x0000cf68
    cb8c:	0000cf68 	.word	0x0000cf68
    cb90:	0000cfdc 	.word	0x0000cfdc
    cb94:	0000cfd4 	.word	0x0000cfd4
    cb98:	0000cf68 	.word	0x0000cf68
    cb9c:	0000cfcc 	.word	0x0000cfcc
    cba0:	0000cfc4 	.word	0x0000cfc4
    cba4:	0000cf68 	.word	0x0000cf68
    cba8:	0000cfbc 	.word	0x0000cfbc
    cbac:	0000cf68 	.word	0x0000cf68
    cbb0:	0000cf68 	.word	0x0000cf68
    cbb4:	0000cfb4 	.word	0x0000cfb4
    cbb8:	0000cf68 	.word	0x0000cf68
    cbbc:	0000cfac 	.word	0x0000cfac
    cbc0:	0000cf68 	.word	0x0000cf68
    cbc4:	0000cf68 	.word	0x0000cf68
    cbc8:	0000cf68 	.word	0x0000cf68
    cbcc:	0000cf68 	.word	0x0000cf68
    cbd0:	0000cfa4 	.word	0x0000cfa4
    cbd4:	0000cf9c 	.word	0x0000cf9c
    cbd8:	0000cf68 	.word	0x0000cf68
    cbdc:	0000cf94 	.word	0x0000cf94
    cbe0:	0000cf68 	.word	0x0000cf68
    cbe4:	0000cf68 	.word	0x0000cf68
    cbe8:	0000cf68 	.word	0x0000cf68
    cbec:	0000cf68 	.word	0x0000cf68
    cbf0:	0000cf68 	.word	0x0000cf68
    cbf4:	0000cf68 	.word	0x0000cf68
    cbf8:	0000cf68 	.word	0x0000cf68
    cbfc:	0000cf68 	.word	0x0000cf68
    cc00:	0000cf68 	.word	0x0000cf68
    cc04:	0000cf68 	.word	0x0000cf68
    cc08:	0000cf68 	.word	0x0000cf68
    cc0c:	0000cf68 	.word	0x0000cf68
    cc10:	0000cf68 	.word	0x0000cf68
    cc14:	0000cf68 	.word	0x0000cf68
    cc18:	0000cf68 	.word	0x0000cf68
    cc1c:	0000cf68 	.word	0x0000cf68
    cc20:	0000cf68 	.word	0x0000cf68
    cc24:	0000cf68 	.word	0x0000cf68
    cc28:	0000cf68 	.word	0x0000cf68
    cc2c:	0000cf68 	.word	0x0000cf68
    cc30:	0000cf68 	.word	0x0000cf68
    cc34:	0000cf68 	.word	0x0000cf68
    cc38:	0000cf68 	.word	0x0000cf68
    cc3c:	0000cf68 	.word	0x0000cf68
    cc40:	0000cf68 	.word	0x0000cf68
    cc44:	0000cf68 	.word	0x0000cf68
    cc48:	0000cf68 	.word	0x0000cf68
    cc4c:	0000cf68 	.word	0x0000cf68
    cc50:	0000cf68 	.word	0x0000cf68
    cc54:	0000cf68 	.word	0x0000cf68
    cc58:	0000cf68 	.word	0x0000cf68
    cc5c:	0000cf68 	.word	0x0000cf68
    cc60:	0000cf68 	.word	0x0000cf68
    cc64:	0000cf68 	.word	0x0000cf68
    cc68:	0000cf68 	.word	0x0000cf68
    cc6c:	0000cffc 	.word	0x0000cffc
    cc70:	0000cf68 	.word	0x0000cf68
    cc74:	0000cf68 	.word	0x0000cf68
    cc78:	0000cf68 	.word	0x0000cf68
    cc7c:	0000cf68 	.word	0x0000cf68
    cc80:	0000cf68 	.word	0x0000cf68
    cc84:	0000cf68 	.word	0x0000cf68
    cc88:	0000cf68 	.word	0x0000cf68
    cc8c:	0000cf68 	.word	0x0000cf68
    cc90:	0000cf68 	.word	0x0000cf68
    cc94:	0000cf68 	.word	0x0000cf68
    cc98:	0000cf68 	.word	0x0000cf68
    cc9c:	0000cf68 	.word	0x0000cf68
    cca0:	0000cf68 	.word	0x0000cf68
    cca4:	0000cf68 	.word	0x0000cf68
    cca8:	0000cf68 	.word	0x0000cf68
    ccac:	0000cf68 	.word	0x0000cf68
    ccb0:	0000cf68 	.word	0x0000cf68
    ccb4:	0000cf68 	.word	0x0000cf68
    ccb8:	0000cf68 	.word	0x0000cf68
    ccbc:	0000cf68 	.word	0x0000cf68
    ccc0:	0000cf68 	.word	0x0000cf68
    ccc4:	0000cf68 	.word	0x0000cf68
    ccc8:	0000cf68 	.word	0x0000cf68
    cccc:	0000cf68 	.word	0x0000cf68
    ccd0:	0000cf68 	.word	0x0000cf68
    ccd4:	0000cf68 	.word	0x0000cf68
    ccd8:	0000cf68 	.word	0x0000cf68
    ccdc:	0000cf68 	.word	0x0000cf68
    cce0:	0000cf68 	.word	0x0000cf68
    cce4:	0000cf68 	.word	0x0000cf68
    cce8:	0000cf68 	.word	0x0000cf68
    ccec:	0000cf68 	.word	0x0000cf68
    ccf0:	0000cf68 	.word	0x0000cf68
    ccf4:	0000cf68 	.word	0x0000cf68
    ccf8:	0000cf68 	.word	0x0000cf68
    ccfc:	0000cf68 	.word	0x0000cf68
    cd00:	0000cf68 	.word	0x0000cf68
    cd04:	0000cf68 	.word	0x0000cf68
    cd08:	0000cf68 	.word	0x0000cf68
    cd0c:	0000cf68 	.word	0x0000cf68
    cd10:	0000cf68 	.word	0x0000cf68
    cd14:	0000cf68 	.word	0x0000cf68
    cd18:	0000cf68 	.word	0x0000cf68
    cd1c:	0000cf68 	.word	0x0000cf68
    cd20:	0000cf68 	.word	0x0000cf68
    cd24:	0000cf68 	.word	0x0000cf68
    cd28:	0000cf68 	.word	0x0000cf68
    cd2c:	0000cf68 	.word	0x0000cf68
    cd30:	0000cf68 	.word	0x0000cf68
    cd34:	0000cf68 	.word	0x0000cf68
    cd38:	0000cf68 	.word	0x0000cf68
    cd3c:	0000cf68 	.word	0x0000cf68
    cd40:	0000cf68 	.word	0x0000cf68
    cd44:	0000cf68 	.word	0x0000cf68
    cd48:	0000cf68 	.word	0x0000cf68
    cd4c:	0000cf68 	.word	0x0000cf68
    cd50:	0000cf68 	.word	0x0000cf68
    cd54:	0000cf68 	.word	0x0000cf68
    cd58:	0000cf68 	.word	0x0000cf68
    cd5c:	0000cf68 	.word	0x0000cf68
    cd60:	0000cf68 	.word	0x0000cf68
    cd64:	0000cf68 	.word	0x0000cf68
    cd68:	0000cf68 	.word	0x0000cf68
    cd6c:	0000d054 	.word	0x0000d054
    cd70:	0000d04c 	.word	0x0000d04c
    cd74:	0000cf58 	.word	0x0000cf58
    cd78:	0000d05c 	.word	0x0000d05c
    cd7c:	0000cf60 	.word	0x0000cf60
    cd80:	0000cf60 	.word	0x0000cf60
    cd84:	0000cf68 	.word	0x0000cf68
    cd88:	0000cf68 	.word	0x0000cf68
    cd8c:	0000cf68 	.word	0x0000cf68
    cd90:	0000cf68 	.word	0x0000cf68
    cd94:	0000cf68 	.word	0x0000cf68
    cd98:	0000cf68 	.word	0x0000cf68
    cd9c:	0000cf68 	.word	0x0000cf68
    cda0:	0000cf68 	.word	0x0000cf68
    cda4:	0000cf68 	.word	0x0000cf68
    cda8:	0000cf68 	.word	0x0000cf68
    cdac:	0000cf68 	.word	0x0000cf68
    cdb0:	0000cf68 	.word	0x0000cf68
    cdb4:	0000cf68 	.word	0x0000cf68
    cdb8:	0000cf68 	.word	0x0000cf68
    cdbc:	0000cf68 	.word	0x0000cf68
    cdc0:	0000cf68 	.word	0x0000cf68
    cdc4:	0000cf68 	.word	0x0000cf68
    cdc8:	0000cf68 	.word	0x0000cf68
    cdcc:	0000cf68 	.word	0x0000cf68
    cdd0:	0000cf68 	.word	0x0000cf68
    cdd4:	0000cf68 	.word	0x0000cf68
    cdd8:	0000cf68 	.word	0x0000cf68
    cddc:	0000cf68 	.word	0x0000cf68
    cde0:	0000cf68 	.word	0x0000cf68
    cde4:	0000cf58 	.word	0x0000cf58
    cde8:	0000cf58 	.word	0x0000cf58
    cdec:	0000cf68 	.word	0x0000cf68
    cdf0:	0000cf68 	.word	0x0000cf68
    cdf4:	0000cf68 	.word	0x0000cf68
    cdf8:	0000d03c 	.word	0x0000d03c
    cdfc:	0000d064 	.word	0x0000d064
    ce00:	0000cf68 	.word	0x0000cf68
    ce04:	0000cf8c 	.word	0x0000cf8c
    ce08:	0000d034 	.word	0x0000d034
    ce0c:	0000cf68 	.word	0x0000cf68
    ce10:	0000d02c 	.word	0x0000d02c
    ce14:	0000cf68 	.word	0x0000cf68
    ce18:	0000cf68 	.word	0x0000cf68
    ce1c:	0000cf68 	.word	0x0000cf68
    ce20:	0000cf68 	.word	0x0000cf68
    ce24:	0000cf68 	.word	0x0000cf68
    ce28:	0000cf68 	.word	0x0000cf68
    ce2c:	0000cf68 	.word	0x0000cf68
    ce30:	0000cf68 	.word	0x0000cf68
    ce34:	0000cf68 	.word	0x0000cf68
    ce38:	0000cf68 	.word	0x0000cf68
    ce3c:	0000cf68 	.word	0x0000cf68
    ce40:	0000d024 	.word	0x0000d024
    ce44:	0000d01c 	.word	0x0000d01c
    ce48:	0000cf68 	.word	0x0000cf68
    ce4c:	0000cf68 	.word	0x0000cf68
    ce50:	0000cf68 	.word	0x0000cf68
    ce54:	0000cf68 	.word	0x0000cf68
    ce58:	0000cf68 	.word	0x0000cf68
    ce5c:	0000cf68 	.word	0x0000cf68
    ce60:	0000cf68 	.word	0x0000cf68
    ce64:	0000cf68 	.word	0x0000cf68
    ce68:	0000cf68 	.word	0x0000cf68
    ce6c:	0000cf68 	.word	0x0000cf68
    ce70:	0000cf68 	.word	0x0000cf68
    ce74:	0000cf68 	.word	0x0000cf68
    ce78:	0000cf68 	.word	0x0000cf68
    ce7c:	0000cf68 	.word	0x0000cf68
    ce80:	0000cf68 	.word	0x0000cf68
    ce84:	0000cf68 	.word	0x0000cf68
    ce88:	0000cf68 	.word	0x0000cf68
    ce8c:	0000cf68 	.word	0x0000cf68
    ce90:	0000cf68 	.word	0x0000cf68
    ce94:	0000cf68 	.word	0x0000cf68
    ce98:	0000cf68 	.word	0x0000cf68
    ce9c:	0000cf68 	.word	0x0000cf68
    cea0:	0000cf68 	.word	0x0000cf68
    cea4:	0000cf68 	.word	0x0000cf68
    cea8:	0000cf68 	.word	0x0000cf68
    ceac:	0000cf68 	.word	0x0000cf68
    ceb0:	0000cf68 	.word	0x0000cf68
    ceb4:	0000cf68 	.word	0x0000cf68
    ceb8:	0000cf68 	.word	0x0000cf68
    cebc:	0000cf68 	.word	0x0000cf68
    cec0:	0000cf68 	.word	0x0000cf68
    cec4:	0000cf68 	.word	0x0000cf68
    cec8:	0000cf68 	.word	0x0000cf68
    cecc:	0000cf68 	.word	0x0000cf68
    ced0:	0000cf68 	.word	0x0000cf68
    ced4:	0000cf68 	.word	0x0000cf68
    ced8:	0000cf68 	.word	0x0000cf68
    cedc:	0000cf68 	.word	0x0000cf68
    cee0:	0000cf68 	.word	0x0000cf68
    cee4:	0000cf68 	.word	0x0000cf68
    cee8:	0000cf68 	.word	0x0000cf68
    ceec:	0000cf68 	.word	0x0000cf68
    cef0:	0000cf68 	.word	0x0000cf68
    cef4:	0000cf68 	.word	0x0000cf68
    cef8:	0000cf68 	.word	0x0000cf68
    cefc:	0000cf68 	.word	0x0000cf68
    cf00:	0000cf68 	.word	0x0000cf68
    cf04:	0000cf68 	.word	0x0000cf68
    cf08:	0000cf68 	.word	0x0000cf68
    cf0c:	0000cf68 	.word	0x0000cf68
    cf10:	0000cf68 	.word	0x0000cf68
    cf14:	0000cf68 	.word	0x0000cf68
    cf18:	0000cf68 	.word	0x0000cf68
    cf1c:	0000d014 	.word	0x0000d014
    cf20:	0000d00c 	.word	0x0000d00c
    cf24:	0000cf68 	.word	0x0000cf68
    cf28:	0000cf68 	.word	0x0000cf68
    cf2c:	0000cf68 	.word	0x0000cf68
    cf30:	0000cf68 	.word	0x0000cf68
    cf34:	0000cf68 	.word	0x0000cf68
    cf38:	0000cf68 	.word	0x0000cf68
    cf3c:	0000cf68 	.word	0x0000cf68
    cf40:	0000cf68 	.word	0x0000cf68
    cf44:	0000cf68 	.word	0x0000cf68
    cf48:	0000cf68 	.word	0x0000cf68
    cf4c:	0000cf68 	.word	0x0000cf68
    cf50:	0000d004 	.word	0x0000d004
    cf54:	0000d044 	.word	0x0000d044
    cf58:	e59f0124 	ldr	r0, [pc, #292]	; d084 <mbr_part_str+0x52c>
    cf5c:	e12fff1e 	bx	lr
    cf60:	e59f0120 	ldr	r0, [pc, #288]	; d088 <mbr_part_str+0x530>
    cf64:	e12fff1e 	bx	lr
    cf68:	e52de004 	push	{lr}		; (str lr, [sp, #-4]!)
    cf6c:	e24dd00c 	sub	sp, sp, #12, 0
    cf70:	e3a0304d 	mov	r3, #77, 0	; 0x4d
    cf74:	e59f2110 	ldr	r2, [pc, #272]	; d08c <mbr_part_str+0x534>
    cf78:	e59f1110 	ldr	r1, [pc, #272]	; d090 <mbr_part_str+0x538>
    cf7c:	e58d0000 	str	r0, [sp]
    cf80:	e59f010c 	ldr	r0, [pc, #268]	; d094 <mbr_part_str+0x53c>
    cf84:	eb001969 	bl	13530 <printk>
    cf88:	eb001aad 	bl	13a44 <clean_reboot>
    cf8c:	e59f0104 	ldr	r0, [pc, #260]	; d098 <mbr_part_str+0x540>
    cf90:	e12fff1e 	bx	lr
    cf94:	e59f0100 	ldr	r0, [pc, #256]	; d09c <mbr_part_str+0x544>
    cf98:	e12fff1e 	bx	lr
    cf9c:	e59f00fc 	ldr	r0, [pc, #252]	; d0a0 <mbr_part_str+0x548>
    cfa0:	e12fff1e 	bx	lr
    cfa4:	e59f00f8 	ldr	r0, [pc, #248]	; d0a4 <mbr_part_str+0x54c>
    cfa8:	e12fff1e 	bx	lr
    cfac:	e59f00f4 	ldr	r0, [pc, #244]	; d0a8 <mbr_part_str+0x550>
    cfb0:	e12fff1e 	bx	lr
    cfb4:	e59f00f0 	ldr	r0, [pc, #240]	; d0ac <mbr_part_str+0x554>
    cfb8:	e12fff1e 	bx	lr
    cfbc:	e59f00ec 	ldr	r0, [pc, #236]	; d0b0 <mbr_part_str+0x558>
    cfc0:	e12fff1e 	bx	lr
    cfc4:	e59f00e8 	ldr	r0, [pc, #232]	; d0b4 <mbr_part_str+0x55c>
    cfc8:	e12fff1e 	bx	lr
    cfcc:	e59f00e4 	ldr	r0, [pc, #228]	; d0b8 <mbr_part_str+0x560>
    cfd0:	e12fff1e 	bx	lr
    cfd4:	e59f00e0 	ldr	r0, [pc, #224]	; d0bc <mbr_part_str+0x564>
    cfd8:	e12fff1e 	bx	lr
    cfdc:	e59f00dc 	ldr	r0, [pc, #220]	; d0c0 <mbr_part_str+0x568>
    cfe0:	e12fff1e 	bx	lr
    cfe4:	e59f00d8 	ldr	r0, [pc, #216]	; d0c4 <mbr_part_str+0x56c>
    cfe8:	e12fff1e 	bx	lr
    cfec:	e59f00d4 	ldr	r0, [pc, #212]	; d0c8 <mbr_part_str+0x570>
    cff0:	e12fff1e 	bx	lr
    cff4:	e59f00d0 	ldr	r0, [pc, #208]	; d0cc <mbr_part_str+0x574>
    cff8:	e12fff1e 	bx	lr
    cffc:	e59f00cc 	ldr	r0, [pc, #204]	; d0d0 <mbr_part_str+0x578>
    d000:	e12fff1e 	bx	lr
    d004:	e59f00c8 	ldr	r0, [pc, #200]	; d0d4 <mbr_part_str+0x57c>
    d008:	e12fff1e 	bx	lr
    d00c:	e59f00c4 	ldr	r0, [pc, #196]	; d0d8 <mbr_part_str+0x580>
    d010:	e12fff1e 	bx	lr
    d014:	e59f00c0 	ldr	r0, [pc, #192]	; d0dc <mbr_part_str+0x584>
    d018:	e12fff1e 	bx	lr
    d01c:	e59f00bc 	ldr	r0, [pc, #188]	; d0e0 <mbr_part_str+0x588>
    d020:	e12fff1e 	bx	lr
    d024:	e59f00b8 	ldr	r0, [pc, #184]	; d0e4 <mbr_part_str+0x58c>
    d028:	e12fff1e 	bx	lr
    d02c:	e59f00b4 	ldr	r0, [pc, #180]	; d0e8 <mbr_part_str+0x590>
    d030:	e12fff1e 	bx	lr
    d034:	e59f00b0 	ldr	r0, [pc, #176]	; d0ec <mbr_part_str+0x594>
    d038:	e12fff1e 	bx	lr
    d03c:	e59f00ac 	ldr	r0, [pc, #172]	; d0f0 <mbr_part_str+0x598>
    d040:	e12fff1e 	bx	lr
    d044:	e59f00a8 	ldr	r0, [pc, #168]	; d0f4 <mbr_part_str+0x59c>
    d048:	e12fff1e 	bx	lr
    d04c:	e59f00a4 	ldr	r0, [pc, #164]	; d0f8 <mbr_part_str+0x5a0>
    d050:	e12fff1e 	bx	lr
    d054:	e59f00a0 	ldr	r0, [pc, #160]	; d0fc <mbr_part_str+0x5a4>
    d058:	e12fff1e 	bx	lr
    d05c:	e59f009c 	ldr	r0, [pc, #156]	; d100 <mbr_part_str+0x5a8>
    d060:	e12fff1e 	bx	lr
    d064:	e59f0098 	ldr	r0, [pc, #152]	; d104 <mbr_part_str+0x5ac>
    d068:	e12fff1e 	bx	lr
    d06c:	e59f0094 	ldr	r0, [pc, #148]	; d108 <mbr_part_str+0x5b0>
    d070:	e12fff1e 	bx	lr
    d074:	e59f0090 	ldr	r0, [pc, #144]	; d10c <mbr_part_str+0x5b4>
    d078:	e12fff1e 	bx	lr
    d07c:	e59f008c 	ldr	r0, [pc, #140]	; d110 <mbr_part_str+0x5b8>
    d080:	e12fff1e 	bx	lr
    d084:	00014920 	.word	0x00014920
    d088:	0001493c 	.word	0x0001493c
    d08c:	00014ad8 	.word	0x00014ad8
    d090:	00014660 	.word	0x00014660
    d094:	000149d0 	.word	0x000149d0
    d098:	00014990 	.word	0x00014990
    d09c:	000148bc 	.word	0x000148bc
    d0a0:	000148a8 	.word	0x000148a8
    d0a4:	00014894 	.word	0x00014894
    d0a8:	00014874 	.word	0x00014874
    d0ac:	00014854 	.word	0x00014854
    d0b0:	00014840 	.word	0x00014840
    d0b4:	00014824 	.word	0x00014824
    d0b8:	00014808 	.word	0x00014808
    d0bc:	000147fc 	.word	0x000147fc
    d0c0:	000147f0 	.word	0x000147f0
    d0c4:	000147e8 	.word	0x000147e8
    d0c8:	000147cc 	.word	0x000147cc
    d0cc:	000147b0 	.word	0x000147b0
    d0d0:	000148dc 	.word	0x000148dc
    d0d4:	0001496c 	.word	0x0001496c
    d0d8:	0001494c 	.word	0x0001494c
    d0dc:	00014788 	.word	0x00014788
    d0e0:	000149b8 	.word	0x000149b8
    d0e4:	000149b0 	.word	0x000149b0
    d0e8:	000149a0 	.word	0x000149a0
    d0ec:	00014998 	.word	0x00014998
    d0f0:	00014980 	.word	0x00014980
    d0f4:	0001477c 	.word	0x0001477c
    d0f8:	00014918 	.word	0x00014918
    d0fc:	000148fc 	.word	0x000148fc
    d100:	0001492c 	.word	0x0001492c
    d104:	00014988 	.word	0x00014988
    d108:	00014964 	.word	0x00014964
    d10c:	00014798 	.word	0x00014798
    d110:	000149c4 	.word	0x000149c4

0000d114 <mbr_partition_empty>:
    d114:	e3a01010 	mov	r1, #16, 0
    d118:	ea0018bd 	b	13414 <memiszero>

0000d11c <mbr_partition_empty_raw>:
    d11c:	e3a01010 	mov	r1, #16, 0
    d120:	ea0018bb 	b	13414 <memiszero>

0000d124 <mbr_partition_print>:
    d124:	e92d4030 	push	{r4, r5, lr}
    d128:	e1a04001 	mov	r4, r1
    d12c:	e24dd00c 	sub	sp, sp, #12, 0
    d130:	e1a01000 	mov	r1, r0
    d134:	e59f00f8 	ldr	r0, [pc, #248]	; d234 <mbr_partition_print+0x110>
    d138:	eb0018fc 	bl	13530 <printk>
    d13c:	e5d41000 	ldrb	r1, [r4]
    d140:	e59f20f0 	ldr	r2, [pc, #240]	; d238 <mbr_partition_print+0x114>
    d144:	e59f30f0 	ldr	r3, [pc, #240]	; d23c <mbr_partition_print+0x118>
    d148:	e3510000 	cmp	r1, #0, 0
    d14c:	11a01002 	movne	r1, r2
    d150:	01a01003 	moveq	r1, r3
    d154:	e59f00e4 	ldr	r0, [pc, #228]	; d240 <mbr_partition_print+0x11c>
    d158:	eb0018f4 	bl	13530 <printk>
    d15c:	e5d42002 	ldrb	r2, [r4, #2]
    d160:	e5d43001 	ldrb	r3, [r4, #1]
    d164:	e5d41003 	ldrb	r1, [r4, #3]
    d168:	e1833402 	orr	r3, r3, r2, lsl #8
    d16c:	e1831801 	orr	r1, r3, r1, lsl #16
    d170:	e59f00cc 	ldr	r0, [pc, #204]	; d244 <mbr_partition_print+0x120>
    d174:	eb0018ed 	bl	13530 <printk>
    d178:	e5d45004 	ldrb	r5, [r4, #4]
    d17c:	e1a00005 	mov	r0, r5
    d180:	ebfffe74 	bl	cb58 <mbr_part_str>
    d184:	e1a01005 	mov	r1, r5
    d188:	e1a02000 	mov	r2, r0
    d18c:	e59f00b4 	ldr	r0, [pc, #180]	; d248 <mbr_partition_print+0x124>
    d190:	eb0018e6 	bl	13530 <printk>
    d194:	e5d42006 	ldrb	r2, [r4, #6]
    d198:	e5d43005 	ldrb	r3, [r4, #5]
    d19c:	e5d41007 	ldrb	r1, [r4, #7]
    d1a0:	e1833402 	orr	r3, r3, r2, lsl #8
    d1a4:	e1831801 	orr	r1, r3, r1, lsl #16
    d1a8:	e59f009c 	ldr	r0, [pc, #156]	; d24c <mbr_partition_print+0x128>
    d1ac:	eb0018df 	bl	13530 <printk>
    d1b0:	e5d41009 	ldrb	r1, [r4, #9]
    d1b4:	e5d43008 	ldrb	r3, [r4, #8]
    d1b8:	e5d4200a 	ldrb	r2, [r4, #10]
    d1bc:	e1833401 	orr	r3, r3, r1, lsl #8
    d1c0:	e5d4100b 	ldrb	r1, [r4, #11]
    d1c4:	e1833802 	orr	r3, r3, r2, lsl #16
    d1c8:	e1831c01 	orr	r1, r3, r1, lsl #24
    d1cc:	e59f007c 	ldr	r0, [pc, #124]	; d250 <mbr_partition_print+0x12c>
    d1d0:	eb0018d6 	bl	13530 <printk>
    d1d4:	e5d4300d 	ldrb	r3, [r4, #13]
    d1d8:	e5d4100c 	ldrb	r1, [r4, #12]
    d1dc:	e5d4200e 	ldrb	r2, [r4, #14]
    d1e0:	e1811403 	orr	r1, r1, r3, lsl #8
    d1e4:	e5d4300f 	ldrb	r3, [r4, #15]
    d1e8:	e1811802 	orr	r1, r1, r2, lsl #16
    d1ec:	e1811c03 	orr	r1, r1, r3, lsl #24
    d1f0:	e59f005c 	ldr	r0, [pc, #92]	; d254 <mbr_partition_print+0x130>
    d1f4:	e1a02aa1 	lsr	r2, r1, #21
    d1f8:	eb0018cc 	bl	13530 <printk>
    d1fc:	e5d43004 	ldrb	r3, [r4, #4]
    d200:	e243300b 	sub	r3, r3, #11, 0
    d204:	e3530001 	cmp	r3, #1, 0
    d208:	8a000001 	bhi	d214 <mbr_partition_print+0xf0>
    d20c:	e28dd00c 	add	sp, sp, #12, 0
    d210:	e8bd8030 	pop	{r4, r5, pc}
    d214:	e59f203c 	ldr	r2, [pc, #60]	; d258 <mbr_partition_print+0x134>
    d218:	e3a03061 	mov	r3, #97, 0	; 0x61
    d21c:	e59f1038 	ldr	r1, [pc, #56]	; d25c <mbr_partition_print+0x138>
    d220:	e58d2000 	str	r2, [sp]
    d224:	e59f0034 	ldr	r0, [pc, #52]	; d260 <mbr_partition_print+0x13c>
    d228:	e59f2034 	ldr	r2, [pc, #52]	; d264 <mbr_partition_print+0x140>
    d22c:	eb0018bf 	bl	13530 <printk>
    d230:	eb001a03 	bl	13a44 <clean_reboot>
    d234:	00014a04 	.word	0x00014a04
    d238:	000149f4 	.word	0x000149f4
    d23c:	000149fc 	.word	0x000149fc
    d240:	00014a0c 	.word	0x00014a0c
    d244:	00014a20 	.word	0x00014a20
    d248:	00014a34 	.word	0x00014a34
    d24c:	00014a4c 	.word	0x00014a4c
    d250:	00014a60 	.word	0x00014a60
    d254:	00014a74 	.word	0x00014a74
    d258:	00014a8c 	.word	0x00014a8c
    d25c:	00014660 	.word	0x00014660
    d260:	00013f8c 	.word	0x00013f8c
    d264:	00014ae8 	.word	0x00014ae8

0000d268 <fat32_volume_id_check>:
    d268:	e52de004 	push	{lr}		; (str lr, [sp, #-4]!)
    d26c:	e5d0200c 	ldrb	r2, [r0, #12]
    d270:	e5d0300b 	ldrb	r3, [r0, #11]
    d274:	e24dd00c 	sub	sp, sp, #12, 0
    d278:	e1833402 	orr	r3, r3, r2, lsl #8
    d27c:	e3530c02 	cmp	r3, #512	; 0x200
    d280:	13a0300f 	movne	r3, #15, 0
    d284:	159f2128 	ldrne	r2, [pc, #296]	; d3b4 <fat32_volume_id_check+0x14c>
    d288:	1a000043 	bne	d39c <fat32_volume_id_check+0x134>
    d28c:	e5d03010 	ldrb	r3, [r0, #16]
    d290:	e3530002 	cmp	r3, #2, 0
    d294:	1a00003e 	bne	d394 <fat32_volume_id_check+0x12c>
    d298:	e5d031fe 	ldrb	r3, [r0, #510]	; 0x1fe
    d29c:	e5d011ff 	ldrb	r1, [r0, #511]	; 0x1ff
    d2a0:	e59f2110 	ldr	r2, [pc, #272]	; d3b8 <fat32_volume_id_check+0x150>
    d2a4:	e1833401 	orr	r3, r3, r1, lsl #8
    d2a8:	e1530002 	cmp	r3, r2
    d2ac:	13a03011 	movne	r3, #17, 0
    d2b0:	159f2104 	ldrne	r2, [pc, #260]	; d3bc <fat32_volume_id_check+0x154>
    d2b4:	1a000038 	bne	d39c <fat32_volume_id_check+0x134>
    d2b8:	e5d0300d 	ldrb	r3, [r0, #13]
    d2bc:	e2632000 	rsb	r2, r3, #0, 0
    d2c0:	e1d33002 	bics	r3, r3, r2
    d2c4:	13a03013 	movne	r3, #19, 0
    d2c8:	159f20f0 	ldrne	r2, [pc, #240]	; d3c0 <fat32_volume_id_check+0x158>
    d2cc:	1a000032 	bne	d39c <fat32_volume_id_check+0x134>
    d2d0:	e5d03011 	ldrb	r3, [r0, #17]
    d2d4:	e5d02012 	ldrb	r2, [r0, #18]
    d2d8:	e1933402 	orrs	r3, r3, r2, lsl #8
    d2dc:	13a03016 	movne	r3, #22, 0
    d2e0:	159f20dc 	ldrne	r2, [pc, #220]	; d3c4 <fat32_volume_id_check+0x15c>
    d2e4:	1a00002c 	bne	d39c <fat32_volume_id_check+0x134>
    d2e8:	e5d03013 	ldrb	r3, [r0, #19]
    d2ec:	e5d02014 	ldrb	r2, [r0, #20]
    d2f0:	e1933402 	orrs	r3, r3, r2, lsl #8
    d2f4:	13a03018 	movne	r3, #24, 0
    d2f8:	159f20c8 	ldrne	r2, [pc, #200]	; d3c8 <fat32_volume_id_check+0x160>
    d2fc:	1a000026 	bne	d39c <fat32_volume_id_check+0x134>
    d300:	e5d03016 	ldrb	r3, [r0, #22]
    d304:	e5d02017 	ldrb	r2, [r0, #23]
    d308:	e1933402 	orrs	r3, r3, r2, lsl #8
    d30c:	13a0301b 	movne	r3, #27, 0
    d310:	159f20b4 	ldrne	r2, [pc, #180]	; d3cc <fat32_volume_id_check+0x164>
    d314:	1a000020 	bne	d39c <fat32_volume_id_check+0x134>
    d318:	e5d02021 	ldrb	r2, [r0, #33]	; 0x21
    d31c:	e5d03020 	ldrb	r3, [r0, #32]
    d320:	e5d01022 	ldrb	r1, [r0, #34]	; 0x22
    d324:	e1833402 	orr	r3, r3, r2, lsl #8
    d328:	e5d02023 	ldrb	r2, [r0, #35]	; 0x23
    d32c:	e1833801 	orr	r3, r3, r1, lsl #16
    d330:	e1933c02 	orrs	r3, r3, r2, lsl #24
    d334:	03a0301c 	moveq	r3, #28, 0
    d338:	059f2090 	ldreq	r2, [pc, #144]	; d3d0 <fat32_volume_id_check+0x168>
    d33c:	0a000016 	beq	d39c <fat32_volume_id_check+0x134>
    d340:	e5d02031 	ldrb	r2, [r0, #49]	; 0x31
    d344:	e5d03030 	ldrb	r3, [r0, #48]	; 0x30
    d348:	e1833402 	orr	r3, r3, r2, lsl #8
    d34c:	e3530001 	cmp	r3, #1, 0
    d350:	13a0301f 	movne	r3, #31, 0
    d354:	159f2078 	ldrne	r2, [pc, #120]	; d3d4 <fat32_volume_id_check+0x16c>
    d358:	1a00000f 	bne	d39c <fat32_volume_id_check+0x134>
    d35c:	e5d02033 	ldrb	r2, [r0, #51]	; 0x33
    d360:	e5d03032 	ldrb	r3, [r0, #50]	; 0x32
    d364:	e1833402 	orr	r3, r3, r2, lsl #8
    d368:	e3530006 	cmp	r3, #6, 0
    d36c:	13a03020 	movne	r3, #32, 0
    d370:	159f2060 	ldrne	r2, [pc, #96]	; d3d8 <fat32_volume_id_check+0x170>
    d374:	1a000008 	bne	d39c <fat32_volume_id_check+0x134>
    d378:	e5d03042 	ldrb	r3, [r0, #66]	; 0x42
    d37c:	e3530029 	cmp	r3, #41, 0	; 0x29
    d380:	13a03021 	movne	r3, #33, 0	; 0x21
    d384:	159f2050 	ldrne	r2, [pc, #80]	; d3dc <fat32_volume_id_check+0x174>
    d388:	1a000003 	bne	d39c <fat32_volume_id_check+0x134>
    d38c:	e28dd00c 	add	sp, sp, #12, 0
    d390:	e49df004 	pop	{pc}		; (ldr pc, [sp], #4)
    d394:	e3a03010 	mov	r3, #16, 0
    d398:	e59f2040 	ldr	r2, [pc, #64]	; d3e0 <fat32_volume_id_check+0x178>
    d39c:	e59f1040 	ldr	r1, [pc, #64]	; d3e4 <fat32_volume_id_check+0x17c>
    d3a0:	e58d2000 	str	r2, [sp]
    d3a4:	e59f003c 	ldr	r0, [pc, #60]	; d3e8 <fat32_volume_id_check+0x180>
    d3a8:	e59f203c 	ldr	r2, [pc, #60]	; d3ec <fat32_volume_id_check+0x184>
    d3ac:	eb00185f 	bl	13530 <printk>
    d3b0:	eb0019a3 	bl	13a44 <clean_reboot>
    d3b4:	00014b34 	.word	0x00014b34
    d3b8:	0000aa55 	.word	0x0000aa55
    d3bc:	00014b5c 	.word	0x00014b5c
    d3c0:	00014b70 	.word	0x00014b70
    d3c4:	00014b8c 	.word	0x00014b8c
    d3c8:	00014b9c 	.word	0x00014b9c
    d3cc:	00014bac 	.word	0x00014bac
    d3d0:	00014bbc 	.word	0x00014bbc
    d3d4:	00014bd0 	.word	0x00014bd0
    d3d8:	00014be8 	.word	0x00014be8
    d3dc:	00014c00 	.word	0x00014c00
    d3e0:	00014b4c 	.word	0x00014b4c
    d3e4:	00014afc 	.word	0x00014afc
    d3e8:	00013f8c 	.word	0x00013f8c
    d3ec:	00015268 	.word	0x00015268

0000d3f0 <fat32_volume_id_print>:
    d3f0:	e92d4030 	push	{r4, r5, lr}
    d3f4:	e1a04001 	mov	r4, r1
    d3f8:	e3a05000 	mov	r5, #0, 0
    d3fc:	e24dd02c 	sub	sp, sp, #44, 0	; 0x2c
    d400:	e1a01000 	mov	r1, r0
    d404:	e59f023c 	ldr	r0, [pc, #572]	; d648 <fat32_volume_id_print+0x258>
    d408:	eb001848 	bl	13530 <printk>
    d40c:	e2841003 	add	r1, r4, #3, 0
    d410:	e3a02008 	mov	r2, #8, 0
    d414:	e28d0010 	add	r0, sp, #16, 0
    d418:	eb0017d2 	bl	13368 <memcpy>
    d41c:	e2841047 	add	r1, r4, #71, 0	; 0x47
    d420:	e3a0200b 	mov	r2, #11, 0
    d424:	e28d001c 	add	r0, sp, #28, 0
    d428:	e5cd5018 	strb	r5, [sp, #24]
    d42c:	eb0017cd 	bl	13368 <memcpy>
    d430:	e3a02008 	mov	r2, #8, 0
    d434:	e2841052 	add	r1, r4, #82, 0	; 0x52
    d438:	e28d0004 	add	r0, sp, #4, 0
    d43c:	e5cd501b 	strb	r5, [sp, #27]
    d440:	eb0017c8 	bl	13368 <memcpy>
    d444:	e28d1010 	add	r1, sp, #16, 0
    d448:	e59f01fc 	ldr	r0, [pc, #508]	; d64c <fat32_volume_id_print+0x25c>
    d44c:	e5cd500c 	strb	r5, [sp, #12]
    d450:	eb001836 	bl	13530 <printk>
    d454:	e5d4300b 	ldrb	r3, [r4, #11]
    d458:	e5d4100c 	ldrb	r1, [r4, #12]
    d45c:	e59f01ec 	ldr	r0, [pc, #492]	; d650 <fat32_volume_id_print+0x260>
    d460:	e1831401 	orr	r1, r3, r1, lsl #8
    d464:	eb001831 	bl	13530 <printk>
    d468:	e5d4100d 	ldrb	r1, [r4, #13]
    d46c:	e59f01e0 	ldr	r0, [pc, #480]	; d654 <fat32_volume_id_print+0x264>
    d470:	eb00182e 	bl	13530 <printk>
    d474:	e5d4300e 	ldrb	r3, [r4, #14]
    d478:	e5d4100f 	ldrb	r1, [r4, #15]
    d47c:	e59f01d4 	ldr	r0, [pc, #468]	; d658 <fat32_volume_id_print+0x268>
    d480:	e1831401 	orr	r1, r3, r1, lsl #8
    d484:	eb001829 	bl	13530 <printk>
    d488:	e5d41010 	ldrb	r1, [r4, #16]
    d48c:	e59f01c8 	ldr	r0, [pc, #456]	; d65c <fat32_volume_id_print+0x26c>
    d490:	eb001826 	bl	13530 <printk>
    d494:	e5d43011 	ldrb	r3, [r4, #17]
    d498:	e5d41012 	ldrb	r1, [r4, #18]
    d49c:	e59f01bc 	ldr	r0, [pc, #444]	; d660 <fat32_volume_id_print+0x270>
    d4a0:	e1831401 	orr	r1, r3, r1, lsl #8
    d4a4:	eb001821 	bl	13530 <printk>
    d4a8:	e5d43013 	ldrb	r3, [r4, #19]
    d4ac:	e5d41014 	ldrb	r1, [r4, #20]
    d4b0:	e59f01ac 	ldr	r0, [pc, #428]	; d664 <fat32_volume_id_print+0x274>
    d4b4:	e1831401 	orr	r1, r3, r1, lsl #8
    d4b8:	eb00181c 	bl	13530 <printk>
    d4bc:	e5d41015 	ldrb	r1, [r4, #21]
    d4c0:	e59f01a0 	ldr	r0, [pc, #416]	; d668 <fat32_volume_id_print+0x278>
    d4c4:	eb001819 	bl	13530 <printk>
    d4c8:	e5d43018 	ldrb	r3, [r4, #24]
    d4cc:	e5d41019 	ldrb	r1, [r4, #25]
    d4d0:	e59f0194 	ldr	r0, [pc, #404]	; d66c <fat32_volume_id_print+0x27c>
    d4d4:	e1831401 	orr	r1, r3, r1, lsl #8
    d4d8:	eb001814 	bl	13530 <printk>
    d4dc:	e5d4301a 	ldrb	r3, [r4, #26]
    d4e0:	e5d4101b 	ldrb	r1, [r4, #27]
    d4e4:	e59f0184 	ldr	r0, [pc, #388]	; d670 <fat32_volume_id_print+0x280>
    d4e8:	e1831401 	orr	r1, r3, r1, lsl #8
    d4ec:	eb00180f 	bl	13530 <printk>
    d4f0:	e5d4101d 	ldrb	r1, [r4, #29]
    d4f4:	e5d4301c 	ldrb	r3, [r4, #28]
    d4f8:	e5d4201e 	ldrb	r2, [r4, #30]
    d4fc:	e1833401 	orr	r3, r3, r1, lsl #8
    d500:	e5d4101f 	ldrb	r1, [r4, #31]
    d504:	e1833802 	orr	r3, r3, r2, lsl #16
    d508:	e1831c01 	orr	r1, r3, r1, lsl #24
    d50c:	e59f0160 	ldr	r0, [pc, #352]	; d674 <fat32_volume_id_print+0x284>
    d510:	eb001806 	bl	13530 <printk>
    d514:	e5d41021 	ldrb	r1, [r4, #33]	; 0x21
    d518:	e5d43020 	ldrb	r3, [r4, #32]
    d51c:	e5d42022 	ldrb	r2, [r4, #34]	; 0x22
    d520:	e1833401 	orr	r3, r3, r1, lsl #8
    d524:	e5d41023 	ldrb	r1, [r4, #35]	; 0x23
    d528:	e1833802 	orr	r3, r3, r2, lsl #16
    d52c:	e1831c01 	orr	r1, r3, r1, lsl #24
    d530:	e59f0140 	ldr	r0, [pc, #320]	; d678 <fat32_volume_id_print+0x288>
    d534:	eb0017fd 	bl	13530 <printk>
    d538:	e5d41025 	ldrb	r1, [r4, #37]	; 0x25
    d53c:	e5d43024 	ldrb	r3, [r4, #36]	; 0x24
    d540:	e5d42026 	ldrb	r2, [r4, #38]	; 0x26
    d544:	e1833401 	orr	r3, r3, r1, lsl #8
    d548:	e5d41027 	ldrb	r1, [r4, #39]	; 0x27
    d54c:	e1833802 	orr	r3, r3, r2, lsl #16
    d550:	e1831c01 	orr	r1, r3, r1, lsl #24
    d554:	e59f0120 	ldr	r0, [pc, #288]	; d67c <fat32_volume_id_print+0x28c>
    d558:	eb0017f4 	bl	13530 <printk>
    d55c:	e5d43028 	ldrb	r3, [r4, #40]	; 0x28
    d560:	e5d41029 	ldrb	r1, [r4, #41]	; 0x29
    d564:	e59f0114 	ldr	r0, [pc, #276]	; d680 <fat32_volume_id_print+0x290>
    d568:	e1831401 	orr	r1, r3, r1, lsl #8
    d56c:	eb0017ef 	bl	13530 <printk>
    d570:	e5d4302a 	ldrb	r3, [r4, #42]	; 0x2a
    d574:	e5d4102b 	ldrb	r1, [r4, #43]	; 0x2b
    d578:	e59f0104 	ldr	r0, [pc, #260]	; d684 <fat32_volume_id_print+0x294>
    d57c:	e1831401 	orr	r1, r3, r1, lsl #8
    d580:	eb0017ea 	bl	13530 <printk>
    d584:	e5d4102d 	ldrb	r1, [r4, #45]	; 0x2d
    d588:	e5d4302c 	ldrb	r3, [r4, #44]	; 0x2c
    d58c:	e5d4202e 	ldrb	r2, [r4, #46]	; 0x2e
    d590:	e1833401 	orr	r3, r3, r1, lsl #8
    d594:	e5d4102f 	ldrb	r1, [r4, #47]	; 0x2f
    d598:	e1833802 	orr	r3, r3, r2, lsl #16
    d59c:	e1831c01 	orr	r1, r3, r1, lsl #24
    d5a0:	e59f00e0 	ldr	r0, [pc, #224]	; d688 <fat32_volume_id_print+0x298>
    d5a4:	eb0017e1 	bl	13530 <printk>
    d5a8:	e5d43030 	ldrb	r3, [r4, #48]	; 0x30
    d5ac:	e5d41031 	ldrb	r1, [r4, #49]	; 0x31
    d5b0:	e59f00d4 	ldr	r0, [pc, #212]	; d68c <fat32_volume_id_print+0x29c>
    d5b4:	e1831401 	orr	r1, r3, r1, lsl #8
    d5b8:	eb0017dc 	bl	13530 <printk>
    d5bc:	e5d43032 	ldrb	r3, [r4, #50]	; 0x32
    d5c0:	e5d41033 	ldrb	r1, [r4, #51]	; 0x33
    d5c4:	e59f00c4 	ldr	r0, [pc, #196]	; d690 <fat32_volume_id_print+0x2a0>
    d5c8:	e1831401 	orr	r1, r3, r1, lsl #8
    d5cc:	eb0017d7 	bl	13530 <printk>
    d5d0:	e5d41040 	ldrb	r1, [r4, #64]	; 0x40
    d5d4:	e59f00b8 	ldr	r0, [pc, #184]	; d694 <fat32_volume_id_print+0x2a4>
    d5d8:	eb0017d4 	bl	13530 <printk>
    d5dc:	e5d41042 	ldrb	r1, [r4, #66]	; 0x42
    d5e0:	e59f00b0 	ldr	r0, [pc, #176]	; d698 <fat32_volume_id_print+0x2a8>
    d5e4:	eb0017d1 	bl	13530 <printk>
    d5e8:	e5d41044 	ldrb	r1, [r4, #68]	; 0x44
    d5ec:	e5d43043 	ldrb	r3, [r4, #67]	; 0x43
    d5f0:	e5d42045 	ldrb	r2, [r4, #69]	; 0x45
    d5f4:	e1833401 	orr	r3, r3, r1, lsl #8
    d5f8:	e5d41046 	ldrb	r1, [r4, #70]	; 0x46
    d5fc:	e1833802 	orr	r3, r3, r2, lsl #16
    d600:	e1831c01 	orr	r1, r3, r1, lsl #24
    d604:	e59f0090 	ldr	r0, [pc, #144]	; d69c <fat32_volume_id_print+0x2ac>
    d608:	eb0017c8 	bl	13530 <printk>
    d60c:	e28d101c 	add	r1, sp, #28, 0
    d610:	e59f0088 	ldr	r0, [pc, #136]	; d6a0 <fat32_volume_id_print+0x2b0>
    d614:	eb0017c5 	bl	13530 <printk>
    d618:	e28d1004 	add	r1, sp, #4, 0
    d61c:	e59f0080 	ldr	r0, [pc, #128]	; d6a4 <fat32_volume_id_print+0x2b4>
    d620:	eb0017c2 	bl	13530 <printk>
    d624:	e5d431fe 	ldrb	r3, [r4, #510]	; 0x1fe
    d628:	e5d411ff 	ldrb	r1, [r4, #511]	; 0x1ff
    d62c:	e59f0074 	ldr	r0, [pc, #116]	; d6a8 <fat32_volume_id_print+0x2b8>
    d630:	e1831401 	orr	r1, r3, r1, lsl #8
    d634:	eb0017bd 	bl	13530 <printk>
    d638:	e1a00004 	mov	r0, r4
    d63c:	ebffff09 	bl	d268 <fat32_volume_id_check>
    d640:	e28dd02c 	add	sp, sp, #44, 0	; 0x2c
    d644:	e8bd8030 	pop	{r4, r5, pc}
    d648:	00014a04 	.word	0x00014a04
    d64c:	00014c18 	.word	0x00014c18
    d650:	00014c34 	.word	0x00014c34
    d654:	00014c50 	.word	0x00014c50
    d658:	00014c6c 	.word	0x00014c6c
    d65c:	00014c88 	.word	0x00014c88
    d660:	00014ca4 	.word	0x00014ca4
    d664:	00014cc0 	.word	0x00014cc0
    d668:	00014cdc 	.word	0x00014cdc
    d66c:	00014cf8 	.word	0x00014cf8
    d670:	00014d14 	.word	0x00014d14
    d674:	00014d30 	.word	0x00014d30
    d678:	00014d4c 	.word	0x00014d4c
    d67c:	00014d68 	.word	0x00014d68
    d680:	00014d84 	.word	0x00014d84
    d684:	00014da0 	.word	0x00014da0
    d688:	00014dbc 	.word	0x00014dbc
    d68c:	00014dd8 	.word	0x00014dd8
    d690:	00014df4 	.word	0x00014df4
    d694:	00014e10 	.word	0x00014e10
    d698:	00014e2c 	.word	0x00014e2c
    d69c:	00014e48 	.word	0x00014e48
    d6a0:	00014e64 	.word	0x00014e64
    d6a4:	00014e80 	.word	0x00014e80
    d6a8:	00014e9c 	.word	0x00014e9c

0000d6ac <fat32_fsinfo_print>:
    d6ac:	e92d4010 	push	{r4, lr}
    d6b0:	e1a04001 	mov	r4, r1
    d6b4:	e1a01000 	mov	r1, r0
    d6b8:	e59f0040 	ldr	r0, [pc, #64]	; d700 <fat32_fsinfo_print+0x54>
    d6bc:	eb00179b 	bl	13530 <printk>
    d6c0:	e5941000 	ldr	r1, [r4]
    d6c4:	e59f0038 	ldr	r0, [pc, #56]	; d704 <fat32_fsinfo_print+0x58>
    d6c8:	eb001798 	bl	13530 <printk>
    d6cc:	e59411e4 	ldr	r1, [r4, #484]	; 0x1e4
    d6d0:	e59f0030 	ldr	r0, [pc, #48]	; d708 <fat32_fsinfo_print+0x5c>
    d6d4:	eb001795 	bl	13530 <printk>
    d6d8:	e59411fc 	ldr	r1, [r4, #508]	; 0x1fc
    d6dc:	e59f0028 	ldr	r0, [pc, #40]	; d70c <fat32_fsinfo_print+0x60>
    d6e0:	eb001792 	bl	13530 <printk>
    d6e4:	e59411e8 	ldr	r1, [r4, #488]	; 0x1e8
    d6e8:	e59f0020 	ldr	r0, [pc, #32]	; d710 <fat32_fsinfo_print+0x64>
    d6ec:	eb00178f 	bl	13530 <printk>
    d6f0:	e59411ec 	ldr	r1, [r4, #492]	; 0x1ec
    d6f4:	e59f0018 	ldr	r0, [pc, #24]	; d714 <fat32_fsinfo_print+0x68>
    d6f8:	e8bd4010 	pop	{r4, lr}
    d6fc:	ea00178b 	b	13530 <printk>
    d700:	00014a04 	.word	0x00014a04
    d704:	00014eb8 	.word	0x00014eb8
    d708:	00014ed4 	.word	0x00014ed4
    d70c:	00014ef0 	.word	0x00014ef0
    d710:	00014f0c 	.word	0x00014f0c
    d714:	00014f28 	.word	0x00014f28

0000d718 <fat32_fsinfo_check>:
    d718:	e52de004 	push	{lr}		; (str lr, [sp, #-4]!)
    d71c:	e59f3064 	ldr	r3, [pc, #100]	; d788 <fat32_fsinfo_check+0x70>
    d720:	e5902000 	ldr	r2, [r0]
    d724:	e24dd00c 	sub	sp, sp, #12, 0
    d728:	e1520003 	cmp	r2, r3
    d72c:	13a03058 	movne	r3, #88, 0	; 0x58
    d730:	159f2054 	ldrne	r2, [pc, #84]	; d78c <fat32_fsinfo_check+0x74>
    d734:	1a00000d 	bne	d770 <fat32_fsinfo_check+0x58>
    d738:	e59f3050 	ldr	r3, [pc, #80]	; d790 <fat32_fsinfo_check+0x78>
    d73c:	e59021e4 	ldr	r2, [r0, #484]	; 0x1e4
    d740:	e1520003 	cmp	r2, r3
    d744:	1a000007 	bne	d768 <fat32_fsinfo_check+0x50>
    d748:	e59021fc 	ldr	r2, [r0, #508]	; 0x1fc
    d74c:	e59f3040 	ldr	r3, [pc, #64]	; d794 <fat32_fsinfo_check+0x7c>
    d750:	e1520003 	cmp	r2, r3
    d754:	13a0305a 	movne	r3, #90, 0	; 0x5a
    d758:	159f2038 	ldrne	r2, [pc, #56]	; d798 <fat32_fsinfo_check+0x80>
    d75c:	1a000003 	bne	d770 <fat32_fsinfo_check+0x58>
    d760:	e28dd00c 	add	sp, sp, #12, 0
    d764:	e49df004 	pop	{pc}		; (ldr pc, [sp], #4)
    d768:	e3a03059 	mov	r3, #89, 0	; 0x59
    d76c:	e59f2028 	ldr	r2, [pc, #40]	; d79c <fat32_fsinfo_check+0x84>
    d770:	e59f1028 	ldr	r1, [pc, #40]	; d7a0 <fat32_fsinfo_check+0x88>
    d774:	e58d2000 	str	r2, [sp]
    d778:	e59f0024 	ldr	r0, [pc, #36]	; d7a4 <fat32_fsinfo_check+0x8c>
    d77c:	e59f2024 	ldr	r2, [pc, #36]	; d7a8 <fat32_fsinfo_check+0x90>
    d780:	eb00176a 	bl	13530 <printk>
    d784:	eb0018ae 	bl	13a44 <clean_reboot>
    d788:	41615252 	.word	0x41615252
    d78c:	00014f44 	.word	0x00014f44
    d790:	61417272 	.word	0x61417272
    d794:	aa550000 	.word	0xaa550000
    d798:	00014f7c 	.word	0x00014f7c
    d79c:	00014f60 	.word	0x00014f60
    d7a0:	00014afc 	.word	0x00014afc
    d7a4:	00013f8c 	.word	0x00013f8c
    d7a8:	00015280 	.word	0x00015280

0000d7ac <fat32_fat_entry_type_str>:
    d7ac:	e370029f 	cmn	r0, #-268435447	; 0xf0000009
    d7b0:	0a000010 	beq	d7f8 <fat32_fat_entry_type_str+0x4c>
    d7b4:	8a000005 	bhi	d7d0 <fat32_fat_entry_type_str+0x24>
    d7b8:	e3500000 	cmp	r0, #0, 0
    d7bc:	0a000009 	beq	d7e8 <fat32_fat_entry_type_str+0x3c>
    d7c0:	e3500001 	cmp	r0, #1, 0
    d7c4:	1a00000d 	bne	d800 <fat32_fat_entry_type_str+0x54>
    d7c8:	e59f0054 	ldr	r0, [pc, #84]	; d824 <fat32_fat_entry_type_str+0x78>
    d7cc:	e12fff1e 	bx	lr
    d7d0:	e370028f 	cmn	r0, #-268435448	; 0xf0000008
    d7d4:	0a000005 	beq	d7f0 <fat32_fat_entry_type_str+0x44>
    d7d8:	e370027f 	cmn	r0, #-268435449	; 0xf0000007
    d7dc:	1a000007 	bne	d800 <fat32_fat_entry_type_str+0x54>
    d7e0:	e59f0040 	ldr	r0, [pc, #64]	; d828 <fat32_fat_entry_type_str+0x7c>
    d7e4:	e12fff1e 	bx	lr
    d7e8:	e59f003c 	ldr	r0, [pc, #60]	; d82c <fat32_fat_entry_type_str+0x80>
    d7ec:	e12fff1e 	bx	lr
    d7f0:	e59f0038 	ldr	r0, [pc, #56]	; d830 <fat32_fat_entry_type_str+0x84>
    d7f4:	e12fff1e 	bx	lr
    d7f8:	e59f0034 	ldr	r0, [pc, #52]	; d834 <fat32_fat_entry_type_str+0x88>
    d7fc:	e12fff1e 	bx	lr
    d800:	e52de004 	push	{lr}		; (str lr, [sp, #-4]!)
    d804:	e24dd00c 	sub	sp, sp, #12, 0
    d808:	e3a03068 	mov	r3, #104, 0	; 0x68
    d80c:	e59f2024 	ldr	r2, [pc, #36]	; d838 <fat32_fat_entry_type_str+0x8c>
    d810:	e59f1024 	ldr	r1, [pc, #36]	; d83c <fat32_fat_entry_type_str+0x90>
    d814:	e58d0000 	str	r0, [sp]
    d818:	e59f0020 	ldr	r0, [pc, #32]	; d840 <fat32_fat_entry_type_str+0x94>
    d81c:	eb001743 	bl	13530 <printk>
    d820:	eb001887 	bl	13a44 <clean_reboot>
    d824:	00014fc4 	.word	0x00014fc4
    d828:	00014fd8 	.word	0x00014fd8
    d82c:	00014fa8 	.word	0x00014fa8
    d830:	00014f98 	.word	0x00014f98
    d834:	00014fb8 	.word	0x00014fb8
    d838:	00015294 	.word	0x00015294
    d83c:	00014afc 	.word	0x00014afc
    d840:	00014fe8 	.word	0x00014fe8

0000d844 <fat32_fat_entry_type>:
    d844:	e3d0321f 	bics	r3, r0, #-268435455	; 0xf0000001
    d848:	e3c0020f 	bic	r0, r0, #-268435456	; 0xf0000000
    d84c:	012fff1e 	bxeq	lr
    d850:	e370029f 	cmn	r0, #-268435447	; 0xf0000009
    d854:	012fff1e 	bxeq	lr
    d858:	e59f307c 	ldr	r3, [pc, #124]	; d8dc <fat32_fat_entry_type+0x98>
    d85c:	e2402002 	sub	r2, r0, #2, 0
    d860:	e1520003 	cmp	r2, r3
    d864:	9a00000b 	bls	d898 <fat32_fat_entry_type+0x54>
    d868:	e52de004 	push	{lr}		; (str lr, [sp, #-4]!)
    d86c:	e280320f 	add	r3, r0, #-268435456	; 0xf0000000
    d870:	e2833010 	add	r3, r3, #16, 0
    d874:	e3530006 	cmp	r3, #6, 0
    d878:	e24dd00c 	sub	sp, sp, #12, 0
    d87c:	9a00000f 	bls	d8c0 <fat32_fat_entry_type+0x7c>
    d880:	e280028f 	add	r0, r0, #-268435448	; 0xf0000008
    d884:	e3500007 	cmp	r0, #7, 0
    d888:	8a000004 	bhi	d8a0 <fat32_fat_entry_type+0x5c>
    d88c:	e3e0027f 	mvn	r0, #-268435449	; 0xf0000007
    d890:	e28dd00c 	add	sp, sp, #12, 0
    d894:	e49df004 	pop	{pc}		; (ldr pc, [sp], #4)
    d898:	e3e0026f 	mvn	r0, #-268435450	; 0xf0000006
    d89c:	e12fff1e 	bx	lr
    d8a0:	e3e0228f 	mvn	r2, #-268435448	; 0xf0000008
    d8a4:	e3a0307b 	mov	r3, #123, 0	; 0x7b
    d8a8:	e59f1030 	ldr	r1, [pc, #48]	; d8e0 <fat32_fat_entry_type+0x9c>
    d8ac:	e58d2000 	str	r2, [sp]
    d8b0:	e59f002c 	ldr	r0, [pc, #44]	; d8e4 <fat32_fat_entry_type+0xa0>
    d8b4:	e59f202c 	ldr	r2, [pc, #44]	; d8e8 <fat32_fat_entry_type+0xa4>
    d8b8:	eb00171c 	bl	13530 <printk>
    d8bc:	eb001860 	bl	13a44 <clean_reboot>
    d8c0:	e3a03078 	mov	r3, #120, 0	; 0x78
    d8c4:	e59f201c 	ldr	r2, [pc, #28]	; d8e8 <fat32_fat_entry_type+0xa4>
    d8c8:	e59f1010 	ldr	r1, [pc, #16]	; d8e0 <fat32_fat_entry_type+0x9c>
    d8cc:	e58d0000 	str	r0, [sp]
    d8d0:	e59f0014 	ldr	r0, [pc, #20]	; d8ec <fat32_fat_entry_type+0xa8>
    d8d4:	eb001715 	bl	13530 <printk>
    d8d8:	eb001859 	bl	13a44 <clean_reboot>
    d8dc:	0fffffed 	.word	0x0fffffed
    d8e0:	00014afc 	.word	0x00014afc
    d8e4:	0001502c 	.word	0x0001502c
    d8e8:	000152b0 	.word	0x000152b0
    d8ec:	00015008 	.word	0x00015008

0000d8f0 <fat32_dirent_free>:
    d8f0:	e5d0200b 	ldrb	r2, [r0, #11]
    d8f4:	e5d03000 	ldrb	r3, [r0]
    d8f8:	e352000f 	cmp	r2, #15, 0
    d8fc:	0a000005 	beq	d918 <fat32_dirent_free+0x28>
    d900:	e24300e5 	sub	r0, r3, #229, 0	; 0xe5
    d904:	e16f0f10 	clz	r0, r0
    d908:	e3530000 	cmp	r3, #0, 0
    d90c:	e1a002a0 	lsr	r0, r0, #5
    d910:	03a00001 	moveq	r0, #1, 0
    d914:	e12fff1e 	bx	lr
    d918:	ea0002f6 	b	e4f8 <fat32_dirent_is_deleted_lfn>

0000d91c <fat32_dir_attr_str>:
    d91c:	e350000f 	cmp	r0, #15, 0
    d920:	0a000033 	beq	d9f4 <fat32_dir_attr_str+0xd8>
    d924:	e92d4010 	push	{r4, lr}
    d928:	e1a04000 	mov	r4, r0
    d92c:	e3a03000 	mov	r3, #0, 0
    d930:	e59f0140 	ldr	r0, [pc, #320]	; da78 <fat32_dir_attr_str+0x15c>
    d934:	e3140001 	tst	r4, #1, 0
    d938:	e24dd008 	sub	sp, sp, #8, 0
    d93c:	e5c03000 	strb	r3, [r0]
    d940:	1a000027 	bne	d9e4 <fat32_dir_attr_str+0xc8>
    d944:	e3140002 	tst	r4, #2, 0
    d948:	1a000020 	bne	d9d0 <fat32_dir_attr_str+0xb4>
    d94c:	e2443004 	sub	r3, r4, #4, 0
    d950:	e353001c 	cmp	r3, #28, 0
    d954:	979ff103 	ldrls	pc, [pc, r3, lsl #2]
    d958:	ea00003f 	b	da5c <fat32_dir_attr_str+0x140>
    d95c:	0000d9fc 	.word	0x0000d9fc
    d960:	0000da5c 	.word	0x0000da5c
    d964:	0000da5c 	.word	0x0000da5c
    d968:	0000da5c 	.word	0x0000da5c
    d96c:	0000da14 	.word	0x0000da14
    d970:	0000da5c 	.word	0x0000da5c
    d974:	0000da5c 	.word	0x0000da5c
    d978:	0000da5c 	.word	0x0000da5c
    d97c:	0000da5c 	.word	0x0000da5c
    d980:	0000da5c 	.word	0x0000da5c
    d984:	0000da5c 	.word	0x0000da5c
    d988:	0000da5c 	.word	0x0000da5c
    d98c:	0000da2c 	.word	0x0000da2c
    d990:	0000da5c 	.word	0x0000da5c
    d994:	0000da5c 	.word	0x0000da5c
    d998:	0000da5c 	.word	0x0000da5c
    d99c:	0000da5c 	.word	0x0000da5c
    d9a0:	0000da5c 	.word	0x0000da5c
    d9a4:	0000da5c 	.word	0x0000da5c
    d9a8:	0000da5c 	.word	0x0000da5c
    d9ac:	0000da5c 	.word	0x0000da5c
    d9b0:	0000da5c 	.word	0x0000da5c
    d9b4:	0000da5c 	.word	0x0000da5c
    d9b8:	0000da5c 	.word	0x0000da5c
    d9bc:	0000da5c 	.word	0x0000da5c
    d9c0:	0000da5c 	.word	0x0000da5c
    d9c4:	0000da5c 	.word	0x0000da5c
    d9c8:	0000da5c 	.word	0x0000da5c
    d9cc:	0000da44 	.word	0x0000da44
    d9d0:	e59f10a4 	ldr	r1, [pc, #164]	; da7c <fat32_dir_attr_str+0x160>
    d9d4:	e59f009c 	ldr	r0, [pc, #156]	; da78 <fat32_dir_attr_str+0x15c>
    d9d8:	eb0017e7 	bl	1397c <strcat>
    d9dc:	e3c44002 	bic	r4, r4, #2, 0
    d9e0:	eaffffd9 	b	d94c <fat32_dir_attr_str+0x30>
    d9e4:	e59f1094 	ldr	r1, [pc, #148]	; da80 <fat32_dir_attr_str+0x164>
    d9e8:	eb0017e3 	bl	1397c <strcat>
    d9ec:	e3c44001 	bic	r4, r4, #1, 0
    d9f0:	eaffffd3 	b	d944 <fat32_dir_attr_str+0x28>
    d9f4:	e59f0088 	ldr	r0, [pc, #136]	; da84 <fat32_dir_attr_str+0x168>
    d9f8:	e12fff1e 	bx	lr
    d9fc:	e59f1084 	ldr	r1, [pc, #132]	; da88 <fat32_dir_attr_str+0x16c>
    da00:	e59f0070 	ldr	r0, [pc, #112]	; da78 <fat32_dir_attr_str+0x15c>
    da04:	eb0017dc 	bl	1397c <strcat>
    da08:	e59f0068 	ldr	r0, [pc, #104]	; da78 <fat32_dir_attr_str+0x15c>
    da0c:	e28dd008 	add	sp, sp, #8, 0
    da10:	e8bd8010 	pop	{r4, pc}
    da14:	e59f1070 	ldr	r1, [pc, #112]	; da8c <fat32_dir_attr_str+0x170>
    da18:	e59f0058 	ldr	r0, [pc, #88]	; da78 <fat32_dir_attr_str+0x15c>
    da1c:	eb0017d6 	bl	1397c <strcat>
    da20:	e59f0050 	ldr	r0, [pc, #80]	; da78 <fat32_dir_attr_str+0x15c>
    da24:	e28dd008 	add	sp, sp, #8, 0
    da28:	e8bd8010 	pop	{r4, pc}
    da2c:	e59f105c 	ldr	r1, [pc, #92]	; da90 <fat32_dir_attr_str+0x174>
    da30:	e59f0040 	ldr	r0, [pc, #64]	; da78 <fat32_dir_attr_str+0x15c>
    da34:	eb0017d0 	bl	1397c <strcat>
    da38:	e59f0038 	ldr	r0, [pc, #56]	; da78 <fat32_dir_attr_str+0x15c>
    da3c:	e28dd008 	add	sp, sp, #8, 0
    da40:	e8bd8010 	pop	{r4, pc}
    da44:	e59f1048 	ldr	r1, [pc, #72]	; da94 <fat32_dir_attr_str+0x178>
    da48:	e59f0028 	ldr	r0, [pc, #40]	; da78 <fat32_dir_attr_str+0x15c>
    da4c:	eb0017ca 	bl	1397c <strcat>
    da50:	e59f0020 	ldr	r0, [pc, #32]	; da78 <fat32_dir_attr_str+0x15c>
    da54:	e28dd008 	add	sp, sp, #8, 0
    da58:	e8bd8010 	pop	{r4, pc}
    da5c:	e3a0309e 	mov	r3, #158, 0	; 0x9e
    da60:	e59f2030 	ldr	r2, [pc, #48]	; da98 <fat32_dir_attr_str+0x17c>
    da64:	e59f1030 	ldr	r1, [pc, #48]	; da9c <fat32_dir_attr_str+0x180>
    da68:	e59f0030 	ldr	r0, [pc, #48]	; daa0 <fat32_dir_attr_str+0x184>
    da6c:	e58d4000 	str	r4, [sp]
    da70:	eb0016ae 	bl	13530 <printk>
    da74:	eb0017f2 	bl	13a44 <clean_reboot>
    da78:	000177a8 	.word	0x000177a8
    da7c:	0001506c 	.word	0x0001506c
    da80:	00015068 	.word	0x00015068
    da84:	00015058 	.word	0x00015058
    da88:	00015074 	.word	0x00015074
    da8c:	00015084 	.word	0x00015084
    da90:	00015094 	.word	0x00015094
    da94:	0001509c 	.word	0x0001509c
    da98:	000152c8 	.word	0x000152c8
    da9c:	00014afc 	.word	0x00014afc
    daa0:	000150a8 	.word	0x000150a8

0000daa4 <fat32_dirent_name>:
    daa4:	e92d41f0 	push	{r4, r5, r6, r7, r8, lr}
    daa8:	e59f4124 	ldr	r4, [pc, #292]	; dbd4 <fat32_dirent_name+0x130>
    daac:	e1a05000 	mov	r5, r0
    dab0:	e1a06001 	mov	r6, r1
    dab4:	e3a02008 	mov	r2, #8, 0
    dab8:	e1a01000 	mov	r1, r0
    dabc:	e2840080 	add	r0, r4, #128, 0	; 0x80
    dac0:	eb001628 	bl	13368 <memcpy>
    dac4:	e5d43087 	ldrb	r3, [r4, #135]	; 0x87
    dac8:	e3530020 	cmp	r3, #32, 0
    dacc:	1a000034 	bne	dba4 <fat32_dirent_name+0x100>
    dad0:	e5d43086 	ldrb	r3, [r4, #134]	; 0x86
    dad4:	e3530020 	cmp	r3, #32, 0
    dad8:	1a000033 	bne	dbac <fat32_dirent_name+0x108>
    dadc:	e5d43085 	ldrb	r3, [r4, #133]	; 0x85
    dae0:	e3530020 	cmp	r3, #32, 0
    dae4:	1a000032 	bne	dbb4 <fat32_dirent_name+0x110>
    dae8:	e5d43084 	ldrb	r3, [r4, #132]	; 0x84
    daec:	e3530020 	cmp	r3, #32, 0
    daf0:	1a000031 	bne	dbbc <fat32_dirent_name+0x118>
    daf4:	e5d43083 	ldrb	r3, [r4, #131]	; 0x83
    daf8:	e3530020 	cmp	r3, #32, 0
    dafc:	1a000030 	bne	dbc4 <fat32_dirent_name+0x120>
    db00:	e5d43082 	ldrb	r3, [r4, #130]	; 0x82
    db04:	e3530020 	cmp	r3, #32, 0
    db08:	1a00002f 	bne	dbcc <fat32_dirent_name+0x128>
    db0c:	e5d43081 	ldrb	r3, [r4, #129]	; 0x81
    db10:	e3530020 	cmp	r3, #32, 0
    db14:	1a00001b 	bne	db88 <fat32_dirent_name+0xe4>
    db18:	e5d43080 	ldrb	r3, [r4, #128]	; 0x80
    db1c:	e3530020 	cmp	r3, #32, 0
    db20:	13a0e000 	movne	lr, #0, 0
    db24:	1a000018 	bne	db8c <fat32_dirent_name+0xe8>
    db28:	e3a0e003 	mov	lr, #3, 0
    db2c:	e3a03002 	mov	r3, #2, 0
    db30:	e3a02001 	mov	r2, #1, 0
    db34:	e3a01000 	mov	r1, #0, 0
    db38:	e3e00000 	mvn	r0, #0, 0
    db3c:	e3a0702e 	mov	r7, #46, 0	; 0x2e
    db40:	e3a0c000 	mov	ip, #0, 0
    db44:	e0840000 	add	r0, r4, r0
    db48:	e5c07080 	strb	r7, [r0, #128]	; 0x80
    db4c:	e5d50008 	ldrb	r0, [r5, #8]
    db50:	e0841001 	add	r1, r4, r1
    db54:	e5c10080 	strb	r0, [r1, #128]	; 0x80
    db58:	e5d51009 	ldrb	r1, [r5, #9]
    db5c:	e0842002 	add	r2, r4, r2
    db60:	e5c21080 	strb	r1, [r2, #128]	; 0x80
    db64:	e5d5200a 	ldrb	r2, [r5, #10]
    db68:	e0843003 	add	r3, r4, r3
    db6c:	e084400e 	add	r4, r4, lr
    db70:	e5c32080 	strb	r2, [r3, #128]	; 0x80
    db74:	e5c4c080 	strb	ip, [r4, #128]	; 0x80
    db78:	e1a00006 	mov	r0, r6
    db7c:	e8bd41f0 	pop	{r4, r5, r6, r7, r8, lr}
    db80:	e59f1050 	ldr	r1, [pc, #80]	; dbd8 <fat32_dirent_name+0x134>
    db84:	ea001794 	b	139dc <strcpy>
    db88:	e3a0e001 	mov	lr, #1, 0
    db8c:	e28e0001 	add	r0, lr, #1, 0
    db90:	e28e1002 	add	r1, lr, #2, 0
    db94:	e28e2003 	add	r2, lr, #3, 0
    db98:	e28e3004 	add	r3, lr, #4, 0
    db9c:	e28ee005 	add	lr, lr, #5, 0
    dba0:	eaffffe5 	b	db3c <fat32_dirent_name+0x98>
    dba4:	e3a0e007 	mov	lr, #7, 0
    dba8:	eafffff7 	b	db8c <fat32_dirent_name+0xe8>
    dbac:	e3a0e006 	mov	lr, #6, 0
    dbb0:	eafffff5 	b	db8c <fat32_dirent_name+0xe8>
    dbb4:	e3a0e005 	mov	lr, #5, 0
    dbb8:	eafffff3 	b	db8c <fat32_dirent_name+0xe8>
    dbbc:	e3a0e004 	mov	lr, #4, 0
    dbc0:	eafffff1 	b	db8c <fat32_dirent_name+0xe8>
    dbc4:	e3a0e003 	mov	lr, #3, 0
    dbc8:	eaffffef 	b	db8c <fat32_dirent_name+0xe8>
    dbcc:	e3a0e002 	mov	lr, #2, 0
    dbd0:	eaffffed 	b	db8c <fat32_dirent_name+0xe8>
    dbd4:	000177a8 	.word	0x000177a8
    dbd8:	00017828 	.word	0x00017828

0000dbdc <fat32_is_valid_name>:
    dbdc:	e92d4010 	push	{r4, lr}
    dbe0:	e1a04000 	mov	r4, r0
    dbe4:	eb001784 	bl	139fc <strlen>
    dbe8:	e250c000 	subs	ip, r0, #0, 0
    dbec:	e3a00000 	mov	r0, #0, 0
    dbf0:	d8bd8010 	pople	{r4, pc}
    dbf4:	e2443001 	sub	r3, r4, #1, 0
    dbf8:	e083100c 	add	r1, r3, ip
    dbfc:	e5f32001 	ldrb	r2, [r3, #1]!
    dc00:	e352002e 	cmp	r2, #46, 0	; 0x2e
    dc04:	03a00001 	moveq	r0, #1, 0
    dc08:	e1530001 	cmp	r3, r1
    dc0c:	1afffffa 	bne	dbfc <fat32_is_valid_name+0x20>
    dc10:	e3500000 	cmp	r0, #0, 0
    dc14:	0a00001a 	beq	dc84 <fat32_is_valid_name+0xa8>
    dc18:	e24c3005 	sub	r3, ip, #5, 0
    dc1c:	e3530007 	cmp	r3, #7, 0
    dc20:	9a000001 	bls	dc2c <fat32_is_valid_name+0x50>
    dc24:	e3a00000 	mov	r0, #0, 0
    dc28:	e8bd8010 	pop	{r4, pc}
    dc2c:	e084e00c 	add	lr, r4, ip
    dc30:	e55e3004 	ldrb	r3, [lr, #-4]
    dc34:	e353002e 	cmp	r3, #46, 0	; 0x2e
    dc38:	1afffff9 	bne	dc24 <fat32_is_valid_name+0x48>
    dc3c:	e1a02004 	mov	r2, r4
    dc40:	e24cc004 	sub	ip, ip, #4, 0
    dc44:	e1e04004 	mvn	r4, r4
    dc48:	ea000001 	b	dc54 <fat32_is_valid_name+0x78>
    dc4c:	e152000e 	cmp	r2, lr
    dc50:	08bd8010 	popeq	{r4, pc}
    dc54:	e4d23001 	ldrb	r3, [r2], #1
    dc58:	e2431041 	sub	r1, r3, #65, 0	; 0x41
    dc5c:	e2433030 	sub	r3, r3, #48, 0	; 0x30
    dc60:	e3510019 	cmp	r1, #25, 0
    dc64:	83530009 	cmphi	r3, #9, 0
    dc68:	e0843002 	add	r3, r4, r2
    dc6c:	9afffff6 	bls	dc4c <fat32_is_valid_name+0x70>
    dc70:	e15c0003 	cmp	ip, r3
    dc74:	1affffea 	bne	dc24 <fat32_is_valid_name+0x48>
    dc78:	e152000e 	cmp	r2, lr
    dc7c:	1afffff4 	bne	dc54 <fat32_is_valid_name+0x78>
    dc80:	e8bd8010 	pop	{r4, pc}
    dc84:	e24c3001 	sub	r3, ip, #1, 0
    dc88:	e3530007 	cmp	r3, #7, 0
    dc8c:	88bd8010 	pophi	{r4, pc}
    dc90:	e5d43000 	ldrb	r3, [r4]
    dc94:	e2432041 	sub	r2, r3, #65, 0	; 0x41
    dc98:	e2433030 	sub	r3, r3, #48, 0	; 0x30
    dc9c:	e3520019 	cmp	r2, #25, 0
    dca0:	83530009 	cmphi	r3, #9, 0
    dca4:	88bd8010 	pophi	{r4, pc}
    dca8:	e35c0001 	cmp	ip, #1, 0
    dcac:	0a000038 	beq	dd94 <fat32_is_valid_name+0x1b8>
    dcb0:	e5d43001 	ldrb	r3, [r4, #1]
    dcb4:	e2432030 	sub	r2, r3, #48, 0	; 0x30
    dcb8:	e2433041 	sub	r3, r3, #65, 0	; 0x41
    dcbc:	e3520009 	cmp	r2, #9, 0
    dcc0:	83530019 	cmphi	r3, #25, 0
    dcc4:	88bd8010 	pophi	{r4, pc}
    dcc8:	e35c0002 	cmp	ip, #2, 0
    dccc:	0a000030 	beq	dd94 <fat32_is_valid_name+0x1b8>
    dcd0:	e5d43002 	ldrb	r3, [r4, #2]
    dcd4:	e2432030 	sub	r2, r3, #48, 0	; 0x30
    dcd8:	e2433041 	sub	r3, r3, #65, 0	; 0x41
    dcdc:	e3520009 	cmp	r2, #9, 0
    dce0:	83530019 	cmphi	r3, #25, 0
    dce4:	88bd8010 	pophi	{r4, pc}
    dce8:	e35c0003 	cmp	ip, #3, 0
    dcec:	0a000028 	beq	dd94 <fat32_is_valid_name+0x1b8>
    dcf0:	e5d43003 	ldrb	r3, [r4, #3]
    dcf4:	e2432041 	sub	r2, r3, #65, 0	; 0x41
    dcf8:	e2433030 	sub	r3, r3, #48, 0	; 0x30
    dcfc:	e3520019 	cmp	r2, #25, 0
    dd00:	83530009 	cmphi	r3, #9, 0
    dd04:	88bd8010 	pophi	{r4, pc}
    dd08:	e35c0004 	cmp	ip, #4, 0
    dd0c:	0a000020 	beq	dd94 <fat32_is_valid_name+0x1b8>
    dd10:	e5d43004 	ldrb	r3, [r4, #4]
    dd14:	e2432041 	sub	r2, r3, #65, 0	; 0x41
    dd18:	e2433030 	sub	r3, r3, #48, 0	; 0x30
    dd1c:	e3520019 	cmp	r2, #25, 0
    dd20:	83530009 	cmphi	r3, #9, 0
    dd24:	88bd8010 	pophi	{r4, pc}
    dd28:	e35c0005 	cmp	ip, #5, 0
    dd2c:	0a000018 	beq	dd94 <fat32_is_valid_name+0x1b8>
    dd30:	e5d43005 	ldrb	r3, [r4, #5]
    dd34:	e2432041 	sub	r2, r3, #65, 0	; 0x41
    dd38:	e2433030 	sub	r3, r3, #48, 0	; 0x30
    dd3c:	e3520019 	cmp	r2, #25, 0
    dd40:	83530009 	cmphi	r3, #9, 0
    dd44:	88bd8010 	pophi	{r4, pc}
    dd48:	e35c0006 	cmp	ip, #6, 0
    dd4c:	0a000010 	beq	dd94 <fat32_is_valid_name+0x1b8>
    dd50:	e5d43006 	ldrb	r3, [r4, #6]
    dd54:	e2432041 	sub	r2, r3, #65, 0	; 0x41
    dd58:	e2433030 	sub	r3, r3, #48, 0	; 0x30
    dd5c:	e3520019 	cmp	r2, #25, 0
    dd60:	83530009 	cmphi	r3, #9, 0
    dd64:	88bd8010 	pophi	{r4, pc}
    dd68:	e35c0007 	cmp	ip, #7, 0
    dd6c:	0a000008 	beq	dd94 <fat32_is_valid_name+0x1b8>
    dd70:	e5d43007 	ldrb	r3, [r4, #7]
    dd74:	e2432041 	sub	r2, r3, #65, 0	; 0x41
    dd78:	e2433030 	sub	r3, r3, #48, 0	; 0x30
    dd7c:	e3520019 	cmp	r2, #25, 0
    dd80:	83530009 	cmphi	r3, #9, 0
    dd84:	88bd8010 	pophi	{r4, pc}
    dd88:	e35c0008 	cmp	ip, #8, 0
    dd8c:	03a00001 	moveq	r0, #1, 0
    dd90:	e8bd8010 	pop	{r4, pc}
    dd94:	e3a00001 	mov	r0, #1, 0
    dd98:	e8bd8010 	pop	{r4, pc}

0000dd9c <fat32_dirent_set_name>:
    dd9c:	e92d40f0 	push	{r4, r5, r6, r7, lr}
    dda0:	e1a07000 	mov	r7, r0
    dda4:	e24dd00c 	sub	sp, sp, #12, 0
    dda8:	e1a00001 	mov	r0, r1
    ddac:	e1a05001 	mov	r5, r1
    ddb0:	eb001711 	bl	139fc <strlen>
    ddb4:	e1a06000 	mov	r6, r0
    ddb8:	e1a00005 	mov	r0, r5
    ddbc:	ebffff86 	bl	dbdc <fat32_is_valid_name>
    ddc0:	e3500000 	cmp	r0, #0, 0
    ddc4:	0a000024 	beq	de5c <fat32_dirent_set_name+0xc0>
    ddc8:	e3560000 	cmp	r6, #0, 0
    ddcc:	c2453001 	subgt	r3, r5, #1, 0
    ddd0:	c3a04000 	movgt	r4, #0, 0
    ddd4:	c083c006 	addgt	ip, r3, r6
    ddd8:	da000015 	ble	de34 <fat32_dirent_set_name+0x98>
    dddc:	e5f32001 	ldrb	r2, [r3, #1]!
    dde0:	e352002e 	cmp	r2, #46, 0	; 0x2e
    dde4:	03a04001 	moveq	r4, #1, 0
    dde8:	e15c0003 	cmp	ip, r3
    ddec:	1afffffa 	bne	dddc <fat32_dirent_set_name+0x40>
    ddf0:	e3a0200b 	mov	r2, #11, 0
    ddf4:	e3a01020 	mov	r1, #32, 0
    ddf8:	e1a00007 	mov	r0, r7
    ddfc:	eb001590 	bl	13444 <memset>
    de00:	e3540000 	cmp	r4, #0, 0
    de04:	0a00000e 	beq	de44 <fat32_dirent_set_name+0xa8>
    de08:	e1a01005 	mov	r1, r5
    de0c:	e2462004 	sub	r2, r6, #4, 0
    de10:	e1a00007 	mov	r0, r7
    de14:	eb001553 	bl	13368 <memcpy>
    de18:	e3a02003 	mov	r2, #3, 0
    de1c:	e2461003 	sub	r1, r6, #3, 0
    de20:	e0851001 	add	r1, r5, r1
    de24:	e2870008 	add	r0, r7, #8, 0
    de28:	e28dd00c 	add	sp, sp, #12, 0
    de2c:	e8bd40f0 	pop	{r4, r5, r6, r7, lr}
    de30:	ea00154c 	b	13368 <memcpy>
    de34:	e3a0200b 	mov	r2, #11, 0
    de38:	e3a01020 	mov	r1, #32, 0
    de3c:	e1a00007 	mov	r0, r7
    de40:	eb00157f 	bl	13444 <memset>
    de44:	e1a02006 	mov	r2, r6
    de48:	e1a01005 	mov	r1, r5
    de4c:	e1a00007 	mov	r0, r7
    de50:	e28dd00c 	add	sp, sp, #12, 0
    de54:	e8bd40f0 	pop	{r4, r5, r6, r7, lr}
    de58:	ea001542 	b	13368 <memcpy>
    de5c:	e59f2018 	ldr	r2, [pc, #24]	; de7c <fat32_dirent_set_name+0xe0>
    de60:	e3a030db 	mov	r3, #219, 0	; 0xdb
    de64:	e59f1014 	ldr	r1, [pc, #20]	; de80 <fat32_dirent_set_name+0xe4>
    de68:	e58d2000 	str	r2, [sp]
    de6c:	e59f0010 	ldr	r0, [pc, #16]	; de84 <fat32_dirent_set_name+0xe8>
    de70:	e59f2010 	ldr	r2, [pc, #16]	; de88 <fat32_dirent_set_name+0xec>
    de74:	eb0015ad 	bl	13530 <printk>
    de78:	eb0016f1 	bl	13a44 <clean_reboot>
    de7c:	000150cc 	.word	0x000150cc
    de80:	00014afc 	.word	0x00014afc
    de84:	00013f8c 	.word	0x00013f8c
    de88:	000152dc 	.word	0x000152dc

0000de8c <fat32_dirent_print_helper>:
    de8c:	e92d41f0 	push	{r4, r5, r6, r7, r8, lr}
    de90:	e5d0400b 	ldrb	r4, [r0, #11]
    de94:	e1a05000 	mov	r5, r0
    de98:	e354000f 	cmp	r4, #15, 0
    de9c:	e5d03000 	ldrb	r3, [r0]
    dea0:	0a0000a2 	beq	e130 <fat32_dirent_print_helper+0x2a4>
    dea4:	e35300e5 	cmp	r3, #229, 0	; 0xe5
    dea8:	13530000 	cmpne	r3, #0, 0
    deac:	0a000087 	beq	e0d0 <fat32_dirent_print_helper+0x244>
    deb0:	e3140020 	tst	r4, #32, 0
    deb4:	1a000088 	bne	e0dc <fat32_dirent_print_helper+0x250>
    deb8:	e3140010 	tst	r4, #16, 0
    debc:	1a00000a 	bne	deec <fat32_dirent_print_helper+0x60>
    dec0:	e1a00004 	mov	r0, r4
    dec4:	ebfffe94 	bl	d91c <fat32_dir_attr_str>
    dec8:	e1a01004 	mov	r1, r4
    decc:	e1a02000 	mov	r2, r0
    ded0:	e59f02ac 	ldr	r0, [pc, #684]	; e184 <fat32_dirent_print_helper+0x2f8>
    ded4:	eb001595 	bl	13530 <printk>
    ded8:	e5d5300b 	ldrb	r3, [r5, #11]
    dedc:	e353000f 	cmp	r3, #15, 0
    dee0:	0a000001 	beq	deec <fat32_dirent_print_helper+0x60>
    dee4:	e3130020 	tst	r3, #32, 0
    dee8:	18bd81f0 	popne	{r4, r5, r6, r7, r8, pc}
    deec:	e3a04000 	mov	r4, #0, 0
    def0:	e59f6290 	ldr	r6, [pc, #656]	; e188 <fat32_dirent_print_helper+0x2fc>
    def4:	e59f0290 	ldr	r0, [pc, #656]	; e18c <fat32_dirent_print_helper+0x300>
    def8:	eb00158c 	bl	13530 <printk>
    defc:	e3a0200b 	mov	r2, #11, 0
    df00:	e1a01005 	mov	r1, r5
    df04:	e2860090 	add	r0, r6, #144, 0	; 0x90
    df08:	eb001516 	bl	13368 <memcpy>
    df0c:	e3a02008 	mov	r2, #8, 0
    df10:	e1a01005 	mov	r1, r5
    df14:	e2860080 	add	r0, r6, #128, 0	; 0x80
    df18:	e5c6409b 	strb	r4, [r6, #155]	; 0x9b
    df1c:	eb001511 	bl	13368 <memcpy>
    df20:	e5d63087 	ldrb	r3, [r6, #135]	; 0x87
    df24:	e3530020 	cmp	r3, #32, 0
    df28:	1a000089 	bne	e154 <fat32_dirent_print_helper+0x2c8>
    df2c:	e5d63086 	ldrb	r3, [r6, #134]	; 0x86
    df30:	e3530020 	cmp	r3, #32, 0
    df34:	1a000088 	bne	e15c <fat32_dirent_print_helper+0x2d0>
    df38:	e5d63085 	ldrb	r3, [r6, #133]	; 0x85
    df3c:	e3530020 	cmp	r3, #32, 0
    df40:	1a000087 	bne	e164 <fat32_dirent_print_helper+0x2d8>
    df44:	e5d63084 	ldrb	r3, [r6, #132]	; 0x84
    df48:	e3530020 	cmp	r3, #32, 0
    df4c:	1a000086 	bne	e16c <fat32_dirent_print_helper+0x2e0>
    df50:	e5d63083 	ldrb	r3, [r6, #131]	; 0x83
    df54:	e3530020 	cmp	r3, #32, 0
    df58:	1a000085 	bne	e174 <fat32_dirent_print_helper+0x2e8>
    df5c:	e5d63082 	ldrb	r3, [r6, #130]	; 0x82
    df60:	e3530020 	cmp	r3, #32, 0
    df64:	1a000084 	bne	e17c <fat32_dirent_print_helper+0x2f0>
    df68:	e5d63081 	ldrb	r3, [r6, #129]	; 0x81
    df6c:	e3530020 	cmp	r3, #32, 0
    df70:	1a00005c 	bne	e0e8 <fat32_dirent_print_helper+0x25c>
    df74:	e5d63080 	ldrb	r3, [r6, #128]	; 0x80
    df78:	e3530020 	cmp	r3, #32, 0
    df7c:	1a00005a 	bne	e0ec <fat32_dirent_print_helper+0x260>
    df80:	e1a03004 	mov	r3, r4
    df84:	e3a0c003 	mov	ip, #3, 0
    df88:	e3a01002 	mov	r1, #2, 0
    df8c:	e3a02001 	mov	r2, #1, 0
    df90:	e3e00000 	mvn	r0, #0, 0
    df94:	e3a0e02e 	mov	lr, #46, 0	; 0x2e
    df98:	e3a04000 	mov	r4, #0, 0
    df9c:	e0860000 	add	r0, r6, r0
    dfa0:	e5c0e080 	strb	lr, [r0, #128]	; 0x80
    dfa4:	e5d50008 	ldrb	r0, [r5, #8]
    dfa8:	e0863003 	add	r3, r6, r3
    dfac:	e5c30080 	strb	r0, [r3, #128]	; 0x80
    dfb0:	e5d50009 	ldrb	r0, [r5, #9]
    dfb4:	e0863002 	add	r3, r6, r2
    dfb8:	e5c30080 	strb	r0, [r3, #128]	; 0x80
    dfbc:	e59f21cc 	ldr	r2, [pc, #460]	; e190 <fat32_dirent_print_helper+0x304>
    dfc0:	e5d5e00a 	ldrb	lr, [r5, #10]
    dfc4:	e0863001 	add	r3, r6, r1
    dfc8:	e59f01c4 	ldr	r0, [pc, #452]	; e194 <fat32_dirent_print_helper+0x308>
    dfcc:	e086600c 	add	r6, r6, ip
    dfd0:	e2821010 	add	r1, r2, #16, 0
    dfd4:	e5c3e080 	strb	lr, [r3, #128]	; 0x80
    dfd8:	e5c64080 	strb	r4, [r6, #128]	; 0x80
    dfdc:	eb001553 	bl	13530 <printk>
    dfe0:	e59f01b0 	ldr	r0, [pc, #432]	; e198 <fat32_dirent_print_helper+0x30c>
    dfe4:	eb001551 	bl	13530 <printk>
    dfe8:	e59f61ac 	ldr	r6, [pc, #428]	; e19c <fat32_dirent_print_helper+0x310>
    dfec:	e59f8198 	ldr	r8, [pc, #408]	; e18c <fat32_dirent_print_helper+0x300>
    dff0:	e59f71a8 	ldr	r7, [pc, #424]	; e1a0 <fat32_dirent_print_helper+0x314>
    dff4:	ea000006 	b	e014 <fat32_dirent_print_helper+0x188>
    dff8:	e7d52004 	ldrb	r2, [r5, r4]
    dffc:	e1a00006 	mov	r0, r6
    e000:	e1a01002 	mov	r1, r2
    e004:	eb001549 	bl	13530 <printk>
    e008:	e354000a 	cmp	r4, #10, 0
    e00c:	0a00000b 	beq	e040 <fat32_dirent_print_helper+0x1b4>
    e010:	e2844001 	add	r4, r4, #1, 0
    e014:	e3540008 	cmp	r4, #8, 0
    e018:	1afffff6 	bne	dff8 <fat32_dirent_print_helper+0x16c>
    e01c:	e1a00008 	mov	r0, r8
    e020:	eb001542 	bl	13530 <printk>
    e024:	e1a00007 	mov	r0, r7
    e028:	eb001540 	bl	13530 <printk>
    e02c:	e5d52008 	ldrb	r2, [r5, #8]
    e030:	e1a00006 	mov	r0, r6
    e034:	e1a01002 	mov	r1, r2
    e038:	eb00153c 	bl	13530 <printk>
    e03c:	eafffff3 	b	e010 <fat32_dirent_print_helper+0x184>
    e040:	e59f015c 	ldr	r0, [pc, #348]	; e1a4 <fat32_dirent_print_helper+0x318>
    e044:	eb001539 	bl	13530 <printk>
    e048:	e5d5100b 	ldrb	r1, [r5, #11]
    e04c:	e59f0154 	ldr	r0, [pc, #340]	; e1a8 <fat32_dirent_print_helper+0x31c>
    e050:	eb001536 	bl	13530 <printk>
    e054:	e5d5300b 	ldrb	r3, [r5, #11]
    e058:	e353000f 	cmp	r3, #15, 0
    e05c:	0a000007 	beq	e080 <fat32_dirent_print_helper+0x1f4>
    e060:	e3130001 	tst	r3, #1, 0
    e064:	1a00002d 	bne	e120 <fat32_dirent_print_helper+0x294>
    e068:	e3130002 	tst	r3, #2, 0
    e06c:	1a000027 	bne	e110 <fat32_dirent_print_helper+0x284>
    e070:	e3130004 	tst	r3, #4, 0
    e074:	1a000022 	bne	e104 <fat32_dirent_print_helper+0x278>
    e078:	e59f010c 	ldr	r0, [pc, #268]	; e18c <fat32_dirent_print_helper+0x300>
    e07c:	eb00152b 	bl	13530 <printk>
    e080:	e5d53014 	ldrb	r3, [r5, #20]
    e084:	e5d51015 	ldrb	r1, [r5, #21]
    e088:	e59f011c 	ldr	r0, [pc, #284]	; e1ac <fat32_dirent_print_helper+0x320>
    e08c:	e1831401 	orr	r1, r3, r1, lsl #8
    e090:	eb001526 	bl	13530 <printk>
    e094:	e5d5301a 	ldrb	r3, [r5, #26]
    e098:	e5d5101b 	ldrb	r1, [r5, #27]
    e09c:	e59f010c 	ldr	r0, [pc, #268]	; e1b0 <fat32_dirent_print_helper+0x324>
    e0a0:	e1831401 	orr	r1, r3, r1, lsl #8
    e0a4:	eb001521 	bl	13530 <printk>
    e0a8:	e5d5101d 	ldrb	r1, [r5, #29]
    e0ac:	e5d5301c 	ldrb	r3, [r5, #28]
    e0b0:	e5d5201e 	ldrb	r2, [r5, #30]
    e0b4:	e1833401 	orr	r3, r3, r1, lsl #8
    e0b8:	e5d5101f 	ldrb	r1, [r5, #31]
    e0bc:	e1833802 	orr	r3, r3, r2, lsl #16
    e0c0:	e59f00ec 	ldr	r0, [pc, #236]	; e1b4 <fat32_dirent_print_helper+0x328>
    e0c4:	e1831c01 	orr	r1, r3, r1, lsl #24
    e0c8:	e8bd41f0 	pop	{r4, r5, r6, r7, r8, lr}
    e0cc:	ea001517 	b	13530 <printk>
    e0d0:	e59f00e0 	ldr	r0, [pc, #224]	; e1b8 <fat32_dirent_print_helper+0x32c>
    e0d4:	e8bd41f0 	pop	{r4, r5, r6, r7, r8, lr}
    e0d8:	ea001514 	b	13530 <printk>
    e0dc:	e59f00d8 	ldr	r0, [pc, #216]	; e1bc <fat32_dirent_print_helper+0x330>
    e0e0:	eb001512 	bl	13530 <printk>
    e0e4:	eaffff80 	b	deec <fat32_dirent_print_helper+0x60>
    e0e8:	e3a04001 	mov	r4, #1, 0
    e0ec:	e2840001 	add	r0, r4, #1, 0
    e0f0:	e2843002 	add	r3, r4, #2, 0
    e0f4:	e2842003 	add	r2, r4, #3, 0
    e0f8:	e2841004 	add	r1, r4, #4, 0
    e0fc:	e284c005 	add	ip, r4, #5, 0
    e100:	eaffffa3 	b	df94 <fat32_dirent_print_helper+0x108>
    e104:	e59f00b4 	ldr	r0, [pc, #180]	; e1c0 <fat32_dirent_print_helper+0x334>
    e108:	eb001508 	bl	13530 <printk>
    e10c:	eaffffd9 	b	e078 <fat32_dirent_print_helper+0x1ec>
    e110:	e59f00ac 	ldr	r0, [pc, #172]	; e1c4 <fat32_dirent_print_helper+0x338>
    e114:	eb001505 	bl	13530 <printk>
    e118:	e5d5300b 	ldrb	r3, [r5, #11]
    e11c:	eaffffd3 	b	e070 <fat32_dirent_print_helper+0x1e4>
    e120:	e59f00a0 	ldr	r0, [pc, #160]	; e1c8 <fat32_dirent_print_helper+0x33c>
    e124:	eb001501 	bl	13530 <printk>
    e128:	e5d5300b 	ldrb	r3, [r5, #11]
    e12c:	eaffffcd 	b	e068 <fat32_dirent_print_helper+0x1dc>
    e130:	eb0000f0 	bl	e4f8 <fat32_dirent_is_deleted_lfn>
    e134:	e3500000 	cmp	r0, #0, 0
    e138:	1affffe4 	bne	e0d0 <fat32_dirent_print_helper+0x244>
    e13c:	e5d5400b 	ldrb	r4, [r5, #11]
    e140:	e354000f 	cmp	r4, #15, 0
    e144:	1affff59 	bne	deb0 <fat32_dirent_print_helper+0x24>
    e148:	e8bd41f0 	pop	{r4, r5, r6, r7, r8, lr}
    e14c:	e59f0078 	ldr	r0, [pc, #120]	; e1cc <fat32_dirent_print_helper+0x340>
    e150:	ea0014f6 	b	13530 <printk>
    e154:	e3a04007 	mov	r4, #7, 0
    e158:	eaffffe3 	b	e0ec <fat32_dirent_print_helper+0x260>
    e15c:	e3a04006 	mov	r4, #6, 0
    e160:	eaffffe1 	b	e0ec <fat32_dirent_print_helper+0x260>
    e164:	e3a04005 	mov	r4, #5, 0
    e168:	eaffffdf 	b	e0ec <fat32_dirent_print_helper+0x260>
    e16c:	e3a04004 	mov	r4, #4, 0
    e170:	eaffffdd 	b	e0ec <fat32_dirent_print_helper+0x260>
    e174:	e3a04003 	mov	r4, #3, 0
    e178:	eaffffdb 	b	e0ec <fat32_dirent_print_helper+0x260>
    e17c:	e3a04002 	mov	r4, #2, 0
    e180:	eaffffd9 	b	e0ec <fat32_dirent_print_helper+0x260>
    e184:	00015140 	.word	0x00015140
    e188:	000177a8 	.word	0x000177a8
    e18c:	0001432c 	.word	0x0001432c
    e190:	00017828 	.word	0x00017828
    e194:	00015160 	.word	0x00015160
    e198:	00015184 	.word	0x00015184
    e19c:	000151a0 	.word	0x000151a0
    e1a0:	00015198 	.word	0x00015198
    e1a4:	000151ac 	.word	0x000151ac
    e1a8:	000151b0 	.word	0x000151b0
    e1ac:	000151fc 	.word	0x000151fc
    e1b0:	00015214 	.word	0x00015214
    e1b4:	0001522c 	.word	0x0001522c
    e1b8:	000150e8 	.word	0x000150e8
    e1bc:	00015118 	.word	0x00015118
    e1c0:	000151e0 	.word	0x000151e0
    e1c4:	000151d4 	.word	0x000151d4
    e1c8:	000151c4 	.word	0x000151c4
    e1cc:	00015104 	.word	0x00015104

0000e1d0 <fat32_dirent_print>:
    e1d0:	e1a03000 	mov	r3, r0
    e1d4:	e92d4010 	push	{r4, lr}
    e1d8:	e1a04001 	mov	r4, r1
    e1dc:	e59f0010 	ldr	r0, [pc, #16]	; e1f4 <fat32_dirent_print+0x24>
    e1e0:	e1a01003 	mov	r1, r3
    e1e4:	eb0014d1 	bl	13530 <printk>
    e1e8:	e1a00004 	mov	r0, r4
    e1ec:	e8bd4010 	pop	{r4, lr}
    e1f0:	eaffff25 	b	de8c <fat32_dirent_print_helper>
    e1f4:	00015244 	.word	0x00015244

0000e1f8 <fat32_dir_lookup>:
    e1f8:	e92d41f0 	push	{r4, r5, r6, r7, r8, lr}
    e1fc:	e2526000 	subs	r6, r2, #0, 0
    e200:	0a00001f 	beq	e284 <fat32_dir_lookup+0x8c>
    e204:	e1a07000 	mov	r7, r0
    e208:	e1a04001 	mov	r4, r1
    e20c:	e3a05000 	mov	r5, #0, 0
    e210:	ea00000c 	b	e248 <fat32_dir_lookup+0x50>
    e214:	e35300e5 	cmp	r3, #229, 0	; 0xe5
    e218:	13530000 	cmpne	r3, #0, 0
    e21c:	0a000005 	beq	e238 <fat32_dir_lookup+0x40>
    e220:	e3a0200b 	mov	r2, #11, 0
    e224:	e1a01004 	mov	r1, r4
    e228:	e1a00007 	mov	r0, r7
    e22c:	eb001422 	bl	132bc <memcmp>
    e230:	e3500000 	cmp	r0, #0, 0
    e234:	0a000013 	beq	e288 <fat32_dir_lookup+0x90>
    e238:	e2855001 	add	r5, r5, #1, 0
    e23c:	e1550006 	cmp	r5, r6
    e240:	e2844020 	add	r4, r4, #32, 0
    e244:	0a00000e 	beq	e284 <fat32_dir_lookup+0x8c>
    e248:	e5d4100b 	ldrb	r1, [r4, #11]
    e24c:	e5d43000 	ldrb	r3, [r4]
    e250:	e351000f 	cmp	r1, #15, 0
    e254:	1affffee 	bne	e214 <fat32_dir_lookup+0x1c>
    e258:	e1a00004 	mov	r0, r4
    e25c:	eb0000a5 	bl	e4f8 <fat32_dirent_is_deleted_lfn>
    e260:	e3500000 	cmp	r0, #0, 0
    e264:	1afffff3 	bne	e238 <fat32_dir_lookup+0x40>
    e268:	e5d4300b 	ldrb	r3, [r4, #11]
    e26c:	e353000f 	cmp	r3, #15, 0
    e270:	1affffea 	bne	e220 <fat32_dir_lookup+0x28>
    e274:	e2855001 	add	r5, r5, #1, 0
    e278:	e1550006 	cmp	r5, r6
    e27c:	e2844020 	add	r4, r4, #32, 0
    e280:	1afffff0 	bne	e248 <fat32_dir_lookup+0x50>
    e284:	e3e05000 	mvn	r5, #0, 0
    e288:	e1a00005 	mov	r0, r5
    e28c:	e8bd81f0 	pop	{r4, r5, r6, r7, r8, pc}

0000e290 <print_as_string>:
    e290:	e1a03000 	mov	r3, r0
    e294:	e92d4070 	push	{r4, r5, r6, lr}
    e298:	e1a05002 	mov	r5, r2
    e29c:	e1a04001 	mov	r4, r1
    e2a0:	e59f0038 	ldr	r0, [pc, #56]	; e2e0 <print_as_string+0x50>
    e2a4:	e1a01003 	mov	r1, r3
    e2a8:	eb0014a0 	bl	13530 <printk>
    e2ac:	e3550000 	cmp	r5, #0, 0
    e2b0:	da000007 	ble	e2d4 <print_as_string+0x44>
    e2b4:	e2444001 	sub	r4, r4, #1, 0
    e2b8:	e59f6024 	ldr	r6, [pc, #36]	; e2e4 <print_as_string+0x54>
    e2bc:	e0845005 	add	r5, r4, r5
    e2c0:	e5f41001 	ldrb	r1, [r4, #1]!
    e2c4:	e1a00006 	mov	r0, r6
    e2c8:	eb001498 	bl	13530 <printk>
    e2cc:	e1540005 	cmp	r4, r5
    e2d0:	1afffffa 	bne	e2c0 <print_as_string+0x30>
    e2d4:	e8bd4070 	pop	{r4, r5, r6, lr}
    e2d8:	e59f0008 	ldr	r0, [pc, #8]	; e2e8 <print_as_string+0x58>
    e2dc:	ea001493 	b	13530 <printk>
    e2e0:	0001524c 	.word	0x0001524c
    e2e4:	00015250 	.word	0x00015250
    e2e8:	0001432c 	.word	0x0001432c

0000e2ec <print_bytes>:
    e2ec:	e1a03000 	mov	r3, r0
    e2f0:	e92d41f0 	push	{r4, r5, r6, r7, r8, lr}
    e2f4:	e1a05002 	mov	r5, r2
    e2f8:	e1a06001 	mov	r6, r1
    e2fc:	e59f005c 	ldr	r0, [pc, #92]	; e360 <print_bytes+0x74>
    e300:	e1a01003 	mov	r1, r3
    e304:	eb001489 	bl	13530 <printk>
    e308:	e3550000 	cmp	r5, #0, 0
    e30c:	da000010 	ble	e354 <print_bytes+0x68>
    e310:	e2464001 	sub	r4, r6, #1, 0
    e314:	e59f7048 	ldr	r7, [pc, #72]	; e364 <print_bytes+0x78>
    e318:	e59f8048 	ldr	r8, [pc, #72]	; e368 <print_bytes+0x7c>
    e31c:	e0845005 	add	r5, r4, r5
    e320:	e2666001 	rsb	r6, r6, #1, 0
    e324:	ea000004 	b	e33c <print_bytes+0x50>
    e328:	e5f41001 	ldrb	r1, [r4, #1]!
    e32c:	e1a00007 	mov	r0, r7
    e330:	eb00147e 	bl	13530 <printk>
    e334:	e1540005 	cmp	r4, r5
    e338:	0a000005 	beq	e354 <print_bytes+0x68>
    e33c:	e0863004 	add	r3, r6, r4
    e340:	e313000f 	tst	r3, #15, 0
    e344:	1afffff7 	bne	e328 <print_bytes+0x3c>
    e348:	e1a00008 	mov	r0, r8
    e34c:	eb001477 	bl	13530 <printk>
    e350:	eafffff4 	b	e328 <print_bytes+0x3c>
    e354:	e59f0010 	ldr	r0, [pc, #16]	; e36c <print_bytes+0x80>
    e358:	e8bd41f0 	pop	{r4, r5, r6, r7, r8, lr}
    e35c:	ea001473 	b	13530 <printk>
    e360:	0001524c 	.word	0x0001524c
    e364:	00015258 	.word	0x00015258
    e368:	00015254 	.word	0x00015254
    e36c:	0001432c 	.word	0x0001432c

0000e370 <print_words>:
    e370:	e1a03000 	mov	r3, r0
    e374:	e92d41f0 	push	{r4, r5, r6, r7, r8, lr}
    e378:	e1a06002 	mov	r6, r2
    e37c:	e1a05001 	mov	r5, r1
    e380:	e59f005c 	ldr	r0, [pc, #92]	; e3e4 <print_words+0x74>
    e384:	e1a01003 	mov	r1, r3
    e388:	eb001468 	bl	13530 <printk>
    e38c:	e3560000 	cmp	r6, #0, 0
    e390:	da000010 	ble	e3d8 <print_words+0x68>
    e394:	e3a04000 	mov	r4, #0, 0
    e398:	e59f7048 	ldr	r7, [pc, #72]	; e3e8 <print_words+0x78>
    e39c:	e59f8048 	ldr	r8, [pc, #72]	; e3ec <print_words+0x7c>
    e3a0:	e2455004 	sub	r5, r5, #4, 0
    e3a4:	ea000004 	b	e3bc <print_words+0x4c>
    e3a8:	e1a00007 	mov	r0, r7
    e3ac:	e5b51004 	ldr	r1, [r5, #4]!
    e3b0:	eb00145e 	bl	13530 <printk>
    e3b4:	e1560004 	cmp	r6, r4
    e3b8:	0a000006 	beq	e3d8 <print_words+0x68>
    e3bc:	e314000f 	tst	r4, #15, 0
    e3c0:	12844001 	addne	r4, r4, #1, 0
    e3c4:	1afffff7 	bne	e3a8 <print_words+0x38>
    e3c8:	e1a00008 	mov	r0, r8
    e3cc:	e2844001 	add	r4, r4, #1, 0
    e3d0:	eb001456 	bl	13530 <printk>
    e3d4:	eafffff3 	b	e3a8 <print_words+0x38>
    e3d8:	e59f0010 	ldr	r0, [pc, #16]	; e3f0 <print_words+0x80>
    e3dc:	e8bd41f0 	pop	{r4, r5, r6, r7, r8, lr}
    e3e0:	ea001452 	b	13530 <printk>
    e3e4:	0001524c 	.word	0x0001524c
    e3e8:	00015260 	.word	0x00015260
    e3ec:	00015254 	.word	0x00015254
    e3f0:	0001432c 	.word	0x0001432c

0000e3f4 <is_attr>:
    e3f4:	e350000f 	cmp	r0, #15, 0
    e3f8:	0a000003 	beq	e40c <is_attr+0x18>
    e3fc:	e1d13000 	bics	r3, r1, r0
    e400:	03a00001 	moveq	r0, #1, 0
    e404:	13a00000 	movne	r0, #0, 0
    e408:	e12fff1e 	bx	lr
    e40c:	e241000f 	sub	r0, r1, #15, 0
    e410:	e16f0f10 	clz	r0, r0
    e414:	e1a002a0 	lsr	r0, r0, #5
    e418:	e12fff1e 	bx	lr

0000e41c <lfn_checksum>:
    e41c:	e5d01000 	ldrb	r1, [r0]
    e420:	e5d03001 	ldrb	r3, [r0, #1]
    e424:	e5d02002 	ldrb	r2, [r0, #2]
    e428:	e08330a1 	add	r3, r3, r1, lsr #1
    e42c:	e0833381 	add	r3, r3, r1, lsl #7
    e430:	e6ef3073 	uxtb	r3, r3
    e434:	e08220a3 	add	r2, r2, r3, lsr #1
    e438:	e0822383 	add	r2, r2, r3, lsl #7
    e43c:	e5d03003 	ldrb	r3, [r0, #3]
    e440:	e20220ff 	and	r2, r2, #255, 0	; 0xff
    e444:	e08330a2 	add	r3, r3, r2, lsr #1
    e448:	e0833382 	add	r3, r3, r2, lsl #7
    e44c:	e5d02004 	ldrb	r2, [r0, #4]
    e450:	e20330ff 	and	r3, r3, #255, 0	; 0xff
    e454:	e08220a3 	add	r2, r2, r3, lsr #1
    e458:	e0822383 	add	r2, r2, r3, lsl #7
    e45c:	e5d03005 	ldrb	r3, [r0, #5]
    e460:	e20220ff 	and	r2, r2, #255, 0	; 0xff
    e464:	e08330a2 	add	r3, r3, r2, lsr #1
    e468:	e0833382 	add	r3, r3, r2, lsl #7
    e46c:	e5d02006 	ldrb	r2, [r0, #6]
    e470:	e20330ff 	and	r3, r3, #255, 0	; 0xff
    e474:	e08220a3 	add	r2, r2, r3, lsr #1
    e478:	e0822383 	add	r2, r2, r3, lsl #7
    e47c:	e5d03007 	ldrb	r3, [r0, #7]
    e480:	e20220ff 	and	r2, r2, #255, 0	; 0xff
    e484:	e08330a2 	add	r3, r3, r2, lsr #1
    e488:	e0833382 	add	r3, r3, r2, lsl #7
    e48c:	e5d02008 	ldrb	r2, [r0, #8]
    e490:	e20330ff 	and	r3, r3, #255, 0	; 0xff
    e494:	e08220a3 	add	r2, r2, r3, lsr #1
    e498:	e0822383 	add	r2, r2, r3, lsl #7
    e49c:	e5d03009 	ldrb	r3, [r0, #9]
    e4a0:	e20220ff 	and	r2, r2, #255, 0	; 0xff
    e4a4:	e08330a2 	add	r3, r3, r2, lsr #1
    e4a8:	e0833382 	add	r3, r3, r2, lsl #7
    e4ac:	e5d0200a 	ldrb	r2, [r0, #10]
    e4b0:	e20300ff 	and	r0, r3, #255, 0	; 0xff
    e4b4:	e08230a0 	add	r3, r2, r0, lsr #1
    e4b8:	e0830380 	add	r0, r3, r0, lsl #7
    e4bc:	e6ef0070 	uxtb	r0, r0
    e4c0:	e12fff1e 	bx	lr

0000e4c4 <lfn_is_last>:
    e4c4:	e1a00320 	lsr	r0, r0, #6
    e4c8:	e2000001 	and	r0, r0, #1, 0
    e4cc:	e12fff1e 	bx	lr

0000e4d0 <lfn_is_first>:
    e4d0:	e20000bf 	and	r0, r0, #191, 0	; 0xbf
    e4d4:	e2400001 	sub	r0, r0, #1, 0
    e4d8:	e16f0f10 	clz	r0, r0
    e4dc:	e1a002a0 	lsr	r0, r0, #5
    e4e0:	e12fff1e 	bx	lr

0000e4e4 <lfn_is_deleted>:
    e4e4:	e20000e5 	and	r0, r0, #229, 0	; 0xe5
    e4e8:	e24000e5 	sub	r0, r0, #229, 0	; 0xe5
    e4ec:	e16f0f10 	clz	r0, r0
    e4f0:	e1a002a0 	lsr	r0, r0, #5
    e4f4:	e12fff1e 	bx	lr

0000e4f8 <fat32_dirent_is_deleted_lfn>:
    e4f8:	e5d0300b 	ldrb	r3, [r0, #11]
    e4fc:	e353000f 	cmp	r3, #15, 0
    e500:	1a000005 	bne	e51c <fat32_dirent_is_deleted_lfn+0x24>
    e504:	e5d00000 	ldrb	r0, [r0]
    e508:	e20000e5 	and	r0, r0, #229, 0	; 0xe5
    e50c:	e24000e5 	sub	r0, r0, #229, 0	; 0xe5
    e510:	e16f0f10 	clz	r0, r0
    e514:	e1a002a0 	lsr	r0, r0, #5
    e518:	e12fff1e 	bx	lr
    e51c:	e52de004 	push	{lr}		; (str lr, [sp, #-4]!)
    e520:	e59f201c 	ldr	r2, [pc, #28]	; e544 <fat32_dirent_is_deleted_lfn+0x4c>
    e524:	e24dd00c 	sub	sp, sp, #12, 0
    e528:	e3a03021 	mov	r3, #33, 0	; 0x21
    e52c:	e59f1014 	ldr	r1, [pc, #20]	; e548 <fat32_dirent_is_deleted_lfn+0x50>
    e530:	e58d2000 	str	r2, [sp]
    e534:	e59f0010 	ldr	r0, [pc, #16]	; e54c <fat32_dirent_is_deleted_lfn+0x54>
    e538:	e59f2010 	ldr	r2, [pc, #16]	; e550 <fat32_dirent_is_deleted_lfn+0x58>
    e53c:	eb0013fb 	bl	13530 <printk>
    e540:	eb00153f 	bl	13a44 <clean_reboot>
    e544:	00015330 	.word	0x00015330
    e548:	000152f4 	.word	0x000152f4
    e54c:	00013f8c 	.word	0x00013f8c
    e550:	000155a0 	.word	0x000155a0

0000e554 <lfn_print_ent>:
    e554:	e92d41f0 	push	{r4, r5, r6, r7, r8, lr}
    e558:	e1a04000 	mov	r4, r0
    e55c:	e1a07000 	mov	r7, r0
    e560:	e4d40001 	ldrb	r0, [r4], #1
    e564:	e1a08001 	mov	r8, r1
    e568:	e20010e5 	and	r1, r0, #229, 0	; 0xe5
    e56c:	e20020bf 	and	r2, r0, #191, 0	; 0xbf
    e570:	e24110e5 	sub	r1, r1, #229, 0	; 0xe5
    e574:	e16f1f11 	clz	r1, r1
    e578:	e2422001 	sub	r2, r2, #1, 0
    e57c:	e16f2f12 	clz	r2, r2
    e580:	e24dd028 	sub	sp, sp, #40, 0	; 0x28
    e584:	e1a012a1 	lsr	r1, r1, #5
    e588:	e1a03320 	lsr	r3, r0, #6
    e58c:	e2033001 	and	r3, r3, #1, 0
    e590:	e58d1000 	str	r1, [sp]
    e594:	e1a022a2 	lsr	r2, r2, #5
    e598:	e1a01000 	mov	r1, r0
    e59c:	e59f0094 	ldr	r0, [pc, #148]	; e638 <lfn_print_ent+0xe4>
    e5a0:	eb0013e2 	bl	13530 <printk>
    e5a4:	e1a01004 	mov	r1, r4
    e5a8:	e3a0200a 	mov	r2, #10, 0
    e5ac:	e28d000c 	add	r0, sp, #12, 0
    e5b0:	eb00136c 	bl	13368 <memcpy>
    e5b4:	e3a0200c 	mov	r2, #12, 0
    e5b8:	e287100e 	add	r1, r7, #14, 0
    e5bc:	e28d0016 	add	r0, sp, #22, 0
    e5c0:	eb001368 	bl	13368 <memcpy>
    e5c4:	e3a02004 	mov	r2, #4, 0
    e5c8:	e287101c 	add	r1, r7, #28, 0
    e5cc:	e28d0022 	add	r0, sp, #34, 0	; 0x22
    e5d0:	eb001364 	bl	13368 <memcpy>
    e5d4:	e3a03000 	mov	r3, #0, 0
    e5d8:	e1a04003 	mov	r4, r3
    e5dc:	e59f6058 	ldr	r6, [pc, #88]	; e63c <lfn_print_ent+0xe8>
    e5e0:	e5cd3026 	strb	r3, [sp, #38]	; 0x26
    e5e4:	e28d500d 	add	r5, sp, #13, 0
    e5e8:	e5553001 	ldrb	r3, [r5, #-1]
    e5ec:	e3530000 	cmp	r3, #0, 0
    e5f0:	1a000002 	bne	e600 <lfn_print_ent+0xac>
    e5f4:	e5d52000 	ldrb	r2, [r5]
    e5f8:	e3520000 	cmp	r2, #0, 0
    e5fc:	0a000007 	beq	e620 <lfn_print_ent+0xcc>
    e600:	e1a01004 	mov	r1, r4
    e604:	e1a02003 	mov	r2, r3
    e608:	e1a00006 	mov	r0, r6
    e60c:	e2844002 	add	r4, r4, #2, 0
    e610:	eb0013c6 	bl	13530 <printk>
    e614:	e354001a 	cmp	r4, #26, 0
    e618:	e2855002 	add	r5, r5, #2, 0
    e61c:	1afffff1 	bne	e5e8 <lfn_print_ent+0x94>
    e620:	e1a02008 	mov	r2, r8
    e624:	e5d7100d 	ldrb	r1, [r7, #13]
    e628:	e59f0010 	ldr	r0, [pc, #16]	; e640 <lfn_print_ent+0xec>
    e62c:	eb0013bf 	bl	13530 <printk>
    e630:	e28dd028 	add	sp, sp, #40, 0	; 0x28
    e634:	e8bd81f0 	pop	{r4, r5, r6, r7, r8, pc}
    e638:	00015350 	.word	0x00015350
    e63c:	0001537c 	.word	0x0001537c
    e640:	00015394 	.word	0x00015394

0000e644 <lfn_get_name>:
    e644:	e3a03000 	mov	r3, #0, 0
    e648:	e92d43f0 	push	{r4, r5, r6, r7, r8, r9, lr}
    e64c:	e59f419c 	ldr	r4, [pc, #412]	; e7f0 <lfn_get_name+0x1ac>
    e650:	e2517001 	subs	r7, r1, #1, 0
    e654:	e24dd00c 	sub	sp, sp, #12, 0
    e658:	e5c43000 	strb	r3, [r4]
    e65c:	4a000043 	bmi	e770 <lfn_get_name+0x12c>
    e660:	e0805287 	add	r5, r0, r7, lsl #5
    e664:	e5d5300b 	ldrb	r3, [r5, #11]
    e668:	e353000f 	cmp	r3, #15, 0
    e66c:	1a000057 	bne	e7d0 <lfn_get_name+0x18c>
    e670:	e1a06005 	mov	r6, r5
    e674:	e285900a 	add	r9, r5, #10, 0
    e678:	e5d60001 	ldrb	r0, [r6, #1]
    e67c:	e5d63002 	ldrb	r3, [r6, #2]
    e680:	e3500000 	cmp	r0, #0, 0
    e684:	1a000047 	bne	e7a8 <lfn_get_name+0x164>
    e688:	e3530000 	cmp	r3, #0, 0
    e68c:	0a00000b 	beq	e6c0 <lfn_get_name+0x7c>
    e690:	e1800403 	orr	r0, r0, r3, lsl #8
    e694:	eb000226 	bl	ef34 <to_utf8>
    e698:	e1a08000 	mov	r8, r0
    e69c:	e1a00004 	mov	r0, r4
    e6a0:	e1a01008 	mov	r1, r8
    e6a4:	eb0014b4 	bl	1397c <strcat>
    e6a8:	e1a00008 	mov	r0, r8
    e6ac:	eb0014d2 	bl	139fc <strlen>
    e6b0:	e2866002 	add	r6, r6, #2, 0
    e6b4:	e1560009 	cmp	r6, r9
    e6b8:	e0844000 	add	r4, r4, r0
    e6bc:	1affffed 	bne	e678 <lfn_get_name+0x34>
    e6c0:	e1a06005 	mov	r6, r5
    e6c4:	e285900c 	add	r9, r5, #12, 0
    e6c8:	e5d6000e 	ldrb	r0, [r6, #14]
    e6cc:	e5d6300f 	ldrb	r3, [r6, #15]
    e6d0:	e3500000 	cmp	r0, #0, 0
    e6d4:	1a000038 	bne	e7bc <lfn_get_name+0x178>
    e6d8:	e3530000 	cmp	r3, #0, 0
    e6dc:	0a00000b 	beq	e710 <lfn_get_name+0xcc>
    e6e0:	e1800403 	orr	r0, r0, r3, lsl #8
    e6e4:	eb000212 	bl	ef34 <to_utf8>
    e6e8:	e1a08000 	mov	r8, r0
    e6ec:	e1a00004 	mov	r0, r4
    e6f0:	e1a01008 	mov	r1, r8
    e6f4:	eb0014a0 	bl	1397c <strcat>
    e6f8:	e1a00008 	mov	r0, r8
    e6fc:	eb0014be 	bl	139fc <strlen>
    e700:	e2866002 	add	r6, r6, #2, 0
    e704:	e1560009 	cmp	r6, r9
    e708:	e0844000 	add	r4, r4, r0
    e70c:	1affffed 	bne	e6c8 <lfn_get_name+0x84>
    e710:	e1a06005 	mov	r6, r5
    e714:	e2859004 	add	r9, r5, #4, 0
    e718:	e5d6001c 	ldrb	r0, [r6, #28]
    e71c:	e5d6301d 	ldrb	r3, [r6, #29]
    e720:	e3500000 	cmp	r0, #0, 0
    e724:	1a000016 	bne	e784 <lfn_get_name+0x140>
    e728:	e3530000 	cmp	r3, #0, 0
    e72c:	0a00000b 	beq	e760 <lfn_get_name+0x11c>
    e730:	e1800403 	orr	r0, r0, r3, lsl #8
    e734:	eb0001fe 	bl	ef34 <to_utf8>
    e738:	e1a08000 	mov	r8, r0
    e73c:	e1a00004 	mov	r0, r4
    e740:	e1a01008 	mov	r1, r8
    e744:	eb00148c 	bl	1397c <strcat>
    e748:	e1a00008 	mov	r0, r8
    e74c:	eb0014aa 	bl	139fc <strlen>
    e750:	e2866002 	add	r6, r6, #2, 0
    e754:	e1560009 	cmp	r6, r9
    e758:	e0844000 	add	r4, r4, r0
    e75c:	1affffed 	bne	e718 <lfn_get_name+0xd4>
    e760:	e2477001 	sub	r7, r7, #1, 0
    e764:	e3770001 	cmn	r7, #1, 0
    e768:	e2455020 	sub	r5, r5, #32, 0
    e76c:	1affffbc 	bne	e664 <lfn_get_name+0x20>
    e770:	e3a03000 	mov	r3, #0, 0
    e774:	e59f0074 	ldr	r0, [pc, #116]	; e7f0 <lfn_get_name+0x1ac>
    e778:	e5c43000 	strb	r3, [r4]
    e77c:	e28dd00c 	add	sp, sp, #12, 0
    e780:	e8bd83f0 	pop	{r4, r5, r6, r7, r8, r9, pc}
    e784:	e35000ff 	cmp	r0, #255, 0	; 0xff
    e788:	1affffe8 	bne	e730 <lfn_get_name+0xec>
    e78c:	e35300ff 	cmp	r3, #255, 0	; 0xff
    e790:	1affffe6 	bne	e730 <lfn_get_name+0xec>
    e794:	e2477001 	sub	r7, r7, #1, 0
    e798:	e3770001 	cmn	r7, #1, 0
    e79c:	e2455020 	sub	r5, r5, #32, 0
    e7a0:	1affffaf 	bne	e664 <lfn_get_name+0x20>
    e7a4:	eafffff1 	b	e770 <lfn_get_name+0x12c>
    e7a8:	e35000ff 	cmp	r0, #255, 0	; 0xff
    e7ac:	1affffb7 	bne	e690 <lfn_get_name+0x4c>
    e7b0:	e35300ff 	cmp	r3, #255, 0	; 0xff
    e7b4:	1affffb5 	bne	e690 <lfn_get_name+0x4c>
    e7b8:	eaffffc0 	b	e6c0 <lfn_get_name+0x7c>
    e7bc:	e35000ff 	cmp	r0, #255, 0	; 0xff
    e7c0:	1affffc6 	bne	e6e0 <lfn_get_name+0x9c>
    e7c4:	e35300ff 	cmp	r3, #255, 0	; 0xff
    e7c8:	1affffc4 	bne	e6e0 <lfn_get_name+0x9c>
    e7cc:	eaffffcf 	b	e710 <lfn_get_name+0xcc>
    e7d0:	e59f201c 	ldr	r2, [pc, #28]	; e7f4 <lfn_get_name+0x1b0>
    e7d4:	e3a03055 	mov	r3, #85, 0	; 0x55
    e7d8:	e59f1018 	ldr	r1, [pc, #24]	; e7f8 <lfn_get_name+0x1b4>
    e7dc:	e58d2000 	str	r2, [sp]
    e7e0:	e59f0014 	ldr	r0, [pc, #20]	; e7fc <lfn_get_name+0x1b8>
    e7e4:	e59f2014 	ldr	r2, [pc, #20]	; e800 <lfn_get_name+0x1bc>
    e7e8:	eb001350 	bl	13530 <printk>
    e7ec:	eb001494 	bl	13a44 <clean_reboot>
    e7f0:	00017848 	.word	0x00017848
    e7f4:	000153b0 	.word	0x000153b0
    e7f8:	000152f4 	.word	0x000152f4
    e7fc:	00013f8c 	.word	0x00013f8c
    e800:	000155bc 	.word	0x000155bc

0000e804 <lfn_print>:
    e804:	e92d43f0 	push	{r4, r5, r6, r7, r8, r9, lr}
    e808:	e2517000 	subs	r7, r1, #0, 0
    e80c:	d3a0305f 	movle	r3, #95, 0	; 0x5f
    e810:	d59f2138 	ldrle	r2, [pc, #312]	; e950 <lfn_print+0x14c>
    e814:	e24dd00c 	sub	sp, sp, #12, 0
    e818:	da00003b 	ble	e90c <lfn_print+0x108>
    e81c:	e1a06002 	mov	r6, r2
    e820:	e2472001 	sub	r2, r7, #1, 0
    e824:	e3520001 	cmp	r2, #1, 0
    e828:	8a000040 	bhi	e930 <lfn_print+0x12c>
    e82c:	e3530000 	cmp	r3, #0, 0
    e830:	e1a09000 	mov	r9, r0
    e834:	1a00001c 	bne	e8ac <lfn_print+0xa8>
    e838:	e5d03000 	ldrb	r3, [r0]
    e83c:	e20320e5 	and	r2, r3, #229, 0	; 0xe5
    e840:	e35200e5 	cmp	r2, #229, 0	; 0xe5
    e844:	0a00002e 	beq	e904 <lfn_print+0x100>
    e848:	e5d0100d 	ldrb	r1, [r0, #13]
    e84c:	e1510006 	cmp	r1, r6
    e850:	1a000033 	bne	e924 <lfn_print+0x120>
    e854:	e3570002 	cmp	r7, #2, 0
    e858:	1a000006 	bne	e878 <lfn_print+0x74>
    e85c:	e5d02020 	ldrb	r2, [r0, #32]
    e860:	e20220e5 	and	r2, r2, #229, 0	; 0xe5
    e864:	e35200e5 	cmp	r2, #229, 0	; 0xe5
    e868:	0a000025 	beq	e904 <lfn_print+0x100>
    e86c:	e5d0202d 	ldrb	r2, [r0, #45]	; 0x2d
    e870:	e1520001 	cmp	r2, r1
    e874:	1a00002a 	bne	e924 <lfn_print+0x120>
    e878:	e3130040 	tst	r3, #64, 0	; 0x40
    e87c:	03a0306b 	moveq	r3, #107, 0	; 0x6b
    e880:	059f20cc 	ldreq	r2, [pc, #204]	; e954 <lfn_print+0x150>
    e884:	0a000020 	beq	e90c <lfn_print+0x108>
    e888:	e247737e 	sub	r7, r7, #-134217727	; 0xf8000001
    e88c:	e7d93287 	ldrb	r3, [r9, r7, lsl #5]
    e890:	e20330bf 	and	r3, r3, #191, 0	; 0xbf
    e894:	e3530001 	cmp	r3, #1, 0
    e898:	13a0306c 	movne	r3, #108, 0	; 0x6c
    e89c:	159f20b4 	ldrne	r2, [pc, #180]	; e958 <lfn_print+0x154>
    e8a0:	1a000019 	bne	e90c <lfn_print+0x108>
    e8a4:	e28dd00c 	add	sp, sp, #12, 0
    e8a8:	e8bd83f0 	pop	{r4, r5, r6, r7, r8, r9, pc}
    e8ac:	e1a04000 	mov	r4, r0
    e8b0:	e3a05000 	mov	r5, #0, 0
    e8b4:	e59f80a0 	ldr	r8, [pc, #160]	; e95c <lfn_print+0x158>
    e8b8:	e5d43000 	ldrb	r3, [r4]
    e8bc:	e20330e5 	and	r3, r3, #229, 0	; 0xe5
    e8c0:	e35300e5 	cmp	r3, #229, 0	; 0xe5
    e8c4:	0a00000e 	beq	e904 <lfn_print+0x100>
    e8c8:	e1a01005 	mov	r1, r5
    e8cc:	e1a00008 	mov	r0, r8
    e8d0:	eb001316 	bl	13530 <printk>
    e8d4:	e1a01006 	mov	r1, r6
    e8d8:	e1a00004 	mov	r0, r4
    e8dc:	ebffff1c 	bl	e554 <lfn_print_ent>
    e8e0:	e5d4300d 	ldrb	r3, [r4, #13]
    e8e4:	e1530006 	cmp	r3, r6
    e8e8:	1a00000d 	bne	e924 <lfn_print+0x120>
    e8ec:	e2855001 	add	r5, r5, #1, 0
    e8f0:	e1570005 	cmp	r7, r5
    e8f4:	e2844020 	add	r4, r4, #32, 0
    e8f8:	1affffee 	bne	e8b8 <lfn_print+0xb4>
    e8fc:	e5d93000 	ldrb	r3, [r9]
    e900:	eaffffdc 	b	e878 <lfn_print+0x74>
    e904:	e3a03064 	mov	r3, #100, 0	; 0x64
    e908:	e59f2050 	ldr	r2, [pc, #80]	; e960 <lfn_print+0x15c>
    e90c:	e59f1050 	ldr	r1, [pc, #80]	; e964 <lfn_print+0x160>
    e910:	e58d2000 	str	r2, [sp]
    e914:	e59f004c 	ldr	r0, [pc, #76]	; e968 <lfn_print+0x164>
    e918:	e59f204c 	ldr	r2, [pc, #76]	; e96c <lfn_print+0x168>
    e91c:	eb001303 	bl	13530 <printk>
    e920:	eb001447 	bl	13a44 <clean_reboot>
    e924:	e3a03069 	mov	r3, #105, 0	; 0x69
    e928:	e59f2040 	ldr	r2, [pc, #64]	; e970 <lfn_print+0x16c>
    e92c:	eafffff6 	b	e90c <lfn_print+0x108>
    e930:	e59f203c 	ldr	r2, [pc, #60]	; e974 <lfn_print+0x170>
    e934:	e3a03062 	mov	r3, #98, 0	; 0x62
    e938:	e59f1024 	ldr	r1, [pc, #36]	; e964 <lfn_print+0x160>
    e93c:	e58d2000 	str	r2, [sp]
    e940:	e59f0030 	ldr	r0, [pc, #48]	; e978 <lfn_print+0x174>
    e944:	e59f2020 	ldr	r2, [pc, #32]	; e96c <lfn_print+0x168>
    e948:	eb0012f8 	bl	13530 <printk>
    e94c:	eb00143c 	bl	13a44 <clean_reboot>
    e950:	000153d0 	.word	0x000153d0
    e954:	00015478 	.word	0x00015478
    e958:	00015490 	.word	0x00015490
    e95c:	00015458 	.word	0x00015458
    e960:	00015438 	.word	0x00015438
    e964:	000152f4 	.word	0x000152f4
    e968:	00013f8c 	.word	0x00013f8c
    e96c:	000155cc 	.word	0x000155cc
    e970:	00015464 	.word	0x00015464
    e974:	00015424 	.word	0x00015424
    e978:	000153dc 	.word	0x000153dc

0000e97c <fat32_dir_filename>:
    e97c:	e92d4070 	push	{r4, r5, r6, lr}
    e980:	e1a05000 	mov	r5, r0
    e984:	e24dd008 	sub	sp, sp, #8, 0
    e988:	e1a00001 	mov	r0, r1
    e98c:	e1a06002 	mov	r6, r2
    e990:	e1a04001 	mov	r4, r1
    e994:	ebfffbd5 	bl	d8f0 <fat32_dirent_free>
    e998:	e2503000 	subs	r3, r0, #0, 0
    e99c:	13a03071 	movne	r3, #113, 0	; 0x71
    e9a0:	159f2310 	ldrne	r2, [pc, #784]	; ecb8 <fat32_dir_filename+0x33c>
    e9a4:	1a0000ba 	bne	ec94 <fat32_dir_filename+0x318>
    e9a8:	e5d4200b 	ldrb	r2, [r4, #11]
    e9ac:	e352000f 	cmp	r2, #15, 0
    e9b0:	0a000087 	beq	ebd4 <fat32_dir_filename+0x258>
    e9b4:	e3120038 	tst	r2, #56, 0	; 0x38
    e9b8:	03a0307f 	moveq	r3, #127, 0	; 0x7f
    e9bc:	059f22f8 	ldreq	r2, [pc, #760]	; ecbc <fat32_dir_filename+0x340>
    e9c0:	0a0000b3 	beq	ec94 <fat32_dir_filename+0x318>
    e9c4:	e5d4200c 	ldrb	r2, [r4, #12]
    e9c8:	e5d41000 	ldrb	r1, [r4]
    e9cc:	e2422018 	sub	r2, r2, #24, 0
    e9d0:	e16f2f12 	clz	r2, r2
    e9d4:	e3510020 	cmp	r1, #32, 0
    e9d8:	e1a022a2 	lsr	r2, r2, #5
    e9dc:	0a000007 	beq	ea00 <fat32_dir_filename+0x84>
    e9e0:	e2413041 	sub	r3, r1, #65, 0	; 0x41
    e9e4:	e3530019 	cmp	r3, #25, 0
    e9e8:	83a03000 	movhi	r3, #0, 0
    e9ec:	92023001 	andls	r3, r2, #1, 0
    e9f0:	e3530000 	cmp	r3, #0, 0
    e9f4:	1a000092 	bne	ec44 <fat32_dir_filename+0x2c8>
    e9f8:	e3a03001 	mov	r3, #1, 0
    e9fc:	e5c51000 	strb	r1, [r5]
    ea00:	e5d41001 	ldrb	r1, [r4, #1]
    ea04:	e3510020 	cmp	r1, #32, 0
    ea08:	0a000007 	beq	ea2c <fat32_dir_filename+0xb0>
    ea0c:	e2410041 	sub	r0, r1, #65, 0	; 0x41
    ea10:	e3500019 	cmp	r0, #25, 0
    ea14:	83a00000 	movhi	r0, #0, 0
    ea18:	92020001 	andls	r0, r2, #1, 0
    ea1c:	e3500000 	cmp	r0, #0, 0
    ea20:	1a00008a 	bne	ec50 <fat32_dir_filename+0x2d4>
    ea24:	e7c51003 	strb	r1, [r5, r3]
    ea28:	e2833001 	add	r3, r3, #1, 0
    ea2c:	e5d41002 	ldrb	r1, [r4, #2]
    ea30:	e3510020 	cmp	r1, #32, 0
    ea34:	0a000007 	beq	ea58 <fat32_dir_filename+0xdc>
    ea38:	e2410041 	sub	r0, r1, #65, 0	; 0x41
    ea3c:	e3500019 	cmp	r0, #25, 0
    ea40:	83a00000 	movhi	r0, #0, 0
    ea44:	92020001 	andls	r0, r2, #1, 0
    ea48:	e3500000 	cmp	r0, #0, 0
    ea4c:	1a000082 	bne	ec5c <fat32_dir_filename+0x2e0>
    ea50:	e7c51003 	strb	r1, [r5, r3]
    ea54:	e2833001 	add	r3, r3, #1, 0
    ea58:	e5d41003 	ldrb	r1, [r4, #3]
    ea5c:	e3510020 	cmp	r1, #32, 0
    ea60:	0a000007 	beq	ea84 <fat32_dir_filename+0x108>
    ea64:	e2410041 	sub	r0, r1, #65, 0	; 0x41
    ea68:	e3500019 	cmp	r0, #25, 0
    ea6c:	83a00000 	movhi	r0, #0, 0
    ea70:	92020001 	andls	r0, r2, #1, 0
    ea74:	e3500000 	cmp	r0, #0, 0
    ea78:	1a00007a 	bne	ec68 <fat32_dir_filename+0x2ec>
    ea7c:	e7c51003 	strb	r1, [r5, r3]
    ea80:	e2833001 	add	r3, r3, #1, 0
    ea84:	e5d41004 	ldrb	r1, [r4, #4]
    ea88:	e3510020 	cmp	r1, #32, 0
    ea8c:	0a000007 	beq	eab0 <fat32_dir_filename+0x134>
    ea90:	e2410041 	sub	r0, r1, #65, 0	; 0x41
    ea94:	e3500019 	cmp	r0, #25, 0
    ea98:	83a00000 	movhi	r0, #0, 0
    ea9c:	92020001 	andls	r0, r2, #1, 0
    eaa0:	e3500000 	cmp	r0, #0, 0
    eaa4:	1a000072 	bne	ec74 <fat32_dir_filename+0x2f8>
    eaa8:	e7c51003 	strb	r1, [r5, r3]
    eaac:	e2833001 	add	r3, r3, #1, 0
    eab0:	e5d41005 	ldrb	r1, [r4, #5]
    eab4:	e3510020 	cmp	r1, #32, 0
    eab8:	0a000007 	beq	eadc <fat32_dir_filename+0x160>
    eabc:	e2410041 	sub	r0, r1, #65, 0	; 0x41
    eac0:	e3500019 	cmp	r0, #25, 0
    eac4:	83a00000 	movhi	r0, #0, 0
    eac8:	92020001 	andls	r0, r2, #1, 0
    eacc:	e3500000 	cmp	r0, #0, 0
    ead0:	1a00006a 	bne	ec80 <fat32_dir_filename+0x304>
    ead4:	e7c51003 	strb	r1, [r5, r3]
    ead8:	e2833001 	add	r3, r3, #1, 0
    eadc:	e5d41006 	ldrb	r1, [r4, #6]
    eae0:	e3510020 	cmp	r1, #32, 0
    eae4:	0a000007 	beq	eb08 <fat32_dir_filename+0x18c>
    eae8:	e2410041 	sub	r0, r1, #65, 0	; 0x41
    eaec:	e3500019 	cmp	r0, #25, 0
    eaf0:	83a00000 	movhi	r0, #0, 0
    eaf4:	92020001 	andls	r0, r2, #1, 0
    eaf8:	e3500000 	cmp	r0, #0, 0
    eafc:	1a00004d 	bne	ec38 <fat32_dir_filename+0x2bc>
    eb00:	e7c51003 	strb	r1, [r5, r3]
    eb04:	e2833001 	add	r3, r3, #1, 0
    eb08:	e5d41007 	ldrb	r1, [r4, #7]
    eb0c:	e3510020 	cmp	r1, #32, 0
    eb10:	0a000008 	beq	eb38 <fat32_dir_filename+0x1bc>
    eb14:	e2410041 	sub	r0, r1, #65, 0	; 0x41
    eb18:	e3500019 	cmp	r0, #25, 0
    eb1c:	83a00000 	movhi	r0, #0, 0
    eb20:	92020001 	andls	r0, r2, #1, 0
    eb24:	e3500000 	cmp	r0, #0, 0
    eb28:	12811020 	addne	r1, r1, #32, 0
    eb2c:	16ef1071 	uxtbne	r1, r1
    eb30:	e7c51003 	strb	r1, [r5, r3]
    eb34:	e2833001 	add	r3, r3, #1, 0
    eb38:	e3a0102e 	mov	r1, #46, 0	; 0x2e
    eb3c:	e7c51003 	strb	r1, [r5, r3]
    eb40:	e5d40008 	ldrb	r0, [r4, #8]
    eb44:	e283c001 	add	ip, r3, #1, 0
    eb48:	e2401041 	sub	r1, r0, #65, 0	; 0x41
    eb4c:	e3510019 	cmp	r1, #25, 0
    eb50:	83a01000 	movhi	r1, #0, 0
    eb54:	92021001 	andls	r1, r2, #1, 0
    eb58:	e3510000 	cmp	r1, #0, 0
    eb5c:	12800020 	addne	r0, r0, #32, 0
    eb60:	16ef0070 	uxtbne	r0, r0
    eb64:	e7c5000c 	strb	r0, [r5, ip]
    eb68:	e5d40009 	ldrb	r0, [r4, #9]
    eb6c:	e283c002 	add	ip, r3, #2, 0
    eb70:	e2401041 	sub	r1, r0, #65, 0	; 0x41
    eb74:	e3510019 	cmp	r1, #25, 0
    eb78:	83a01000 	movhi	r1, #0, 0
    eb7c:	92021001 	andls	r1, r2, #1, 0
    eb80:	e3510000 	cmp	r1, #0, 0
    eb84:	12800020 	addne	r0, r0, #32, 0
    eb88:	16ef0070 	uxtbne	r0, r0
    eb8c:	e7c5000c 	strb	r0, [r5, ip]
    eb90:	e5d4100a 	ldrb	r1, [r4, #10]
    eb94:	e1a06004 	mov	r6, r4
    eb98:	e241c041 	sub	ip, r1, #65, 0	; 0x41
    eb9c:	e35c0019 	cmp	ip, #25, 0
    eba0:	83a02000 	movhi	r2, #0, 0
    eba4:	92022001 	andls	r2, r2, #1, 0
    eba8:	e3520000 	cmp	r2, #0, 0
    ebac:	12811020 	addne	r1, r1, #32, 0
    ebb0:	e2830003 	add	r0, r3, #3, 0
    ebb4:	16ef1071 	uxtbne	r1, r1
    ebb8:	e7c51000 	strb	r1, [r5, r0]
    ebbc:	e3a02000 	mov	r2, #0, 0
    ebc0:	e1a00006 	mov	r0, r6
    ebc4:	e0853003 	add	r3, r5, r3
    ebc8:	e5c32004 	strb	r2, [r3, #4]
    ebcc:	e28dd008 	add	sp, sp, #8, 0
    ebd0:	e8bd8070 	pop	{r4, r5, r6, pc}
    ebd4:	e0462004 	sub	r2, r6, r4
    ebd8:	e3520020 	cmp	r2, #32, 0
    ebdc:	e1a022c2 	asr	r2, r2, #5
    ebe0:	da000031 	ble	ecac <fat32_dir_filename+0x330>
    ebe4:	e3a01001 	mov	r1, #1, 0
    ebe8:	e2843020 	add	r3, r4, #32, 0
    ebec:	ea000003 	b	ec00 <fat32_dir_filename+0x284>
    ebf0:	e2811001 	add	r1, r1, #1, 0
    ebf4:	e1520001 	cmp	r2, r1
    ebf8:	e2833020 	add	r3, r3, #32, 0
    ebfc:	da00002a 	ble	ecac <fat32_dir_filename+0x330>
    ec00:	e5d3000b 	ldrb	r0, [r3, #11]
    ec04:	e1a06003 	mov	r6, r3
    ec08:	e350000f 	cmp	r0, #15, 0
    ec0c:	0afffff7 	beq	ebf0 <fat32_dir_filename+0x274>
    ec10:	e3100030 	tst	r0, #48, 0	; 0x30
    ec14:	0a00001c 	beq	ec8c <fat32_dir_filename+0x310>
    ec18:	e1a00004 	mov	r0, r4
    ec1c:	ebfffe88 	bl	e644 <lfn_get_name>
    ec20:	e1a01000 	mov	r1, r0
    ec24:	e1a00005 	mov	r0, r5
    ec28:	eb00136b 	bl	139dc <strcpy>
    ec2c:	e1a00006 	mov	r0, r6
    ec30:	e28dd008 	add	sp, sp, #8, 0
    ec34:	e8bd8070 	pop	{r4, r5, r6, pc}
    ec38:	e2811020 	add	r1, r1, #32, 0
    ec3c:	e6ef1071 	uxtb	r1, r1
    ec40:	eaffffae 	b	eb00 <fat32_dir_filename+0x184>
    ec44:	e2811020 	add	r1, r1, #32, 0
    ec48:	e6ef1071 	uxtb	r1, r1
    ec4c:	eaffff69 	b	e9f8 <fat32_dir_filename+0x7c>
    ec50:	e2811020 	add	r1, r1, #32, 0
    ec54:	e6ef1071 	uxtb	r1, r1
    ec58:	eaffff71 	b	ea24 <fat32_dir_filename+0xa8>
    ec5c:	e2811020 	add	r1, r1, #32, 0
    ec60:	e6ef1071 	uxtb	r1, r1
    ec64:	eaffff79 	b	ea50 <fat32_dir_filename+0xd4>
    ec68:	e2811020 	add	r1, r1, #32, 0
    ec6c:	e6ef1071 	uxtb	r1, r1
    ec70:	eaffff81 	b	ea7c <fat32_dir_filename+0x100>
    ec74:	e2811020 	add	r1, r1, #32, 0
    ec78:	e6ef1071 	uxtb	r1, r1
    ec7c:	eaffff89 	b	eaa8 <fat32_dir_filename+0x12c>
    ec80:	e2811020 	add	r1, r1, #32, 0
    ec84:	e6ef1071 	uxtb	r1, r1
    ec88:	eaffff91 	b	ead4 <fat32_dir_filename+0x158>
    ec8c:	e3a0307b 	mov	r3, #123, 0	; 0x7b
    ec90:	e59f2028 	ldr	r2, [pc, #40]	; ecc0 <fat32_dir_filename+0x344>
    ec94:	e59f1028 	ldr	r1, [pc, #40]	; ecc4 <fat32_dir_filename+0x348>
    ec98:	e58d2000 	str	r2, [sp]
    ec9c:	e59f0024 	ldr	r0, [pc, #36]	; ecc8 <fat32_dir_filename+0x34c>
    eca0:	e59f2024 	ldr	r2, [pc, #36]	; eccc <fat32_dir_filename+0x350>
    eca4:	eb001221 	bl	13530 <printk>
    eca8:	eb001365 	bl	13a44 <clean_reboot>
    ecac:	e3a0307a 	mov	r3, #122, 0	; 0x7a
    ecb0:	e59f2018 	ldr	r2, [pc, #24]	; ecd0 <fat32_dir_filename+0x354>
    ecb4:	eafffff6 	b	ec94 <fat32_dir_filename+0x318>
    ecb8:	000154b0 	.word	0x000154b0
    ecbc:	00015510 	.word	0x00015510
    ecc0:	000154c8 	.word	0x000154c8
    ecc4:	000152f4 	.word	0x000152f4
    ecc8:	00013f8c 	.word	0x00013f8c
    eccc:	000155d8 	.word	0x000155d8
    ecd0:	00015568 	.word	0x00015568

0000ecd4 <fat32_lfn_print>:
    ecd4:	e92d40f0 	push	{r4, r5, r6, r7, lr}
    ecd8:	e5d1300b 	ldrb	r3, [r1, #11]
    ecdc:	e24dd00c 	sub	sp, sp, #12, 0
    ece0:	e353000f 	cmp	r3, #15, 0
    ece4:	0a000004 	beq	ecfc <fat32_lfn_print+0x28>
    ece8:	e3a05001 	mov	r5, #1, 0
    ecec:	ebfffd37 	bl	e1d0 <fat32_dirent_print>
    ecf0:	e1a00005 	mov	r0, r5
    ecf4:	e28dd00c 	add	sp, sp, #12, 0
    ecf8:	e8bd80f0 	pop	{r4, r5, r6, r7, pc}
    ecfc:	e1a06002 	mov	r6, r2
    ed00:	e1a07001 	mov	r7, r1
    ed04:	e1a01000 	mov	r1, r0
    ed08:	e59f0150 	ldr	r0, [pc, #336]	; ee60 <fat32_lfn_print+0x18c>
    ed0c:	eb001207 	bl	13530 <printk>
    ed10:	e3560000 	cmp	r6, #0, 0
    ed14:	da00004e 	ble	ee54 <fat32_lfn_print+0x180>
    ed18:	e1a04007 	mov	r4, r7
    ed1c:	e3a05000 	mov	r5, #0, 0
    ed20:	ea000003 	b	ed34 <fat32_lfn_print+0x60>
    ed24:	e2855001 	add	r5, r5, #1, 0
    ed28:	e1560005 	cmp	r6, r5
    ed2c:	e2844020 	add	r4, r4, #32, 0
    ed30:	0a000047 	beq	ee54 <fat32_lfn_print+0x180>
    ed34:	e5d4300b 	ldrb	r3, [r4, #11]
    ed38:	e353000f 	cmp	r3, #15, 0
    ed3c:	0afffff8 	beq	ed24 <fat32_lfn_print+0x50>
    ed40:	e3130030 	tst	r3, #48, 0	; 0x30
    ed44:	0a00003a 	beq	ee34 <fat32_lfn_print+0x160>
    ed48:	e59f0114 	ldr	r0, [pc, #276]	; ee64 <fat32_lfn_print+0x190>
    ed4c:	eb0011f7 	bl	13530 <printk>
    ed50:	e5d41000 	ldrb	r1, [r4]
    ed54:	e5d42001 	ldrb	r2, [r4, #1]
    ed58:	e5d43002 	ldrb	r3, [r4, #2]
    ed5c:	e08220a1 	add	r2, r2, r1, lsr #1
    ed60:	e0822381 	add	r2, r2, r1, lsl #7
    ed64:	e6ef2072 	uxtb	r2, r2
    ed68:	e08330a2 	add	r3, r3, r2, lsr #1
    ed6c:	e0833382 	add	r3, r3, r2, lsl #7
    ed70:	e5d42003 	ldrb	r2, [r4, #3]
    ed74:	e20330ff 	and	r3, r3, #255, 0	; 0xff
    ed78:	e08220a3 	add	r2, r2, r3, lsr #1
    ed7c:	e0822383 	add	r2, r2, r3, lsl #7
    ed80:	e5d43004 	ldrb	r3, [r4, #4]
    ed84:	e20220ff 	and	r2, r2, #255, 0	; 0xff
    ed88:	e08330a2 	add	r3, r3, r2, lsr #1
    ed8c:	e0833382 	add	r3, r3, r2, lsl #7
    ed90:	e5d42005 	ldrb	r2, [r4, #5]
    ed94:	e20330ff 	and	r3, r3, #255, 0	; 0xff
    ed98:	e08220a3 	add	r2, r2, r3, lsr #1
    ed9c:	e0822383 	add	r2, r2, r3, lsl #7
    eda0:	e5d43006 	ldrb	r3, [r4, #6]
    eda4:	e20220ff 	and	r2, r2, #255, 0	; 0xff
    eda8:	e08330a2 	add	r3, r3, r2, lsr #1
    edac:	e0833382 	add	r3, r3, r2, lsl #7
    edb0:	e5d42007 	ldrb	r2, [r4, #7]
    edb4:	e20330ff 	and	r3, r3, #255, 0	; 0xff
    edb8:	e08220a3 	add	r2, r2, r3, lsr #1
    edbc:	e0822383 	add	r2, r2, r3, lsl #7
    edc0:	e5d43008 	ldrb	r3, [r4, #8]
    edc4:	e20220ff 	and	r2, r2, #255, 0	; 0xff
    edc8:	e08330a2 	add	r3, r3, r2, lsr #1
    edcc:	e0833382 	add	r3, r3, r2, lsl #7
    edd0:	e5d42009 	ldrb	r2, [r4, #9]
    edd4:	e20330ff 	and	r3, r3, #255, 0	; 0xff
    edd8:	e08220a3 	add	r2, r2, r3, lsr #1
    eddc:	e0822383 	add	r2, r2, r3, lsl #7
    ede0:	e5d4300a 	ldrb	r3, [r4, #10]
    ede4:	e20220ff 	and	r2, r2, #255, 0	; 0xff
    ede8:	e08330a2 	add	r3, r3, r2, lsr #1
    edec:	e0832382 	add	r2, r3, r2, lsl #7
    edf0:	e6ef2072 	uxtb	r2, r2
    edf4:	e3a03000 	mov	r3, #0, 0
    edf8:	e1a01005 	mov	r1, r5
    edfc:	e1a00007 	mov	r0, r7
    ee00:	ebfffe7f 	bl	e804 <lfn_print>
    ee04:	e1a01005 	mov	r1, r5
    ee08:	e1a00007 	mov	r0, r7
    ee0c:	ebfffe0c 	bl	e644 <lfn_get_name>
    ee10:	e1a01000 	mov	r1, r0
    ee14:	e59f004c 	ldr	r0, [pc, #76]	; ee68 <fat32_lfn_print+0x194>
    ee18:	eb0011c4 	bl	13530 <printk>
    ee1c:	e2855001 	add	r5, r5, #1, 0
    ee20:	e1a00004 	mov	r0, r4
    ee24:	ebfffc18 	bl	de8c <fat32_dirent_print_helper>
    ee28:	e1a00005 	mov	r0, r5
    ee2c:	e28dd00c 	add	sp, sp, #12, 0
    ee30:	e8bd80f0 	pop	{r4, r5, r6, r7, pc}
    ee34:	e3a030ad 	mov	r3, #173, 0	; 0xad
    ee38:	e59f202c 	ldr	r2, [pc, #44]	; ee6c <fat32_lfn_print+0x198>
    ee3c:	e59f102c 	ldr	r1, [pc, #44]	; ee70 <fat32_lfn_print+0x19c>
    ee40:	e58d2000 	str	r2, [sp]
    ee44:	e59f0028 	ldr	r0, [pc, #40]	; ee74 <fat32_lfn_print+0x1a0>
    ee48:	e59f2028 	ldr	r2, [pc, #40]	; ee78 <fat32_lfn_print+0x1a4>
    ee4c:	eb0011b7 	bl	13530 <printk>
    ee50:	eb0012fb 	bl	13a44 <clean_reboot>
    ee54:	e3a030ac 	mov	r3, #172, 0	; 0xac
    ee58:	e59f201c 	ldr	r2, [pc, #28]	; ee7c <fat32_lfn_print+0x1a8>
    ee5c:	eafffff6 	b	ee3c <fat32_lfn_print+0x168>
    ee60:	00015244 	.word	0x00015244
    ee64:	0001432c 	.word	0x0001432c
    ee68:	00015570 	.word	0x00015570
    ee6c:	000154c8 	.word	0x000154c8
    ee70:	000152f4 	.word	0x000152f4
    ee74:	00013f8c 	.word	0x00013f8c
    ee78:	000155ec 	.word	0x000155ec
    ee7c:	00015594 	.word	0x00015594

0000ee80 <codepoint_len>:
    ee80:	e59f204c 	ldr	r2, [pc, #76]	; eed4 <codepoint_len+0x54>
    ee84:	e1a0c000 	mov	ip, r0
    ee88:	e5923000 	ldr	r3, [r2]
    ee8c:	e3530000 	cmp	r3, #0, 0
    ee90:	0a00000d 	beq	eecc <codepoint_len+0x4c>
    ee94:	e3a00000 	mov	r0, #0, 0
    ee98:	e5931004 	ldr	r1, [r3, #4]
    ee9c:	e151000c 	cmp	r1, ip
    eea0:	8a000002 	bhi	eeb0 <codepoint_len+0x30>
    eea4:	e5933008 	ldr	r3, [r3, #8]
    eea8:	e153000c 	cmp	r3, ip
    eeac:	2a000003 	bcs	eec0 <codepoint_len+0x40>
    eeb0:	e5b23004 	ldr	r3, [r2, #4]!
    eeb4:	e2800001 	add	r0, r0, #1, 0
    eeb8:	e3530000 	cmp	r3, #0, 0
    eebc:	1afffff5 	bne	ee98 <codepoint_len+0x18>
    eec0:	e3500005 	cmp	r0, #5, 0
    eec4:	a3e00000 	mvnge	r0, #0, 0
    eec8:	e12fff1e 	bx	lr
    eecc:	e1a00003 	mov	r0, r3
    eed0:	e12fff1e 	bx	lr
    eed4:	000176ec 	.word	0x000176ec

0000eed8 <utf8_len>:
    eed8:	e59f1050 	ldr	r1, [pc, #80]	; ef30 <utf8_len+0x58>
    eedc:	e5913000 	ldr	r3, [r1]
    eee0:	e3530000 	cmp	r3, #0, 0
    eee4:	0a00000f 	beq	ef28 <utf8_len+0x50>
    eee8:	e52de004 	push	{lr}		; (str lr, [sp, #-4]!)
    eeec:	e1a0e000 	mov	lr, r0
    eef0:	e3a00000 	mov	r0, #0, 0
    eef4:	ea000003 	b	ef08 <utf8_len+0x30>
    eef8:	e5b13004 	ldr	r3, [r1, #4]!
    eefc:	e2800001 	add	r0, r0, #1, 0
    ef00:	e3530000 	cmp	r3, #0, 0
    ef04:	0a000004 	beq	ef1c <utf8_len+0x44>
    ef08:	e5d32000 	ldrb	r2, [r3]
    ef0c:	e5d3c001 	ldrb	ip, [r3, #1]
    ef10:	e1ce3002 	bic	r3, lr, r2
    ef14:	e153000c 	cmp	r3, ip
    ef18:	1afffff6 	bne	eef8 <utf8_len+0x20>
    ef1c:	e3500005 	cmp	r0, #5, 0
    ef20:	a3e00000 	mvnge	r0, #0, 0
    ef24:	e49df004 	pop	{pc}		; (ldr pc, [sp], #4)
    ef28:	e1a00003 	mov	r0, r3
    ef2c:	e12fff1e 	bx	lr
    ef30:	000176ec 	.word	0x000176ec

0000ef34 <to_utf8>:
    ef34:	e92d4030 	push	{r4, r5, lr}
    ef38:	e59f50f8 	ldr	r5, [pc, #248]	; f038 <to_utf8+0x104>
    ef3c:	e595e000 	ldr	lr, [r5]
    ef40:	e35e0000 	cmp	lr, #0, 0
    ef44:	0a00002f 	beq	f008 <to_utf8+0xd4>
    ef48:	e1a0300e 	mov	r3, lr
    ef4c:	e1a01005 	mov	r1, r5
    ef50:	e3a02000 	mov	r2, #0, 0
    ef54:	e593c004 	ldr	ip, [r3, #4]
    ef58:	e150000c 	cmp	r0, ip
    ef5c:	3a000002 	bcc	ef6c <to_utf8+0x38>
    ef60:	e5933008 	ldr	r3, [r3, #8]
    ef64:	e1500003 	cmp	r0, r3
    ef68:	9a000003 	bls	ef7c <to_utf8+0x48>
    ef6c:	e5b13004 	ldr	r3, [r1, #4]!
    ef70:	e2822001 	add	r2, r2, #1, 0
    ef74:	e3530000 	cmp	r3, #0, 0
    ef78:	1afffff5 	bne	ef54 <to_utf8+0x20>
    ef7c:	e3520004 	cmp	r2, #4, 0
    ef80:	ca00002a 	bgt	f030 <to_utf8+0xfc>
    ef84:	e59e400c 	ldr	r4, [lr, #12]
    ef88:	e2423001 	sub	r3, r2, #1, 0
    ef8c:	e795c102 	ldr	ip, [r5, r2, lsl #2]
    ef90:	e0030394 	mul	r3, r4, r3
    ef94:	e5dc1000 	ldrb	r1, [ip]
    ef98:	e5dc5001 	ldrb	r5, [ip, #1]
    ef9c:	e0011330 	and	r1, r1, r0, lsr r3
    efa0:	e59fc094 	ldr	ip, [pc, #148]	; f03c <to_utf8+0x108>
    efa4:	e1811005 	orr	r1, r1, r5
    efa8:	e3520001 	cmp	r2, #1, 0
    efac:	e0433004 	sub	r3, r3, r4
    efb0:	e5cc1000 	strb	r1, [ip]
    efb4:	da00000f 	ble	eff8 <to_utf8+0xc4>
    efb8:	e5de5000 	ldrb	r5, [lr]
    efbc:	e5de1001 	ldrb	r1, [lr, #1]
    efc0:	e005e330 	and	lr, r5, r0, lsr r3
    efc4:	e181e00e 	orr	lr, r1, lr
    efc8:	e3520002 	cmp	r2, #2, 0
    efcc:	e5cce001 	strb	lr, [ip, #1]
    efd0:	e0433004 	sub	r3, r3, r4
    efd4:	0a000007 	beq	eff8 <to_utf8+0xc4>
    efd8:	e3520004 	cmp	r2, #4, 0
    efdc:	e005e330 	and	lr, r5, r0, lsr r3
    efe0:	e0433004 	sub	r3, r3, r4
    efe4:	00053330 	andeq	r3, r5, r0, lsr r3
    efe8:	e181e00e 	orr	lr, r1, lr
    efec:	01811003 	orreq	r1, r1, r3
    eff0:	e5cce002 	strb	lr, [ip, #2]
    eff4:	05cc1003 	strbeq	r1, [ip, #3]
    eff8:	e3a03000 	mov	r3, #0, 0
    effc:	e59f0038 	ldr	r0, [pc, #56]	; f03c <to_utf8+0x108>
    f000:	e7cc3002 	strb	r3, [ip, r2]
    f004:	e8bd8030 	pop	{r4, r5, pc}
    f008:	e59e200c 	ldr	r2, [lr, #12]
    f00c:	e5de3000 	ldrb	r3, [lr]
    f010:	e5de1001 	ldrb	r1, [lr, #1]
    f014:	e2622000 	rsb	r2, r2, #0, 0
    f018:	e0033230 	and	r3, r3, r0, lsr r2
    f01c:	e59fc018 	ldr	ip, [pc, #24]	; f03c <to_utf8+0x108>
    f020:	e1833001 	orr	r3, r3, r1
    f024:	e1a0200e 	mov	r2, lr
    f028:	e5cc3000 	strb	r3, [ip]
    f02c:	eafffff1 	b	eff8 <to_utf8+0xc4>
    f030:	e3a00000 	mov	r0, #0, 0
    f034:	e8bd8030 	pop	{r4, r5, pc}
    f038:	000176ec 	.word	0x000176ec
    f03c:	00017a48 	.word	0x00017a48

0000f040 <to_cp>:
    f040:	e92d4030 	push	{r4, r5, lr}
    f044:	e1a04000 	mov	r4, r0
    f048:	e59f00d0 	ldr	r0, [pc, #208]	; f120 <to_cp+0xe0>
    f04c:	e5d4e000 	ldrb	lr, [r4]
    f050:	e5905000 	ldr	r5, [r0]
    f054:	e3550000 	cmp	r5, #0, 0
    f058:	0a000028 	beq	f100 <to_cp+0xc0>
    f05c:	e1a02005 	mov	r2, r5
    f060:	e1a0c000 	mov	ip, r0
    f064:	e3a01000 	mov	r1, #0, 0
    f068:	ea000003 	b	f07c <to_cp+0x3c>
    f06c:	e5bc2004 	ldr	r2, [ip, #4]!
    f070:	e2811001 	add	r1, r1, #1, 0
    f074:	e3520000 	cmp	r2, #0, 0
    f078:	0a000004 	beq	f090 <to_cp+0x50>
    f07c:	e5d23000 	ldrb	r3, [r2]
    f080:	e5d22001 	ldrb	r2, [r2, #1]
    f084:	e1ce3003 	bic	r3, lr, r3
    f088:	e1530002 	cmp	r3, r2
    f08c:	1afffff6 	bne	f06c <to_cp+0x2c>
    f090:	e3510004 	cmp	r1, #4, 0
    f094:	ca00001f 	bgt	f118 <to_cp+0xd8>
    f098:	e595200c 	ldr	r2, [r5, #12]
    f09c:	e7900101 	ldr	r0, [r0, r1, lsl #2]
    f0a0:	e2413001 	sub	r3, r1, #1, 0
    f0a4:	e0030392 	mul	r3, r2, r3
    f0a8:	e5d00000 	ldrb	r0, [r0]
    f0ac:	e3510001 	cmp	r1, #1, 0
    f0b0:	e00ee000 	and	lr, lr, r0
    f0b4:	e1a0031e 	lsl	r0, lr, r3
    f0b8:	d8bd8030 	pople	{r4, r5, pc}
    f0bc:	e5d5c000 	ldrb	ip, [r5]
    f0c0:	e5d4e001 	ldrb	lr, [r4, #1]
    f0c4:	e0433002 	sub	r3, r3, r2
    f0c8:	e3510002 	cmp	r1, #2, 0
    f0cc:	e00ee00c 	and	lr, lr, ip
    f0d0:	e180031e 	orr	r0, r0, lr, lsl r3
    f0d4:	08bd8030 	popeq	{r4, r5, pc}
    f0d8:	e5d4e002 	ldrb	lr, [r4, #2]
    f0dc:	e3510004 	cmp	r1, #4, 0
    f0e0:	e0433002 	sub	r3, r3, r2
    f0e4:	e00c100e 	and	r1, ip, lr
    f0e8:	e1800311 	orr	r0, r0, r1, lsl r3
    f0ec:	05d41003 	ldrbeq	r1, [r4, #3]
    f0f0:	00433002 	subeq	r3, r3, r2
    f0f4:	000cc001 	andeq	ip, ip, r1
    f0f8:	0180031c 	orreq	r0, r0, ip, lsl r3
    f0fc:	e8bd8030 	pop	{r4, r5, pc}
    f100:	e5d53000 	ldrb	r3, [r5]
    f104:	e595000c 	ldr	r0, [r5, #12]
    f108:	e00ee003 	and	lr, lr, r3
    f10c:	e2600000 	rsb	r0, r0, #0, 0
    f110:	e1a0001e 	lsl	r0, lr, r0
    f114:	e8bd8030 	pop	{r4, r5, pc}
    f118:	e3a00000 	mov	r0, #0, 0
    f11c:	e8bd8030 	pop	{r4, r5, pc}
    f120:	000176ec 	.word	0x000176ec

0000f124 <test_main>:
    f124:	e92d43f0 	push	{r4, r5, r6, r7, r8, r9, lr}
    f128:	e59fe0d0 	ldr	lr, [pc, #208]	; f200 <test_main+0xdc>
    f12c:	e24dd02c 	sub	sp, sp, #44, 0	; 0x2c
    f130:	e28dc008 	add	ip, sp, #8, 0
    f134:	e8be000f 	ldm	lr!, {r0, r1, r2, r3}
    f138:	e8ac000f 	stmia	ip!, {r0, r1, r2, r3}
    f13c:	e89e000f 	ldm	lr, {r0, r1, r2, r3}
    f140:	e88c000f 	stm	ip, {r0, r1, r2, r3}
    f144:	e59f00b8 	ldr	r0, [pc, #184]	; f204 <test_main+0xe0>
    f148:	eb0010f8 	bl	13530 <printk>
    f14c:	e59f00b4 	ldr	r0, [pc, #180]	; f208 <test_main+0xe4>
    f150:	eb0010f6 	bl	13530 <printk>
    f154:	e59d0008 	ldr	r0, [sp, #8]
    f158:	e3500000 	cmp	r0, #0, 0
    f15c:	0a00001c 	beq	f1d4 <test_main+0xb0>
    f160:	e59f80a4 	ldr	r8, [pc, #164]	; f20c <test_main+0xe8>
    f164:	e59f50a4 	ldr	r5, [pc, #164]	; f210 <test_main+0xec>
    f168:	e59f70a4 	ldr	r7, [pc, #164]	; f214 <test_main+0xf0>
    f16c:	e28d6008 	add	r6, sp, #8, 0
    f170:	ebffff6f 	bl	ef34 <to_utf8>
    f174:	e2504000 	subs	r4, r0, #0, 0
    f178:	0a000018 	beq	f1e0 <test_main+0xbc>
    f17c:	ebffffaf 	bl	f040 <to_cp>
    f180:	e1a01004 	mov	r1, r4
    f184:	e1a02000 	mov	r2, r0
    f188:	e1a00008 	mov	r0, r8
    f18c:	eb0010e7 	bl	13530 <printk>
    f190:	e5d41000 	ldrb	r1, [r4]
    f194:	e3510000 	cmp	r1, #0, 0
    f198:	0a000008 	beq	f1c0 <test_main+0x9c>
    f19c:	e1e09004 	mvn	r9, r4
    f1a0:	e2844001 	add	r4, r4, #1, 0
    f1a4:	e1a00005 	mov	r0, r5
    f1a8:	eb0010e0 	bl	13530 <printk>
    f1ac:	e4d41001 	ldrb	r1, [r4], #1
    f1b0:	e0893004 	add	r3, r9, r4
    f1b4:	e3530004 	cmp	r3, #4, 0
    f1b8:	13510000 	cmpne	r1, #0, 0
    f1bc:	1afffff8 	bne	f1a4 <test_main+0x80>
    f1c0:	e1a00007 	mov	r0, r7
    f1c4:	eb0010d9 	bl	13530 <printk>
    f1c8:	e5b60004 	ldr	r0, [r6, #4]!
    f1cc:	e3500000 	cmp	r0, #0, 0
    f1d0:	1affffe6 	bne	f170 <test_main+0x4c>
    f1d4:	e3a00000 	mov	r0, #0, 0
    f1d8:	e28dd02c 	add	sp, sp, #44, 0	; 0x2c
    f1dc:	e8bd83f0 	pop	{r4, r5, r6, r7, r8, r9, pc}
    f1e0:	e59f2030 	ldr	r2, [pc, #48]	; f218 <test_main+0xf4>
    f1e4:	e3a0306c 	mov	r3, #108, 0	; 0x6c
    f1e8:	e59f102c 	ldr	r1, [pc, #44]	; f21c <test_main+0xf8>
    f1ec:	e58d2000 	str	r2, [sp]
    f1f0:	e59f0028 	ldr	r0, [pc, #40]	; f220 <test_main+0xfc>
    f1f4:	e59f2028 	ldr	r2, [pc, #40]	; f224 <test_main+0x100>
    f1f8:	eb0010cc 	bl	13530 <printk>
    f1fc:	eb001210 	bl	13a44 <clean_reboot>
    f200:	000156b4 	.word	0x000156b4
    f204:	000155fc 	.word	0x000155fc
    f208:	00015628 	.word	0x00015628
    f20c:	000156a0 	.word	0x000156a0
    f210:	000151c0 	.word	0x000151c0
    f214:	0001432c 	.word	0x0001432c
    f218:	00015698 	.word	0x00015698
    f21c:	00015654 	.word	0x00015654
    f220:	00013f8c 	.word	0x00013f8c
    f224:	000156d4 	.word	0x000156d4

0000f228 <do_data_transfer>:
    f228:	e59f2114 	ldr	r2, [pc, #276]	; f344 <do_data_transfer+0x11c>
    f22c:	e2003010 	and	r3, r0, #16, 0
    f230:	e3530000 	cmp	r3, #0, 0
    f234:	e92d4ff0 	push	{r4, r5, r6, r7, r8, r9, sl, fp, lr}
    f238:	13a02000 	movne	r2, #0, 0
    f23c:	e59f9104 	ldr	r9, [pc, #260]	; f348 <do_data_transfer+0x120>
    f240:	01a09002 	moveq	r9, r2
    f244:	03a02001 	moveq	r2, #1, 0
    f248:	e59fb0fc 	ldr	fp, [pc, #252]	; f34c <do_data_transfer+0x124>
    f24c:	e59f10fc 	ldr	r1, [pc, #252]	; f350 <do_data_transfer+0x128>
    f250:	e59b3004 	ldr	r3, [fp, #4]
    f254:	e24dd00c 	sub	sp, sp, #12, 0
    f258:	13a07020 	movne	r7, #32, 0
    f25c:	03a07010 	moveq	r7, #16, 0
    f260:	e59f60ec 	ldr	r6, [pc, #236]	; f354 <do_data_transfer+0x12c>
    f264:	01a06001 	moveq	r6, r1
    f268:	e3530000 	cmp	r3, #0, 0
    f26c:	13a0a000 	movne	sl, #0, 0
    f270:	e59b5038 	ldr	r5, [fp, #56]	; 0x38
    f274:	159f40dc 	ldrne	r4, [pc, #220]	; f358 <do_data_transfer+0x130>
    f278:	e58d2000 	str	r2, [sp]
    f27c:	e58d0004 	str	r0, [sp, #4]
    f280:	0a00001d 	beq	f2fc <do_data_transfer+0xd4>
    f284:	e59f80d0 	ldr	r8, [pc, #208]	; f35c <do_data_transfer+0x134>
    f288:	e5942030 	ldr	r2, [r4, #48]	; 0x30
    f28c:	e1120009 	tst	r2, r9
    f290:	1a000003 	bne	f2a4 <do_data_transfer+0x7c>
    f294:	e3a00064 	mov	r0, #100, 0	; 0x64
    f298:	eb00123d 	bl	13b94 <delay_us>
    f29c:	e2588001 	subs	r8, r8, #1, 0
    f2a0:	1afffff8 	bne	f288 <do_data_transfer+0x60>
    f2a4:	e5943030 	ldr	r3, [r4, #48]	; 0x30
    f2a8:	e5849030 	str	r9, [r4, #48]	; 0x30
    f2ac:	e0032006 	and	r2, r3, r6
    f2b0:	e1520007 	cmp	r2, r7
    f2b4:	1a00001c 	bne	f32c <do_data_transfer+0x104>
    f2b8:	e59d3000 	ldr	r3, [sp]
    f2bc:	e59b2010 	ldr	r2, [fp, #16]
    f2c0:	e3530000 	cmp	r3, #0, 0
    f2c4:	1a00000f 	bne	f308 <do_data_transfer+0xe0>
    f2c8:	e3520000 	cmp	r2, #0, 0
    f2cc:	11a03005 	movne	r3, r5
    f2d0:	0a000005 	beq	f2ec <do_data_transfer+0xc4>
    f2d4:	e5941020 	ldr	r1, [r4, #32]
    f2d8:	e4831004 	str	r1, [r3], #4
    f2dc:	e0421003 	sub	r1, r2, r3
    f2e0:	e1750001 	cmn	r5, r1
    f2e4:	1afffffa 	bne	f2d4 <do_data_transfer+0xac>
    f2e8:	e1a05003 	mov	r5, r3
    f2ec:	e59b3004 	ldr	r3, [fp, #4]
    f2f0:	e28aa001 	add	sl, sl, #1, 0
    f2f4:	e153000a 	cmp	r3, sl
    f2f8:	8affffe1 	bhi	f284 <do_data_transfer+0x5c>
    f2fc:	e3a00001 	mov	r0, #1, 0
    f300:	e28dd00c 	add	sp, sp, #12, 0
    f304:	e8bd8ff0 	pop	{r4, r5, r6, r7, r8, r9, sl, fp, pc}
    f308:	e3520000 	cmp	r2, #0, 0
    f30c:	0afffff6 	beq	f2ec <do_data_transfer+0xc4>
    f310:	e1a03005 	mov	r3, r5
    f314:	e4931004 	ldr	r1, [r3], #4
    f318:	e0420003 	sub	r0, r2, r3
    f31c:	e1750000 	cmn	r5, r0
    f320:	e5841020 	str	r1, [r4, #32]
    f324:	1afffffa 	bne	f314 <do_data_transfer+0xec>
    f328:	eaffffee 	b	f2e8 <do_data_transfer+0xc0>
    f32c:	e3a00000 	mov	r0, #0, 0
    f330:	e1a02823 	lsr	r2, r3, #16
    f334:	e1a02802 	lsl	r2, r2, #16
    f338:	e1cb24f0 	strd	r2, [fp, #64]	; 0x40
    f33c:	e28dd00c 	add	sp, sp, #12, 0
    f340:	e8bd8ff0 	pop	{r4, r5, r6, r7, r8, r9, sl, fp, pc}
    f344:	00008010 	.word	0x00008010
    f348:	00008020 	.word	0x00008020
    f34c:	00017a60 	.word	0x00017a60
    f350:	ffff0010 	.word	0xffff0010
    f354:	ffff0020 	.word	0xffff0020
    f358:	20300000 	.word	0x20300000
    f35c:	00004e21 	.word	0x00004e21

0000f360 <emmc_issue_command.constprop.0>:
    f360:	e3a02004 	mov	r2, #4, 0
    f364:	e92d40f0 	push	{r4, r5, r6, r7, lr}
    f368:	e24dd014 	sub	sp, sp, #20, 0
    f36c:	e58d0004 	str	r0, [sp, #4]
    f370:	e1a06001 	mov	r6, r1
    f374:	e28d000c 	add	r0, sp, #12, 0
    f378:	e08d1002 	add	r1, sp, r2
    f37c:	eb000ff9 	bl	13368 <memcpy>
    f380:	e59f71bc 	ldr	r7, [pc, #444]	; f544 <emmc_issue_command.constprop.0+0x1e4>
    f384:	e59d300c 	ldr	r3, [sp, #12]
    f388:	e5971004 	ldr	r1, [r7, #4]
    f38c:	e587300c 	str	r3, [r7, #12]
    f390:	e597300c 	ldr	r3, [r7, #12]
    f394:	e3510801 	cmp	r1, #65536	; 0x10000
    f398:	e58d300c 	str	r3, [sp, #12]
    f39c:	2a000040 	bcs	f4a4 <emmc_issue_command.constprop.0+0x144>
    f3a0:	e5972010 	ldr	r2, [r7, #16]
    f3a4:	e59f319c 	ldr	r3, [pc, #412]	; f548 <emmc_issue_command.constprop.0+0x1e8>
    f3a8:	e1822801 	orr	r2, r2, r1, lsl #16
    f3ac:	e5832004 	str	r2, [r3, #4]
    f3b0:	e5836008 	str	r6, [r3, #8]
    f3b4:	e59d200c 	ldr	r2, [sp, #12]
    f3b8:	e3a04e7d 	mov	r4, #2000	; 0x7d0
    f3bc:	e1a05003 	mov	r5, r3
    f3c0:	e59f6184 	ldr	r6, [pc, #388]	; f54c <emmc_issue_command.constprop.0+0x1ec>
    f3c4:	e583200c 	str	r2, [r3, #12]
    f3c8:	ea000003 	b	f3dc <emmc_issue_command.constprop.0+0x7c>
    f3cc:	e3a00001 	mov	r0, #1, 0
    f3d0:	eb0011f8 	bl	13bb8 <delay_ms>
    f3d4:	e2544001 	subs	r4, r4, #1, 0
    f3d8:	0a000041 	beq	f4e4 <emmc_issue_command.constprop.0+0x184>
    f3dc:	e5953030 	ldr	r3, [r5, #48]	; 0x30
    f3e0:	e1130006 	tst	r3, r6
    f3e4:	0afffff8 	beq	f3cc <emmc_issue_command.constprop.0+0x6c>
    f3e8:	e5952030 	ldr	r2, [r5, #48]	; 0x30
    f3ec:	e59f315c 	ldr	r3, [pc, #348]	; f550 <emmc_issue_command.constprop.0+0x1f0>
    f3f0:	e0021003 	and	r1, r2, r3
    f3f4:	e3510001 	cmp	r1, #1, 0
    f3f8:	e5853030 	str	r3, [r5, #48]	; 0x30
    f3fc:	1a000020 	bne	f484 <emmc_issue_command.constprop.0+0x124>
    f400:	e5dd2006 	ldrb	r2, [sp, #6]
    f404:	e2023003 	and	r3, r2, #3, 0
    f408:	e3530001 	cmp	r3, #1, 0
    f40c:	0a00003a 	beq	f4fc <emmc_issue_command.constprop.0+0x19c>
    f410:	e2833002 	add	r3, r3, #2, 0
    f414:	e2033003 	and	r3, r3, #3, 0
    f418:	e3530001 	cmp	r3, #1, 0
    f41c:	95953010 	ldrls	r3, [r5, #16]
    f420:	95873014 	strls	r3, [r7, #20]
    f424:	e3120020 	tst	r2, #32, 0
    f428:	1a00003c 	bne	f520 <emmc_issue_command.constprop.0+0x1c0>
    f42c:	e2022003 	and	r2, r2, #3, 0
    f430:	e3520003 	cmp	r2, #3, 0
    f434:	1a00000e 	bne	f474 <emmc_issue_command.constprop.0+0x114>
    f438:	e59f4114 	ldr	r4, [pc, #276]	; f554 <emmc_issue_command.constprop.0+0x1f4>
    f43c:	e59f6104 	ldr	r6, [pc, #260]	; f548 <emmc_issue_command.constprop.0+0x1e8>
    f440:	e59f5110 	ldr	r5, [pc, #272]	; f558 <emmc_issue_command.constprop.0+0x1f8>
    f444:	e5963030 	ldr	r3, [r6, #48]	; 0x30
    f448:	e1130005 	tst	r3, r5
    f44c:	0a000019 	beq	f4b8 <emmc_issue_command.constprop.0+0x158>
    f450:	e59f20f0 	ldr	r2, [pc, #240]	; f548 <emmc_issue_command.constprop.0+0x1e8>
    f454:	e59f3100 	ldr	r3, [pc, #256]	; f55c <emmc_issue_command.constprop.0+0x1fc>
    f458:	e5920030 	ldr	r0, [r2, #48]	; 0x30
    f45c:	e59f10fc 	ldr	r1, [pc, #252]	; f560 <emmc_issue_command.constprop.0+0x200>
    f460:	e0033000 	and	r3, r3, r0
    f464:	e3530002 	cmp	r3, #2, 0
    f468:	e5821030 	str	r1, [r2, #48]	; 0x30
    f46c:	05821030 	streq	r1, [r2, #48]	; 0x30
    f470:	1a000015 	bne	f4cc <emmc_issue_command.constprop.0+0x16c>
    f474:	e3a00001 	mov	r0, #1, 0
    f478:	e5c70000 	strb	r0, [r7]
    f47c:	e28dd014 	add	sp, sp, #20, 0
    f480:	e8bd80f0 	pop	{r4, r5, r6, r7, pc}
    f484:	e3a00000 	mov	r0, #0, 0
    f488:	e1a03822 	lsr	r3, r2, #16
    f48c:	e1a03803 	lsl	r3, r3, #16
    f490:	e5872044 	str	r2, [r7, #68]	; 0x44
    f494:	e5873040 	str	r3, [r7, #64]	; 0x40
    f498:	e5c70000 	strb	r0, [r7]
    f49c:	e28dd014 	add	sp, sp, #20, 0
    f4a0:	e8bd80f0 	pop	{r4, r5, r6, r7, pc}
    f4a4:	e59f00b8 	ldr	r0, [pc, #184]	; f564 <emmc_issue_command.constprop.0+0x204>
    f4a8:	eb001020 	bl	13530 <printk>
    f4ac:	e3a00000 	mov	r0, #0, 0
    f4b0:	e28dd014 	add	sp, sp, #20, 0
    f4b4:	e8bd80f0 	pop	{r4, r5, r6, r7, pc}
    f4b8:	e3a00064 	mov	r0, #100, 0	; 0x64
    f4bc:	eb0011b4 	bl	13b94 <delay_us>
    f4c0:	e2544001 	subs	r4, r4, #1, 0
    f4c4:	1affffde 	bne	f444 <emmc_issue_command.constprop.0+0xe4>
    f4c8:	eaffffe0 	b	f450 <emmc_issue_command.constprop.0+0xf0>
    f4cc:	e1a03820 	lsr	r3, r0, #16
    f4d0:	e1a03803 	lsl	r3, r3, #16
    f4d4:	e5870044 	str	r0, [r7, #68]	; 0x44
    f4d8:	e5873040 	str	r3, [r7, #64]	; 0x40
    f4dc:	e3a00000 	mov	r0, #0, 0
    f4e0:	eaffffed 	b	f49c <emmc_issue_command.constprop.0+0x13c>
    f4e4:	e59f007c 	ldr	r0, [pc, #124]	; f568 <emmc_issue_command.constprop.0+0x208>
    f4e8:	eb001010 	bl	13530 <printk>
    f4ec:	e1a00004 	mov	r0, r4
    f4f0:	e5c74000 	strb	r4, [r7]
    f4f4:	e28dd014 	add	sp, sp, #20, 0
    f4f8:	e8bd80f0 	pop	{r4, r5, r6, r7, pc}
    f4fc:	e595c010 	ldr	ip, [r5, #16]
    f500:	e5950014 	ldr	r0, [r5, #20]
    f504:	e5951018 	ldr	r1, [r5, #24]
    f508:	e595301c 	ldr	r3, [r5, #28]
    f50c:	e3120020 	tst	r2, #32, 0
    f510:	e1c701f8 	strd	r0, [r7, #24]
    f514:	e587c014 	str	ip, [r7, #20]
    f518:	e5873020 	str	r3, [r7, #32]
    f51c:	0affffc2 	beq	f42c <emmc_issue_command.constprop.0+0xcc>
    f520:	e59d0004 	ldr	r0, [sp, #4]
    f524:	ebffff3f 	bl	f228 <do_data_transfer>
    f528:	e5dd3006 	ldrb	r3, [sp, #6]
    f52c:	e2032003 	and	r2, r3, #3, 0
    f530:	e3520003 	cmp	r2, #3, 0
    f534:	0affffbf 	beq	f438 <emmc_issue_command.constprop.0+0xd8>
    f538:	e3130020 	tst	r3, #32, 0
    f53c:	1affffbd 	bne	f438 <emmc_issue_command.constprop.0+0xd8>
    f540:	eaffffcb 	b	f474 <emmc_issue_command.constprop.0+0x114>
    f544:	00017a60 	.word	0x00017a60
    f548:	20300000 	.word	0x20300000
    f54c:	00008001 	.word	0x00008001
    f550:	ffff0001 	.word	0xffff0001
    f554:	00004e21 	.word	0x00004e21
    f558:	00008002 	.word	0x00008002
    f55c:	ffef0002 	.word	0xffef0002
    f560:	ffff0002 	.word	0xffff0002
    f564:	000156e0 	.word	0x000156e0
    f568:	00015708 	.word	0x00015708

0000f56c <do_data_command>:
    f56c:	e1a0c001 	mov	ip, r1
    f570:	e1a01002 	mov	r1, r2
    f574:	e92d4ff0 	push	{r4, r5, r6, r7, r8, r9, sl, fp, lr}
    f578:	e59fb2f8 	ldr	fp, [pc, #760]	; f878 <do_data_command+0x30c>
    f57c:	e1a05003 	mov	r5, r3
    f580:	e5dbe024 	ldrb	lr, [fp, #36]	; 0x24
    f584:	e59b2010 	ldr	r2, [fp, #16]
    f588:	e35e0000 	cmp	lr, #0, 0
    f58c:	01a05483 	lsleq	r5, r3, #9
    f590:	e1520001 	cmp	r2, r1
    f594:	e24dd024 	sub	sp, sp, #36, 0	; 0x24
    f598:	8a000081 	bhi	f7a4 <do_data_command+0x238>
    f59c:	e3520c02 	cmp	r2, #512	; 0x200
    f5a0:	1a0000ac 	bne	f858 <do_data_command+0x2ec>
    f5a4:	e1a02b81 	lsl	r2, r1, #23
    f5a8:	e1a02ba2 	lsr	r2, r2, #23
    f5ac:	e3520000 	cmp	r2, #0, 0
    f5b0:	e1a024a1 	lsr	r2, r1, #9
    f5b4:	e58b2004 	str	r2, [fp, #4]
    f5b8:	1a00008e 	bne	f7f8 <do_data_command+0x28c>
    f5bc:	e3500000 	cmp	r0, #0, 0
    f5c0:	e58bc038 	str	ip, [fp, #56]	; 0x38
    f5c4:	0a000049 	beq	f6f0 <do_data_command+0x184>
    f5c8:	e3520001 	cmp	r2, #1, 0
    f5cc:	83a02019 	movhi	r2, #25, 0
    f5d0:	93a02018 	movls	r2, #24, 0
    f5d4:	e3a04003 	mov	r4, #3, 0
    f5d8:	e59f629c 	ldr	r6, [pc, #668]	; f87c <do_data_command+0x310>
    f5dc:	e59f929c 	ldr	r9, [pc, #668]	; f880 <do_data_command+0x314>
    f5e0:	e0862102 	add	r2, r6, r2, lsl #2
    f5e4:	e5923010 	ldr	r3, [r2, #16]
    f5e8:	e28660f0 	add	r6, r6, #240, 0	; 0xf0
    f5ec:	e58d3008 	str	r3, [sp, #8]
    f5f0:	e58d500c 	str	r5, [sp, #12]
    f5f4:	e59d3008 	ldr	r3, [sp, #8]
    f5f8:	e3a02004 	mov	r2, #4, 0
    f5fc:	e1a01009 	mov	r1, r9
    f600:	e28d001c 	add	r0, sp, #28, 0
    f604:	e58b3008 	str	r3, [fp, #8]
    f608:	eb000f56 	bl	13368 <memcpy>
    f60c:	e3a02004 	mov	r2, #4, 0
    f610:	e1a01006 	mov	r1, r6
    f614:	e28d001c 	add	r0, sp, #28, 0
    f618:	e59d701c 	ldr	r7, [sp, #28]
    f61c:	eb000f51 	bl	13368 <memcpy>
    f620:	e59d301c 	ldr	r3, [sp, #28]
    f624:	e1570003 	cmp	r7, r3
    f628:	0a00005a 	beq	f798 <do_data_command+0x22c>
    f62c:	e59b3008 	ldr	r3, [fp, #8]
    f630:	e28d1014 	add	r1, sp, #20, 0
    f634:	e3a02004 	mov	r2, #4, 0
    f638:	e28d001c 	add	r0, sp, #28, 0
    f63c:	e58d3014 	str	r3, [sp, #20]
    f640:	eb000f48 	bl	13368 <memcpy>
    f644:	e59d301c 	ldr	r3, [sp, #28]
    f648:	e59b1004 	ldr	r1, [fp, #4]
    f64c:	e58b300c 	str	r3, [fp, #12]
    f650:	e59b300c 	ldr	r3, [fp, #12]
    f654:	e3510801 	cmp	r1, #65536	; 0x10000
    f658:	e58d3018 	str	r3, [sp, #24]
    f65c:	2a000055 	bcs	f7b8 <do_data_command+0x24c>
    f660:	e59b3010 	ldr	r3, [fp, #16]
    f664:	e59fa218 	ldr	sl, [pc, #536]	; f884 <do_data_command+0x318>
    f668:	e1833801 	orr	r3, r3, r1, lsl #16
    f66c:	e58a3004 	str	r3, [sl, #4]
    f670:	e59d300c 	ldr	r3, [sp, #12]
    f674:	e1a0800a 	mov	r8, sl
    f678:	e58a3008 	str	r3, [sl, #8]
    f67c:	e59d1018 	ldr	r1, [sp, #24]
    f680:	e59f5200 	ldr	r5, [pc, #512]	; f888 <do_data_command+0x31c>
    f684:	e59f7200 	ldr	r7, [pc, #512]	; f88c <do_data_command+0x320>
    f688:	e58a100c 	str	r1, [sl, #12]
    f68c:	ea000003 	b	f6a0 <do_data_command+0x134>
    f690:	e3a00001 	mov	r0, #1, 0
    f694:	eb001147 	bl	13bb8 <delay_ms>
    f698:	e2555001 	subs	r5, r5, #1, 0
    f69c:	0a000051 	beq	f7e8 <do_data_command+0x27c>
    f6a0:	e5983030 	ldr	r3, [r8, #48]	; 0x30
    f6a4:	e1130007 	tst	r3, r7
    f6a8:	0afffff8 	beq	f690 <do_data_command+0x124>
    f6ac:	e59a3030 	ldr	r3, [sl, #48]	; 0x30
    f6b0:	e59f11d8 	ldr	r1, [pc, #472]	; f890 <do_data_command+0x324>
    f6b4:	e0030001 	and	r0, r3, r1
    f6b8:	e3500001 	cmp	r0, #1, 0
    f6bc:	e58a1030 	str	r1, [sl, #48]	; 0x30
    f6c0:	0a000013 	beq	f714 <do_data_command+0x1a8>
    f6c4:	e3a02000 	mov	r2, #0, 0
    f6c8:	e58b3044 	str	r3, [fp, #68]	; 0x44
    f6cc:	e1a03823 	lsr	r3, r3, #16
    f6d0:	e1a03803 	lsl	r3, r3, #16
    f6d4:	e58b3040 	str	r3, [fp, #64]	; 0x40
    f6d8:	e5cb2000 	strb	r2, [fp]
    f6dc:	e2544001 	subs	r4, r4, #1, 0
    f6e0:	0a000006 	beq	f700 <do_data_command+0x194>
    f6e4:	e59f01a8 	ldr	r0, [pc, #424]	; f894 <do_data_command+0x328>
    f6e8:	eb000f90 	bl	13530 <printk>
    f6ec:	eaffffc0 	b	f5f4 <do_data_command+0x88>
    f6f0:	e3520002 	cmp	r2, #2, 0
    f6f4:	33a02011 	movcc	r2, #17, 0
    f6f8:	23a02012 	movcs	r2, #18, 0
    f6fc:	eaffffb4 	b	f5d4 <do_data_command+0x68>
    f700:	e59f0190 	ldr	r0, [pc, #400]	; f898 <do_data_command+0x32c>
    f704:	eb000f89 	bl	13530 <printk>
    f708:	e1a00004 	mov	r0, r4
    f70c:	e28dd024 	add	sp, sp, #36, 0	; 0x24
    f710:	e8bd8ff0 	pop	{r4, r5, r6, r7, r8, r9, sl, fp, pc}
    f714:	e5dd1016 	ldrb	r1, [sp, #22]
    f718:	e2013003 	and	r3, r1, #3, 0
    f71c:	e3530001 	cmp	r3, #1, 0
    f720:	0a000039 	beq	f80c <do_data_command+0x2a0>
    f724:	e2833002 	add	r3, r3, #2, 0
    f728:	e2033003 	and	r3, r3, #3, 0
    f72c:	e3530001 	cmp	r3, #1, 0
    f730:	959a3010 	ldrls	r3, [sl, #16]
    f734:	958b3014 	strls	r3, [fp, #20]
    f738:	e3110020 	tst	r1, #32, 0
    f73c:	1a00003c 	bne	f834 <do_data_command+0x2c8>
    f740:	e2011003 	and	r1, r1, #3, 0
    f744:	e3510003 	cmp	r1, #3, 0
    f748:	1a00000e 	bne	f788 <do_data_command+0x21c>
    f74c:	e59f7148 	ldr	r7, [pc, #328]	; f89c <do_data_command+0x330>
    f750:	e59f512c 	ldr	r5, [pc, #300]	; f884 <do_data_command+0x318>
    f754:	e59f8144 	ldr	r8, [pc, #324]	; f8a0 <do_data_command+0x334>
    f758:	e5953030 	ldr	r3, [r5, #48]	; 0x30
    f75c:	e1130008 	tst	r3, r8
    f760:	0a000017 	beq	f7c4 <do_data_command+0x258>
    f764:	e59f2118 	ldr	r2, [pc, #280]	; f884 <do_data_command+0x318>
    f768:	e59f1134 	ldr	r1, [pc, #308]	; f8a4 <do_data_command+0x338>
    f76c:	e5923030 	ldr	r3, [r2, #48]	; 0x30
    f770:	e59f0130 	ldr	r0, [pc, #304]	; f8a8 <do_data_command+0x33c>
    f774:	e0031001 	and	r1, r3, r1
    f778:	e3510002 	cmp	r1, #2, 0
    f77c:	e5820030 	str	r0, [r2, #48]	; 0x30
    f780:	1a000014 	bne	f7d8 <do_data_command+0x26c>
    f784:	e5820030 	str	r0, [r2, #48]	; 0x30
    f788:	e3a00001 	mov	r0, #1, 0
    f78c:	e5cb0000 	strb	r0, [fp]
    f790:	e28dd024 	add	sp, sp, #36, 0	; 0x24
    f794:	e8bd8ff0 	pop	{r4, r5, r6, r7, r8, r9, sl, fp, pc}
    f798:	e59f010c 	ldr	r0, [pc, #268]	; f8ac <do_data_command+0x340>
    f79c:	eb000f63 	bl	13530 <printk>
    f7a0:	eaffffcd 	b	f6dc <do_data_command+0x170>
    f7a4:	e59f0104 	ldr	r0, [pc, #260]	; f8b0 <do_data_command+0x344>
    f7a8:	eb000f60 	bl	13530 <printk>
    f7ac:	e3a00000 	mov	r0, #0, 0
    f7b0:	e28dd024 	add	sp, sp, #36, 0	; 0x24
    f7b4:	e8bd8ff0 	pop	{r4, r5, r6, r7, r8, r9, sl, fp, pc}
    f7b8:	e59f00f4 	ldr	r0, [pc, #244]	; f8b4 <do_data_command+0x348>
    f7bc:	eb000f5b 	bl	13530 <printk>
    f7c0:	eaffffc5 	b	f6dc <do_data_command+0x170>
    f7c4:	e3a00064 	mov	r0, #100, 0	; 0x64
    f7c8:	eb0010f1 	bl	13b94 <delay_us>
    f7cc:	e2577001 	subs	r7, r7, #1, 0
    f7d0:	1affffe0 	bne	f758 <do_data_command+0x1ec>
    f7d4:	eaffffe2 	b	f764 <do_data_command+0x1f8>
    f7d8:	e1a02823 	lsr	r2, r3, #16
    f7dc:	e1a02802 	lsl	r2, r2, #16
    f7e0:	e1cb24f0 	strd	r2, [fp, #64]	; 0x40
    f7e4:	eaffffbc 	b	f6dc <do_data_command+0x170>
    f7e8:	e59f00c8 	ldr	r0, [pc, #200]	; f8b8 <do_data_command+0x34c>
    f7ec:	eb000f4f 	bl	13530 <printk>
    f7f0:	e5cb5000 	strb	r5, [fp]
    f7f4:	eaffffb8 	b	f6dc <do_data_command+0x170>
    f7f8:	e59f00bc 	ldr	r0, [pc, #188]	; f8bc <do_data_command+0x350>
    f7fc:	eb000f4b 	bl	13530 <printk>
    f800:	e3a00000 	mov	r0, #0, 0
    f804:	e28dd024 	add	sp, sp, #36, 0	; 0x24
    f808:	e8bd8ff0 	pop	{r4, r5, r6, r7, r8, r9, sl, fp, pc}
    f80c:	e59a3010 	ldr	r3, [sl, #16]
    f810:	e59ac014 	ldr	ip, [sl, #20]
    f814:	e58b3014 	str	r3, [fp, #20]
    f818:	e59a0018 	ldr	r0, [sl, #24]
    f81c:	e59a301c 	ldr	r3, [sl, #28]
    f820:	e3110020 	tst	r1, #32, 0
    f824:	e58bc018 	str	ip, [fp, #24]
    f828:	e58b001c 	str	r0, [fp, #28]
    f82c:	e58b3020 	str	r3, [fp, #32]
    f830:	0affffc2 	beq	f740 <do_data_command+0x1d4>
    f834:	e59d0014 	ldr	r0, [sp, #20]
    f838:	ebfffe7a 	bl	f228 <do_data_transfer>
    f83c:	e5dd3016 	ldrb	r3, [sp, #22]
    f840:	e2032003 	and	r2, r3, #3, 0
    f844:	e3520003 	cmp	r2, #3, 0
    f848:	0affffbf 	beq	f74c <do_data_command+0x1e0>
    f84c:	e3130020 	tst	r3, #32, 0
    f850:	1affffbd 	bne	f74c <do_data_command+0x1e0>
    f854:	eaffffcb 	b	f788 <do_data_command+0x21c>
    f858:	e59f2060 	ldr	r2, [pc, #96]	; f8c0 <do_data_command+0x354>
    f85c:	e59f3060 	ldr	r3, [pc, #96]	; f8c4 <do_data_command+0x358>
    f860:	e59f1060 	ldr	r1, [pc, #96]	; f8c8 <do_data_command+0x35c>
    f864:	e58d2000 	str	r2, [sp]
    f868:	e59f005c 	ldr	r0, [pc, #92]	; f8cc <do_data_command+0x360>
    f86c:	e59f2008 	ldr	r2, [pc, #8]	; f87c <do_data_command+0x310>
    f870:	eb000f2e 	bl	13530 <printk>
    f874:	eb001072 	bl	13a44 <clean_reboot>
    f878:	00017a60 	.word	0x00017a60
    f87c:	00015b84 	.word	0x00015b84
    f880:	00017a68 	.word	0x00017a68
    f884:	20300000 	.word	0x20300000
    f888:	00001388 	.word	0x00001388
    f88c:	00008001 	.word	0x00008001
    f890:	ffff0001 	.word	0xffff0001
    f894:	000157c8 	.word	0x000157c8
    f898:	000157ec 	.word	0x000157ec
    f89c:	00004e21 	.word	0x00004e21
    f8a0:	00008002 	.word	0x00008002
    f8a4:	ffef0002 	.word	0xffef0002
    f8a8:	ffff0002 	.word	0xffff0002
    f8ac:	00015810 	.word	0x00015810
    f8b0:	00015734 	.word	0x00015734
    f8b4:	000156e0 	.word	0x000156e0
    f8b8:	00015708 	.word	0x00015708
    f8bc:	000157ac 	.word	0x000157ac
    f8c0:	00015790 	.word	0x00015790
    f8c4:	000002b1 	.word	0x000002b1
    f8c8:	00015754 	.word	0x00015754
    f8cc:	00013f8c 	.word	0x00013f8c

0000f8d0 <emmc_command.constprop.0>:
    f8d0:	e92d40f0 	push	{r4, r5, r6, r7, lr}
    f8d4:	e59f5224 	ldr	r5, [pc, #548]	; fb00 <emmc_command.constprop.0+0x230>
    f8d8:	e1a07001 	mov	r7, r1
    f8dc:	e1a01005 	mov	r1, r5
    f8e0:	e59f421c 	ldr	r4, [pc, #540]	; fb04 <emmc_command.constprop.0+0x234>
    f8e4:	e24dd00c 	sub	sp, sp, #12, 0
    f8e8:	e0840100 	add	r0, r4, r0, lsl #2
    f8ec:	e5902010 	ldr	r2, [r0, #16]
    f8f0:	e28d0004 	add	r0, sp, #4, 0
    f8f4:	e5a12008 	str	r2, [r1, #8]!
    f8f8:	e3a02004 	mov	r2, #4, 0
    f8fc:	eb000e99 	bl	13368 <memcpy>
    f900:	e28410f0 	add	r1, r4, #240, 0	; 0xf0
    f904:	e3a02004 	mov	r2, #4, 0
    f908:	e28d0004 	add	r0, sp, #4, 0
    f90c:	e59d4004 	ldr	r4, [sp, #4]
    f910:	eb000e94 	bl	13368 <memcpy>
    f914:	e59d3004 	ldr	r3, [sp, #4]
    f918:	e1540003 	cmp	r4, r3
    f91c:	0a000056 	beq	fa7c <emmc_command.constprop.0+0x1ac>
    f920:	e5953008 	ldr	r3, [r5, #8]
    f924:	e1a0100d 	mov	r1, sp
    f928:	e3a02004 	mov	r2, #4, 0
    f92c:	e28d0004 	add	r0, sp, #4, 0
    f930:	e58d3000 	str	r3, [sp]
    f934:	eb000e8b 	bl	13368 <memcpy>
    f938:	e59d3004 	ldr	r3, [sp, #4]
    f93c:	e5951004 	ldr	r1, [r5, #4]
    f940:	e585300c 	str	r3, [r5, #12]
    f944:	e595300c 	ldr	r3, [r5, #12]
    f948:	e3510801 	cmp	r1, #65536	; 0x10000
    f94c:	e58d3004 	str	r3, [sp, #4]
    f950:	2a000044 	bcs	fa68 <emmc_command.constprop.0+0x198>
    f954:	e5952010 	ldr	r2, [r5, #16]
    f958:	e59f31a8 	ldr	r3, [pc, #424]	; fb08 <emmc_command.constprop.0+0x238>
    f95c:	e1822801 	orr	r2, r2, r1, lsl #16
    f960:	e5832004 	str	r2, [r3, #4]
    f964:	e5837008 	str	r7, [r3, #8]
    f968:	e59d2004 	ldr	r2, [sp, #4]
    f96c:	e3a04e7d 	mov	r4, #2000	; 0x7d0
    f970:	e1a06003 	mov	r6, r3
    f974:	e59f7190 	ldr	r7, [pc, #400]	; fb0c <emmc_command.constprop.0+0x23c>
    f978:	e583200c 	str	r2, [r3, #12]
    f97c:	ea000003 	b	f990 <emmc_command.constprop.0+0xc0>
    f980:	e3a00001 	mov	r0, #1, 0
    f984:	eb00108b 	bl	13bb8 <delay_ms>
    f988:	e2544001 	subs	r4, r4, #1, 0
    f98c:	0a00003f 	beq	fa90 <emmc_command.constprop.0+0x1c0>
    f990:	e5963030 	ldr	r3, [r6, #48]	; 0x30
    f994:	e1130007 	tst	r3, r7
    f998:	0afffff8 	beq	f980 <emmc_command.constprop.0+0xb0>
    f99c:	e5962030 	ldr	r2, [r6, #48]	; 0x30
    f9a0:	e59f3168 	ldr	r3, [pc, #360]	; fb10 <emmc_command.constprop.0+0x240>
    f9a4:	e0021003 	and	r1, r2, r3
    f9a8:	e3510001 	cmp	r1, #1, 0
    f9ac:	e5863030 	str	r3, [r6, #48]	; 0x30
    f9b0:	1a000024 	bne	fa48 <emmc_command.constprop.0+0x178>
    f9b4:	e5dd2002 	ldrb	r2, [sp, #2]
    f9b8:	e2023003 	and	r3, r2, #3, 0
    f9bc:	e3530001 	cmp	r3, #1, 0
    f9c0:	0a000037 	beq	faa4 <emmc_command.constprop.0+0x1d4>
    f9c4:	e2833002 	add	r3, r3, #2, 0
    f9c8:	e2033003 	and	r3, r3, #3, 0
    f9cc:	e3530001 	cmp	r3, #1, 0
    f9d0:	95963010 	ldrls	r3, [r6, #16]
    f9d4:	95853014 	strls	r3, [r5, #20]
    f9d8:	e3120020 	tst	r2, #32, 0
    f9dc:	1a000038 	bne	fac4 <emmc_command.constprop.0+0x1f4>
    f9e0:	e2022003 	and	r2, r2, #3, 0
    f9e4:	e3520003 	cmp	r2, #3, 0
    f9e8:	1a000012 	bne	fa38 <emmc_command.constprop.0+0x168>
    f9ec:	e59f4120 	ldr	r4, [pc, #288]	; fb14 <emmc_command.constprop.0+0x244>
    f9f0:	e59f7110 	ldr	r7, [pc, #272]	; fb08 <emmc_command.constprop.0+0x238>
    f9f4:	e59f611c 	ldr	r6, [pc, #284]	; fb18 <emmc_command.constprop.0+0x248>
    f9f8:	e5973030 	ldr	r3, [r7, #48]	; 0x30
    f9fc:	e1130006 	tst	r3, r6
    fa00:	1a000003 	bne	fa14 <emmc_command.constprop.0+0x144>
    fa04:	e3a00064 	mov	r0, #100, 0	; 0x64
    fa08:	eb001061 	bl	13b94 <delay_us>
    fa0c:	e2544001 	subs	r4, r4, #1, 0
    fa10:	1afffff8 	bne	f9f8 <emmc_command.constprop.0+0x128>
    fa14:	e59f20ec 	ldr	r2, [pc, #236]	; fb08 <emmc_command.constprop.0+0x238>
    fa18:	e59f30fc 	ldr	r3, [pc, #252]	; fb1c <emmc_command.constprop.0+0x24c>
    fa1c:	e5921030 	ldr	r1, [r2, #48]	; 0x30
    fa20:	e59f00f8 	ldr	r0, [pc, #248]	; fb20 <emmc_command.constprop.0+0x250>
    fa24:	e0033001 	and	r3, r3, r1
    fa28:	e3530002 	cmp	r3, #2, 0
    fa2c:	e5820030 	str	r0, [r2, #48]	; 0x30
    fa30:	05820030 	streq	r0, [r2, #48]	; 0x30
    fa34:	1a00002b 	bne	fae8 <emmc_command.constprop.0+0x218>
    fa38:	e3a00001 	mov	r0, #1, 0
    fa3c:	e5c50000 	strb	r0, [r5]
    fa40:	e28dd00c 	add	sp, sp, #12, 0
    fa44:	e8bd80f0 	pop	{r4, r5, r6, r7, pc}
    fa48:	e3a00000 	mov	r0, #0, 0
    fa4c:	e1a03822 	lsr	r3, r2, #16
    fa50:	e1a03803 	lsl	r3, r3, #16
    fa54:	e5852044 	str	r2, [r5, #68]	; 0x44
    fa58:	e5853040 	str	r3, [r5, #64]	; 0x40
    fa5c:	e5c50000 	strb	r0, [r5]
    fa60:	e28dd00c 	add	sp, sp, #12, 0
    fa64:	e8bd80f0 	pop	{r4, r5, r6, r7, pc}
    fa68:	e59f00b4 	ldr	r0, [pc, #180]	; fb24 <emmc_command.constprop.0+0x254>
    fa6c:	eb000eaf 	bl	13530 <printk>
    fa70:	e3a00000 	mov	r0, #0, 0
    fa74:	e28dd00c 	add	sp, sp, #12, 0
    fa78:	e8bd80f0 	pop	{r4, r5, r6, r7, pc}
    fa7c:	e59f00a4 	ldr	r0, [pc, #164]	; fb28 <emmc_command.constprop.0+0x258>
    fa80:	eb000eaa 	bl	13530 <printk>
    fa84:	e3a00000 	mov	r0, #0, 0
    fa88:	e28dd00c 	add	sp, sp, #12, 0
    fa8c:	e8bd80f0 	pop	{r4, r5, r6, r7, pc}
    fa90:	e59f0094 	ldr	r0, [pc, #148]	; fb2c <emmc_command.constprop.0+0x25c>
    fa94:	eb000ea5 	bl	13530 <printk>
    fa98:	e1a00004 	mov	r0, r4
    fa9c:	e5c54000 	strb	r4, [r5]
    faa0:	eaffffee 	b	fa60 <emmc_command.constprop.0+0x190>
    faa4:	e596c010 	ldr	ip, [r6, #16]
    faa8:	e5960014 	ldr	r0, [r6, #20]
    faac:	e5961018 	ldr	r1, [r6, #24]
    fab0:	e596301c 	ldr	r3, [r6, #28]
    fab4:	e1c501f8 	strd	r0, [r5, #24]
    fab8:	e585c014 	str	ip, [r5, #20]
    fabc:	e5853020 	str	r3, [r5, #32]
    fac0:	eaffffc4 	b	f9d8 <emmc_command.constprop.0+0x108>
    fac4:	e59d0000 	ldr	r0, [sp]
    fac8:	ebfffdd6 	bl	f228 <do_data_transfer>
    facc:	e5dd3002 	ldrb	r3, [sp, #2]
    fad0:	e2032003 	and	r2, r3, #3, 0
    fad4:	e3520003 	cmp	r2, #3, 0
    fad8:	0affffc3 	beq	f9ec <emmc_command.constprop.0+0x11c>
    fadc:	e3130020 	tst	r3, #32, 0
    fae0:	1affffc1 	bne	f9ec <emmc_command.constprop.0+0x11c>
    fae4:	eaffffd3 	b	fa38 <emmc_command.constprop.0+0x168>
    fae8:	e1a03821 	lsr	r3, r1, #16
    faec:	e1a03803 	lsl	r3, r3, #16
    faf0:	e3a00000 	mov	r0, #0, 0
    faf4:	e5851044 	str	r1, [r5, #68]	; 0x44
    faf8:	e5853040 	str	r3, [r5, #64]	; 0x40
    fafc:	eaffffd7 	b	fa60 <emmc_command.constprop.0+0x190>
    fb00:	00017a60 	.word	0x00017a60
    fb04:	00015b84 	.word	0x00015b84
    fb08:	20300000 	.word	0x20300000
    fb0c:	00008001 	.word	0x00008001
    fb10:	ffff0001 	.word	0xffff0001
    fb14:	00004e21 	.word	0x00004e21
    fb18:	00008002 	.word	0x00008002
    fb1c:	ffef0002 	.word	0xffef0002
    fb20:	ffff0002 	.word	0xffff0002
    fb24:	000156e0 	.word	0x000156e0
    fb28:	00015810 	.word	0x00015810
    fb2c:	00015708 	.word	0x00015708

0000fb30 <emmc_setup_clock>:
    fb30:	e3a01000 	mov	r1, #0, 0
    fb34:	e3a0301f 	mov	r3, #31, 0
    fb38:	e3a00001 	mov	r0, #1, 0
    fb3c:	e59f20e0 	ldr	r2, [pc, #224]	; fc24 <emmc_setup_clock+0xf4>
    fb40:	e92d4070 	push	{r4, r5, r6, lr}
    fb44:	e582103c 	str	r1, [r2, #60]	; 0x3c
    fb48:	e592202c 	ldr	r2, [r2, #44]	; 0x2c
    fb4c:	e1a0c003 	mov	ip, r3
    fb50:	e2433001 	sub	r3, r3, #1, 0
    fb54:	e3730001 	cmn	r3, #1, 0
    fb58:	e1a01310 	lsl	r1, r0, r3
    fb5c:	0a000021 	beq	fbe8 <emmc_setup_clock+0xb8>
    fb60:	e3110005 	tst	r1, #5, 0
    fb64:	0afffff8 	beq	fb4c <emmc_setup_clock+0x1c>
    fb68:	e1e01001 	mvn	r1, r1
    fb6c:	e3110005 	tst	r1, #5, 0
    fb70:	1a000020 	bne	fbf8 <emmc_setup_clock+0xc8>
    fb74:	e3530000 	cmp	r3, #0, 0
    fb78:	1a00001d 	bne	fbf4 <emmc_setup_clock+0xc4>
    fb7c:	e59f10a0 	ldr	r1, [pc, #160]	; fc24 <emmc_setup_clock+0xf4>
    fb80:	e3c2380f 	bic	r3, r2, #983040	; 0xf0000
    fb84:	e1a05001 	mov	r5, r1
    fb88:	e383380b 	orr	r3, r3, #720896	; 0xb0000
    fb8c:	e3833001 	orr	r3, r3, #1, 0
    fb90:	e59f4090 	ldr	r4, [pc, #144]	; fc28 <emmc_setup_clock+0xf8>
    fb94:	e581302c 	str	r3, [r1, #44]	; 0x2c
    fb98:	e595302c 	ldr	r3, [r5, #44]	; 0x2c
    fb9c:	e3130002 	tst	r3, #2, 0
    fba0:	0a000008 	beq	fbc8 <emmc_setup_clock+0x98>
    fba4:	e3a0001e 	mov	r0, #30, 0
    fba8:	eb001002 	bl	13bb8 <delay_ms>
    fbac:	e595302c 	ldr	r3, [r5, #44]	; 0x2c
    fbb0:	e3a0001e 	mov	r0, #30, 0
    fbb4:	e3833004 	orr	r3, r3, #4, 0
    fbb8:	e585302c 	str	r3, [r5, #44]	; 0x2c
    fbbc:	eb000ffd 	bl	13bb8 <delay_ms>
    fbc0:	e3a00001 	mov	r0, #1, 0
    fbc4:	e8bd8070 	pop	{r4, r5, r6, pc}
    fbc8:	e3a00064 	mov	r0, #100, 0	; 0x64
    fbcc:	eb000ff0 	bl	13b94 <delay_us>
    fbd0:	e2544001 	subs	r4, r4, #1, 0
    fbd4:	1affffef 	bne	fb98 <emmc_setup_clock+0x68>
    fbd8:	e59f004c 	ldr	r0, [pc, #76]	; fc2c <emmc_setup_clock+0xfc>
    fbdc:	eb000e53 	bl	13530 <printk>
    fbe0:	e1a00004 	mov	r0, r4
    fbe4:	e8bd8070 	pop	{r4, r5, r6, pc}
    fbe8:	e59f3040 	ldr	r3, [pc, #64]	; fc30 <emmc_setup_clock+0x100>
    fbec:	e1822003 	orr	r2, r2, r3
    fbf0:	eaffffe1 	b	fb7c <emmc_setup_clock+0x4c>
    fbf4:	e1a0c003 	mov	ip, r3
    fbf8:	e3a03001 	mov	r3, #1, 0
    fbfc:	e59f1030 	ldr	r1, [pc, #48]	; fc34 <emmc_setup_clock+0x104>
    fc00:	e24cc001 	sub	ip, ip, #1, 0
    fc04:	e1a0cc13 	lsl	ip, r3, ip
    fc08:	e15c0001 	cmp	ip, r1
    fc0c:	a1a0c001 	movge	ip, r1
    fc10:	e1a0340c 	lsl	r3, ip, #8
    fc14:	e6ff3073 	uxth	r3, r3
    fc18:	e1a0c44c 	asr	ip, ip, #8
    fc1c:	e183330c 	orr	r3, r3, ip, lsl #6
    fc20:	eafffff1 	b	fbec <emmc_setup_clock+0xbc>
    fc24:	20300000 	.word	0x20300000
    fc28:	00004e21 	.word	0x00004e21
    fc2c:	0001582c 	.word	0x0001582c
    fc30:	0000ffc0 	.word	0x0000ffc0
    fc34:	000003ff 	.word	0x000003ff

0000fc38 <emmc_app_command>:
    fc38:	e59f2064 	ldr	r2, [pc, #100]	; fca4 <emmc_app_command+0x6c>
    fc3c:	e92d4070 	push	{r4, r5, r6, lr}
    fc40:	e0824100 	add	r4, r2, r0, lsl #2
    fc44:	e5d43013 	ldrb	r3, [r4, #19]
    fc48:	e203303f 	and	r3, r3, #63, 0	; 0x3f
    fc4c:	e353003b 	cmp	r3, #59, 0	; 0x3b
    fc50:	8a00000a 	bhi	fc80 <emmc_app_command+0x48>
    fc54:	e59f504c 	ldr	r5, [pc, #76]	; fca8 <emmc_app_command+0x70>
    fc58:	e1a06001 	mov	r6, r1
    fc5c:	e5951028 	ldr	r1, [r5, #40]	; 0x28
    fc60:	e59200ec 	ldr	r0, [r2, #236]	; 0xec
    fc64:	e1a01801 	lsl	r1, r1, #16
    fc68:	e5850008 	str	r0, [r5, #8]
    fc6c:	ebfffdbb 	bl	f360 <emmc_issue_command.constprop.0>
    fc70:	e3500000 	cmp	r0, #0, 0
    fc74:	1a000005 	bne	fc90 <emmc_app_command+0x58>
    fc78:	e3a00000 	mov	r0, #0, 0
    fc7c:	e8bd8070 	pop	{r4, r5, r6, pc}
    fc80:	e59f0024 	ldr	r0, [pc, #36]	; fcac <emmc_app_command+0x74>
    fc84:	eb000e29 	bl	13530 <printk>
    fc88:	e3a00000 	mov	r0, #0, 0
    fc8c:	e8bd8070 	pop	{r4, r5, r6, pc}
    fc90:	e5940010 	ldr	r0, [r4, #16]
    fc94:	e1a01006 	mov	r1, r6
    fc98:	e5850008 	str	r0, [r5, #8]
    fc9c:	e8bd4070 	pop	{r4, r5, r6, lr}
    fca0:	eafffdae 	b	f360 <emmc_issue_command.constprop.0>
    fca4:	00015b84 	.word	0x00015b84
    fca8:	00017a60 	.word	0x00017a60
    fcac:	0001584c 	.word	0x0001584c

0000fcb0 <emmc_read>:
    fcb0:	e92d4030 	push	{r4, r5, lr}
    fcb4:	e1a0cb82 	lsl	ip, r2, #23
    fcb8:	e1a0cbac 	lsr	ip, ip, #23
    fcbc:	e35c0000 	cmp	ip, #0, 0
    fcc0:	e24dd00c 	sub	sp, sp, #12, 0
    fcc4:	1a00000f 	bne	fd08 <emmc_read+0x58>
    fcc8:	e1a05000 	mov	r5, r0
    fccc:	e1a0000c 	mov	r0, ip
    fcd0:	e1a03005 	mov	r3, r5
    fcd4:	e1a04002 	mov	r4, r2
    fcd8:	ebfffe23 	bl	f56c <do_data_command>
    fcdc:	e3500000 	cmp	r0, #0, 0
    fce0:	11a00004 	movne	r0, r4
    fce4:	0a000001 	beq	fcf0 <emmc_read+0x40>
    fce8:	e28dd00c 	add	sp, sp, #12, 0
    fcec:	e8bd8030 	pop	{r4, r5, pc}
    fcf0:	e1a02004 	mov	r2, r4
    fcf4:	e1a01005 	mov	r1, r5
    fcf8:	e59f0028 	ldr	r0, [pc, #40]	; fd28 <emmc_read+0x78>
    fcfc:	eb000e0b 	bl	13530 <printk>
    fd00:	e3e00000 	mvn	r0, #0, 0
    fd04:	eafffff7 	b	fce8 <emmc_read+0x38>
    fd08:	e59f201c 	ldr	r2, [pc, #28]	; fd2c <emmc_read+0x7c>
    fd0c:	e59f301c 	ldr	r3, [pc, #28]	; fd30 <emmc_read+0x80>
    fd10:	e59f101c 	ldr	r1, [pc, #28]	; fd34 <emmc_read+0x84>
    fd14:	e58d2000 	str	r2, [sp]
    fd18:	e59f0018 	ldr	r0, [pc, #24]	; fd38 <emmc_read+0x88>
    fd1c:	e59f2018 	ldr	r2, [pc, #24]	; fd3c <emmc_read+0x8c>
    fd20:	eb000e02 	bl	13530 <printk>
    fd24:	eb000f46 	bl	13a44 <clean_reboot>
    fd28:	0001587c 	.word	0x0001587c
    fd2c:	0001586c 	.word	0x0001586c
    fd30:	000002dd 	.word	0x000002dd
    fd34:	00015754 	.word	0x00015754
    fd38:	00013f8c 	.word	0x00013f8c
    fd3c:	00015c78 	.word	0x00015c78

0000fd40 <emmc_write>:
    fd40:	e92d4010 	push	{r4, lr}
    fd44:	e1a0cb82 	lsl	ip, r2, #23
    fd48:	e1a0cbac 	lsr	ip, ip, #23
    fd4c:	e35c0000 	cmp	ip, #0, 0
    fd50:	e24dd008 	sub	sp, sp, #8, 0
    fd54:	1a00000d 	bne	fd90 <emmc_write+0x50>
    fd58:	e1a03000 	mov	r3, r0
    fd5c:	e3a00001 	mov	r0, #1, 0
    fd60:	e1a04002 	mov	r4, r2
    fd64:	ebfffe00 	bl	f56c <do_data_command>
    fd68:	e3500000 	cmp	r0, #0, 0
    fd6c:	11a00004 	movne	r0, r4
    fd70:	0a000001 	beq	fd7c <emmc_write+0x3c>
    fd74:	e28dd008 	add	sp, sp, #8, 0
    fd78:	e8bd8010 	pop	{r4, pc}
    fd7c:	e1a01000 	mov	r1, r0
    fd80:	e59f0028 	ldr	r0, [pc, #40]	; fdb0 <emmc_write+0x70>
    fd84:	eb000de9 	bl	13530 <printk>
    fd88:	e3e00000 	mvn	r0, #0, 0
    fd8c:	eafffff8 	b	fd74 <emmc_write+0x34>
    fd90:	e59f201c 	ldr	r2, [pc, #28]	; fdb4 <emmc_write+0x74>
    fd94:	e3a03e2f 	mov	r3, #752	; 0x2f0
    fd98:	e59f1018 	ldr	r1, [pc, #24]	; fdb8 <emmc_write+0x78>
    fd9c:	e58d2000 	str	r2, [sp]
    fda0:	e59f0014 	ldr	r0, [pc, #20]	; fdbc <emmc_write+0x7c>
    fda4:	e59f2014 	ldr	r2, [pc, #20]	; fdc0 <emmc_write+0x80>
    fda8:	eb000de0 	bl	13530 <printk>
    fdac:	eb000f24 	bl	13a44 <clean_reboot>
    fdb0:	000158a8 	.word	0x000158a8
    fdb4:	0001586c 	.word	0x0001586c
    fdb8:	00015754 	.word	0x00015754
    fdbc:	00013f8c 	.word	0x00013f8c
    fdc0:	00015c84 	.word	0x00015c84

0000fdc4 <emmc_init>:
    fdc4:	e92d4ff0 	push	{r4, r5, r6, r7, r8, r9, sl, fp, lr}
    fdc8:	e3a01000 	mov	r1, #0, 0
    fdcc:	e24dd014 	sub	sp, sp, #20, 0
    fdd0:	e3a00022 	mov	r0, #34, 0	; 0x22
    fdd4:	eb000b89 	bl	12c00 <gpio_set_function>
    fdd8:	e3a01000 	mov	r1, #0, 0
    fddc:	e3a00023 	mov	r0, #35, 0	; 0x23
    fde0:	eb000b86 	bl	12c00 <gpio_set_function>
    fde4:	e3a01000 	mov	r1, #0, 0
    fde8:	e3a00024 	mov	r0, #36, 0	; 0x24
    fdec:	eb000b83 	bl	12c00 <gpio_set_function>
    fdf0:	e3a01000 	mov	r1, #0, 0
    fdf4:	e3a00025 	mov	r0, #37, 0	; 0x25
    fdf8:	eb000b80 	bl	12c00 <gpio_set_function>
    fdfc:	e3a01000 	mov	r1, #0, 0
    fe00:	e3a00026 	mov	r0, #38, 0	; 0x26
    fe04:	eb000b7d 	bl	12c00 <gpio_set_function>
    fe08:	e3a01000 	mov	r1, #0, 0
    fe0c:	e3a00027 	mov	r0, #39, 0	; 0x27
    fe10:	eb000b7a 	bl	12c00 <gpio_set_function>
    fe14:	e3a01007 	mov	r1, #7, 0
    fe18:	e3a00030 	mov	r0, #48, 0	; 0x30
    fe1c:	eb000b77 	bl	12c00 <gpio_set_function>
    fe20:	e3a01007 	mov	r1, #7, 0
    fe24:	e3a00031 	mov	r0, #49, 0	; 0x31
    fe28:	eb000b74 	bl	12c00 <gpio_set_function>
    fe2c:	e3a01007 	mov	r1, #7, 0
    fe30:	e3a00032 	mov	r0, #50, 0	; 0x32
    fe34:	eb000b71 	bl	12c00 <gpio_set_function>
    fe38:	e3a01007 	mov	r1, #7, 0
    fe3c:	e3a00033 	mov	r0, #51, 0	; 0x33
    fe40:	eb000b6e 	bl	12c00 <gpio_set_function>
    fe44:	e3a01007 	mov	r1, #7, 0
    fe48:	e3a00034 	mov	r0, #52, 0	; 0x34
    fe4c:	eb000b6b 	bl	12c00 <gpio_set_function>
    fe50:	e3a03000 	mov	r3, #0, 0
    fe54:	e3a0600a 	mov	r6, #10, 0
    fe58:	e3a08401 	mov	r8, #16777216	; 0x1000000
    fe5c:	e59f48a0 	ldr	r4, [pc, #2208]	; 10704 <emmc_init+0x940>
    fe60:	e59f58a0 	ldr	r5, [pc, #2208]	; 10708 <emmc_init+0x944>
    fe64:	e59f98a0 	ldr	r9, [pc, #2208]	; 1070c <emmc_init+0x948>
    fe68:	e5843004 	str	r3, [r4, #4]
    fe6c:	e584300c 	str	r3, [r4, #12]
    fe70:	e5c43000 	strb	r3, [r4]
    fe74:	e5843010 	str	r3, [r4, #16]
    fe78:	e5c43024 	strb	r3, [r4, #36]	; 0x24
    fe7c:	e1c432b6 	strh	r3, [r4, #38]	; 0x26
    fe80:	e5843028 	str	r3, [r4, #40]	; 0x28
    fe84:	e584303c 	str	r3, [r4, #60]	; 0x3c
    fe88:	e59fa880 	ldr	sl, [pc, #2176]	; 10710 <emmc_init+0x94c>
    fe8c:	e585802c 	str	r8, [r5, #44]	; 0x2c
    fe90:	e595702c 	ldr	r7, [r5, #44]	; 0x2c
    fe94:	e2177407 	ands	r7, r7, #117440512	; 0x7000000
    fe98:	1a0000c1 	bne	101a4 <emmc_init+0x3e0>
    fe9c:	ebffff23 	bl	fb30 <emmc_setup_clock>
    fea0:	e3500000 	cmp	r0, #0, 0
    fea4:	0a0000b5 	beq	10180 <emmc_init+0x3bc>
    fea8:	e3e03000 	mvn	r3, #0, 0
    feac:	e5857038 	str	r7, [r5, #56]	; 0x38
    feb0:	e3a000cb 	mov	r0, #203, 0	; 0xcb
    feb4:	e5853030 	str	r3, [r5, #48]	; 0x30
    feb8:	e5853034 	str	r3, [r5, #52]	; 0x34
    febc:	eb000f3d 	bl	13bb8 <delay_ms>
    fec0:	e1a01007 	mov	r1, r7
    fec4:	e1a00007 	mov	r0, r7
    fec8:	e5847004 	str	r7, [r4, #4]
    fecc:	e584700c 	str	r7, [r4, #12]
    fed0:	e5c47000 	strb	r7, [r4]
    fed4:	e5847010 	str	r7, [r4, #16]
    fed8:	ebfffe7c 	bl	f8d0 <emmc_command.constprop.0>
    fedc:	e250a000 	subs	sl, r0, #0, 0
    fee0:	0a0000b6 	beq	101c0 <emmc_init+0x3fc>
    fee4:	e59f3828 	ldr	r3, [pc, #2088]	; 10714 <emmc_init+0x950>
    fee8:	e3a02004 	mov	r2, #4, 0
    feec:	e5933030 	ldr	r3, [r3, #48]	; 0x30
    fef0:	e59f1820 	ldr	r1, [pc, #2080]	; 10718 <emmc_init+0x954>
    fef4:	e28d000c 	add	r0, sp, #12, 0
    fef8:	e5843008 	str	r3, [r4, #8]
    fefc:	eb000d19 	bl	13368 <memcpy>
    ff00:	e3a02004 	mov	r2, #4, 0
    ff04:	e59f1810 	ldr	r1, [pc, #2064]	; 1071c <emmc_init+0x958>
    ff08:	e28d000c 	add	r0, sp, #12, 0
    ff0c:	e59d700c 	ldr	r7, [sp, #12]
    ff10:	eb000d14 	bl	13368 <memcpy>
    ff14:	e59d300c 	ldr	r3, [sp, #12]
    ff18:	e1570003 	cmp	r7, r3
    ff1c:	0a00012f 	beq	103e0 <emmc_init+0x61c>
    ff20:	e3a02004 	mov	r2, #4, 0
    ff24:	e5943008 	ldr	r3, [r4, #8]
    ff28:	e08d1002 	add	r1, sp, r2
    ff2c:	e28d000c 	add	r0, sp, #12, 0
    ff30:	e58d3004 	str	r3, [sp, #4]
    ff34:	eb000d0b 	bl	13368 <memcpy>
    ff38:	e59d300c 	ldr	r3, [sp, #12]
    ff3c:	e5941004 	ldr	r1, [r4, #4]
    ff40:	e584300c 	str	r3, [r4, #12]
    ff44:	e594300c 	ldr	r3, [r4, #12]
    ff48:	e3510801 	cmp	r1, #65536	; 0x10000
    ff4c:	e58d3000 	str	r3, [sp]
    ff50:	2a00014a 	bcs	10480 <emmc_init+0x6bc>
    ff54:	e5943010 	ldr	r3, [r4, #16]
    ff58:	e59f27c0 	ldr	r2, [pc, #1984]	; 10720 <emmc_init+0x95c>
    ff5c:	e1833801 	orr	r3, r3, r1, lsl #16
    ff60:	e5853004 	str	r3, [r5, #4]
    ff64:	e5852008 	str	r2, [r5, #8]
    ff68:	e59d3000 	ldr	r3, [sp]
    ff6c:	e3a070c8 	mov	r7, #200, 0	; 0xc8
    ff70:	e59fb7ac 	ldr	fp, [pc, #1964]	; 10724 <emmc_init+0x960>
    ff74:	e585300c 	str	r3, [r5, #12]
    ff78:	ea000003 	b	ff8c <emmc_init+0x1c8>
    ff7c:	e3a00001 	mov	r0, #1, 0
    ff80:	eb000f0c 	bl	13bb8 <delay_ms>
    ff84:	e2577001 	subs	r7, r7, #1, 0
    ff88:	0a000190 	beq	105d0 <emmc_init+0x80c>
    ff8c:	e5953030 	ldr	r3, [r5, #48]	; 0x30
    ff90:	e113000b 	tst	r3, fp
    ff94:	0afffff8 	beq	ff7c <emmc_init+0x1b8>
    ff98:	e5952030 	ldr	r2, [r5, #48]	; 0x30
    ff9c:	e59f3784 	ldr	r3, [pc, #1924]	; 10728 <emmc_init+0x964>
    ffa0:	e0021003 	and	r1, r2, r3
    ffa4:	e3510001 	cmp	r1, #1, 0
    ffa8:	e5853030 	str	r3, [r5, #48]	; 0x30
    ffac:	0a000086 	beq	101cc <emmc_init+0x408>
    ffb0:	e3a03000 	mov	r3, #0, 0
    ffb4:	e1a07822 	lsr	r7, r2, #16
    ffb8:	e1a07807 	lsl	r7, r7, #16
    ffbc:	e5842044 	str	r2, [r4, #68]	; 0x44
    ffc0:	e5847040 	str	r7, [r4, #64]	; 0x40
    ffc4:	e5c43000 	strb	r3, [r4]
    ffc8:	e3570000 	cmp	r7, #0, 0
    ffcc:	0a0000f8 	beq	103b4 <emmc_init+0x5f0>
    ffd0:	e2177801 	ands	r7, r7, #65536	; 0x10000
    ffd4:	0a000174 	beq	105ac <emmc_init+0x7e8>
    ffd8:	e595302c 	ldr	r3, [r5, #44]	; 0x2c
    ffdc:	e59fa748 	ldr	sl, [pc, #1864]	; 1072c <emmc_init+0x968>
    ffe0:	e3833402 	orr	r3, r3, #33554432	; 0x2000000
    ffe4:	e585302c 	str	r3, [r5, #44]	; 0x2c
    ffe8:	ea000003 	b	fffc <emmc_init+0x238>
    ffec:	e3a00001 	mov	r0, #1, 0
    fff0:	eb000ef0 	bl	13bb8 <delay_ms>
    fff4:	e25aa001 	subs	sl, sl, #1, 0
    fff8:	0a00018d 	beq	10634 <emmc_init+0x870>
    fffc:	e595302c 	ldr	r3, [r5, #44]	; 0x2c
   10000:	e2133402 	ands	r3, r3, #33554432	; 0x2000000
   10004:	1afffff8 	bne	ffec <emmc_init+0x228>
   10008:	e3a02801 	mov	r2, #65536	; 0x10000
   1000c:	e59f071c 	ldr	r0, [pc, #1820]	; 10730 <emmc_init+0x96c>
   10010:	e5852030 	str	r2, [r5, #48]	; 0x30
   10014:	e1a0a003 	mov	sl, r3
   10018:	eb000d44 	bl	13530 <printk>
   1001c:	e3a03005 	mov	r3, #5, 0
   10020:	e3a0c001 	mov	ip, #1, 0
   10024:	e3a0b000 	mov	fp, #0, 0
   10028:	e3a02004 	mov	r2, #4, 0
   1002c:	e59f16e4 	ldr	r1, [pc, #1764]	; 10718 <emmc_init+0x954>
   10030:	e28d000c 	add	r0, sp, #12, 0
   10034:	e584b008 	str	fp, [r4, #8]
   10038:	e5c4300b 	strb	r3, [r4, #11]
   1003c:	e5c4c00a 	strb	ip, [r4, #10]
   10040:	eb000cc8 	bl	13368 <memcpy>
   10044:	e3a02004 	mov	r2, #4, 0
   10048:	e59f16cc 	ldr	r1, [pc, #1740]	; 1071c <emmc_init+0x958>
   1004c:	e28d000c 	add	r0, sp, #12, 0
   10050:	e59d700c 	ldr	r7, [sp, #12]
   10054:	eb000cc3 	bl	13368 <memcpy>
   10058:	e59d300c 	ldr	r3, [sp, #12]
   1005c:	e1570003 	cmp	r7, r3
   10060:	0a0000da 	beq	103d0 <emmc_init+0x60c>
   10064:	e3a02004 	mov	r2, #4, 0
   10068:	e5943008 	ldr	r3, [r4, #8]
   1006c:	e08d1002 	add	r1, sp, r2
   10070:	e28d000c 	add	r0, sp, #12, 0
   10074:	e58d3004 	str	r3, [sp, #4]
   10078:	eb000cba 	bl	13368 <memcpy>
   1007c:	e59d300c 	ldr	r3, [sp, #12]
   10080:	e5941004 	ldr	r1, [r4, #4]
   10084:	e584300c 	str	r3, [r4, #12]
   10088:	e594300c 	ldr	r3, [r4, #12]
   1008c:	e3510801 	cmp	r1, #65536	; 0x10000
   10090:	e58d3008 	str	r3, [sp, #8]
   10094:	2a0000fd 	bcs	10490 <emmc_init+0x6cc>
   10098:	e5943010 	ldr	r3, [r4, #16]
   1009c:	e3a07ffa 	mov	r7, #1000	; 0x3e8
   100a0:	e1833801 	orr	r3, r3, r1, lsl #16
   100a4:	e5853004 	str	r3, [r5, #4]
   100a8:	e585b008 	str	fp, [r5, #8]
   100ac:	e59d3008 	ldr	r3, [sp, #8]
   100b0:	e59fb66c 	ldr	fp, [pc, #1644]	; 10724 <emmc_init+0x960>
   100b4:	e585300c 	str	r3, [r5, #12]
   100b8:	ea000003 	b	100cc <emmc_init+0x308>
   100bc:	e3a00001 	mov	r0, #1, 0
   100c0:	eb000ebc 	bl	13bb8 <delay_ms>
   100c4:	e2577001 	subs	r7, r7, #1, 0
   100c8:	0a00013b 	beq	105bc <emmc_init+0x7f8>
   100cc:	e5953030 	ldr	r3, [r5, #48]	; 0x30
   100d0:	e113000b 	tst	r3, fp
   100d4:	0afffff8 	beq	100bc <emmc_init+0x2f8>
   100d8:	e5952030 	ldr	r2, [r5, #48]	; 0x30
   100dc:	e59f3644 	ldr	r3, [pc, #1604]	; 10728 <emmc_init+0x964>
   100e0:	e0021003 	and	r1, r2, r3
   100e4:	e3510001 	cmp	r1, #1, 0
   100e8:	e5853030 	str	r3, [r5, #48]	; 0x30
   100ec:	0a000061 	beq	10278 <emmc_init+0x4b4>
   100f0:	e3a01000 	mov	r1, #0, 0
   100f4:	e1a03822 	lsr	r3, r2, #16
   100f8:	e1a03803 	lsl	r3, r3, #16
   100fc:	e5842044 	str	r2, [r4, #68]	; 0x44
   10100:	e5843040 	str	r3, [r4, #64]	; 0x40
   10104:	e5c41000 	strb	r1, [r4]
   10108:	e3530000 	cmp	r3, #0, 0
   1010c:	0a0000ac 	beq	103c4 <emmc_init+0x600>
   10110:	e3130801 	tst	r3, #65536	; 0x10000
   10114:	0a000121 	beq	105a0 <emmc_init+0x7dc>
   10118:	e595302c 	ldr	r3, [r5, #44]	; 0x2c
   1011c:	e59f7608 	ldr	r7, [pc, #1544]	; 1072c <emmc_init+0x968>
   10120:	e3833402 	orr	r3, r3, #33554432	; 0x2000000
   10124:	e585302c 	str	r3, [r5, #44]	; 0x2c
   10128:	ea000003 	b	1013c <emmc_init+0x378>
   1012c:	e3a00001 	mov	r0, #1, 0
   10130:	eb000ea0 	bl	13bb8 <delay_ms>
   10134:	e2577001 	subs	r7, r7, #1, 0
   10138:	0a000129 	beq	105e4 <emmc_init+0x820>
   1013c:	e595302c 	ldr	r3, [r5, #44]	; 0x2c
   10140:	e3130402 	tst	r3, #33554432	; 0x2000000
   10144:	1afffff8 	bne	1012c <emmc_init+0x368>
   10148:	e3a03801 	mov	r3, #65536	; 0x10000
   1014c:	e5853030 	str	r3, [r5, #48]	; 0x30
   10150:	e59f35bc 	ldr	r3, [pc, #1468]	; 10714 <emmc_init+0x950>
   10154:	e5941028 	ldr	r1, [r4, #40]	; 0x28
   10158:	e59370ec 	ldr	r7, [r3, #236]	; 0xec
   1015c:	e1a01801 	lsl	r1, r1, #16
   10160:	e1a00007 	mov	r0, r7
   10164:	e5847008 	str	r7, [r4, #8]
   10168:	ebfffc7c 	bl	f360 <emmc_issue_command.constprop.0>
   1016c:	e3500000 	cmp	r0, #0, 0
   10170:	1a000062 	bne	10300 <emmc_init+0x53c>
   10174:	e3a01001 	mov	r1, #1, 0
   10178:	e59f05b4 	ldr	r0, [pc, #1460]	; 10734 <emmc_init+0x970>
   1017c:	eb000ceb 	bl	13530 <printk>
   10180:	e3a00064 	mov	r0, #100, 0	; 0x64
   10184:	eb000e8b 	bl	13bb8 <delay_ms>
   10188:	e59f05a8 	ldr	r0, [pc, #1448]	; 10738 <emmc_init+0x974>
   1018c:	eb000ce7 	bl	13530 <printk>
   10190:	e2566001 	subs	r6, r6, #1, 0
   10194:	1affff3b 	bne	fe88 <emmc_init+0xc4>
   10198:	e1a00006 	mov	r0, r6
   1019c:	e28dd014 	add	sp, sp, #20, 0
   101a0:	e8bd8ff0 	pop	{r4, r5, r6, r7, r8, r9, sl, fp, pc}
   101a4:	e3a00064 	mov	r0, #100, 0	; 0x64
   101a8:	eb000e79 	bl	13b94 <delay_us>
   101ac:	e25aa001 	subs	sl, sl, #1, 0
   101b0:	1affff36 	bne	fe90 <emmc_init+0xcc>
   101b4:	e59f0580 	ldr	r0, [pc, #1408]	; 1073c <emmc_init+0x978>
   101b8:	eb000cdc 	bl	13530 <printk>
   101bc:	eaffffef 	b	10180 <emmc_init+0x3bc>
   101c0:	e59f0578 	ldr	r0, [pc, #1400]	; 10740 <emmc_init+0x97c>
   101c4:	eb000cd9 	bl	13530 <printk>
   101c8:	eaffffec 	b	10180 <emmc_init+0x3bc>
   101cc:	e5dd2006 	ldrb	r2, [sp, #6]
   101d0:	e2023003 	and	r3, r2, #3, 0
   101d4:	e3530001 	cmp	r3, #1, 0
   101d8:	0a00008d 	beq	10414 <emmc_init+0x650>
   101dc:	e2833002 	add	r3, r3, #2, 0
   101e0:	e2033003 	and	r3, r3, #3, 0
   101e4:	e3530001 	cmp	r3, #1, 0
   101e8:	95953010 	ldrls	r3, [r5, #16]
   101ec:	95843014 	strls	r3, [r4, #20]
   101f0:	e3120020 	tst	r2, #32, 0
   101f4:	1a00008f 	bne	10438 <emmc_init+0x674>
   101f8:	e2022003 	and	r2, r2, #3, 0
   101fc:	e3520003 	cmp	r2, #3, 0
   10200:	1a000010 	bne	10248 <emmc_init+0x484>
   10204:	e59f7504 	ldr	r7, [pc, #1284]	; 10710 <emmc_init+0x94c>
   10208:	e59fb534 	ldr	fp, [pc, #1332]	; 10744 <emmc_init+0x980>
   1020c:	e5953030 	ldr	r3, [r5, #48]	; 0x30
   10210:	e113000b 	tst	r3, fp
   10214:	1a000003 	bne	10228 <emmc_init+0x464>
   10218:	e3a00064 	mov	r0, #100, 0	; 0x64
   1021c:	eb000e5c 	bl	13b94 <delay_us>
   10220:	e2577001 	subs	r7, r7, #1, 0
   10224:	1afffff8 	bne	1020c <emmc_init+0x448>
   10228:	e5952030 	ldr	r2, [r5, #48]	; 0x30
   1022c:	e59f3514 	ldr	r3, [pc, #1300]	; 10748 <emmc_init+0x984>
   10230:	e59f1514 	ldr	r1, [pc, #1300]	; 1074c <emmc_init+0x988>
   10234:	e0033002 	and	r3, r3, r2
   10238:	e3530002 	cmp	r3, #2, 0
   1023c:	e5851030 	str	r1, [r5, #48]	; 0x30
   10240:	05851030 	streq	r1, [r5, #48]	; 0x30
   10244:	1a0000ea 	bne	105f4 <emmc_init+0x830>
   10248:	e3a02001 	mov	r2, #1, 0
   1024c:	e5941014 	ldr	r1, [r4, #20]
   10250:	e59f04c8 	ldr	r0, [pc, #1224]	; 10720 <emmc_init+0x95c>
   10254:	e1a03a01 	lsl	r3, r1, #20
   10258:	e1a03a23 	lsr	r3, r3, #20
   1025c:	e1530000 	cmp	r3, r0
   10260:	e5c42000 	strb	r2, [r4]
   10264:	0affff6c 	beq	1001c <emmc_init+0x258>
   10268:	e59f04e0 	ldr	r0, [pc, #1248]	; 10750 <emmc_init+0x98c>
   1026c:	eb000caf 	bl	13530 <printk>
   10270:	e3a0a000 	mov	sl, #0, 0
   10274:	eaffff68 	b	1001c <emmc_init+0x258>
   10278:	e5dd2006 	ldrb	r2, [sp, #6]
   1027c:	e2023003 	and	r3, r2, #3, 0
   10280:	e3530001 	cmp	r3, #1, 0
   10284:	0a000059 	beq	103f0 <emmc_init+0x62c>
   10288:	e2833002 	add	r3, r3, #2, 0
   1028c:	e2033003 	and	r3, r3, #3, 0
   10290:	e3530001 	cmp	r3, #1, 0
   10294:	95953010 	ldrls	r3, [r5, #16]
   10298:	95843014 	strls	r3, [r4, #20]
   1029c:	e3120020 	tst	r2, #32, 0
   102a0:	1a00006d 	bne	1045c <emmc_init+0x698>
   102a4:	e2022003 	and	r2, r2, #3, 0
   102a8:	e3520003 	cmp	r2, #3, 0
   102ac:	1a000010 	bne	102f4 <emmc_init+0x530>
   102b0:	e59f7458 	ldr	r7, [pc, #1112]	; 10710 <emmc_init+0x94c>
   102b4:	e59fb488 	ldr	fp, [pc, #1160]	; 10744 <emmc_init+0x980>
   102b8:	e5953030 	ldr	r3, [r5, #48]	; 0x30
   102bc:	e113000b 	tst	r3, fp
   102c0:	1a000003 	bne	102d4 <emmc_init+0x510>
   102c4:	e3a00064 	mov	r0, #100, 0	; 0x64
   102c8:	eb000e31 	bl	13b94 <delay_us>
   102cc:	e2577001 	subs	r7, r7, #1, 0
   102d0:	1afffff8 	bne	102b8 <emmc_init+0x4f4>
   102d4:	e5952030 	ldr	r2, [r5, #48]	; 0x30
   102d8:	e59f3468 	ldr	r3, [pc, #1128]	; 10748 <emmc_init+0x984>
   102dc:	e59f1468 	ldr	r1, [pc, #1128]	; 1074c <emmc_init+0x988>
   102e0:	e0033002 	and	r3, r3, r2
   102e4:	e3530002 	cmp	r3, #2, 0
   102e8:	e5851030 	str	r1, [r5, #48]	; 0x30
   102ec:	05851030 	streq	r1, [r5, #48]	; 0x30
   102f0:	1a0000c4 	bne	10608 <emmc_init+0x844>
   102f4:	e3a03001 	mov	r3, #1, 0
   102f8:	e5c43000 	strb	r3, [r4]
   102fc:	eaffff93 	b	10150 <emmc_init+0x38c>
   10300:	e3a0b000 	mov	fp, #0, 0
   10304:	e3a02002 	mov	r2, #2, 0
   10308:	e3a03029 	mov	r3, #41, 0	; 0x29
   1030c:	e584b008 	str	fp, [r4, #8]
   10310:	e5c4200a 	strb	r2, [r4, #10]
   10314:	e5c4300b 	strb	r3, [r4, #11]
   10318:	e1a0100b 	mov	r1, fp
   1031c:	e5940008 	ldr	r0, [r4, #8]
   10320:	ebfffc0e 	bl	f360 <emmc_issue_command.constprop.0>
   10324:	e150000b 	cmp	r0, fp
   10328:	0affff91 	beq	10174 <emmc_init+0x3b0>
   1032c:	e15a000b 	cmp	sl, fp
   10330:	13a0a101 	movne	sl, #1073741824	; 0x40000000
   10334:	01a0a00b 	moveq	sl, fp
   10338:	e5943014 	ldr	r3, [r4, #20]
   1033c:	e38aa8ff 	orr	sl, sl, #16711680	; 0xff0000
   10340:	e1a03423 	lsr	r3, r3, #8
   10344:	e38aa902 	orr	sl, sl, #32768	; 0x8000
   10348:	e1c432b6 	strh	r3, [r4, #38]	; 0x26
   1034c:	e5941028 	ldr	r1, [r4, #40]	; 0x28
   10350:	e1a00007 	mov	r0, r7
   10354:	e1a01801 	lsl	r1, r1, #16
   10358:	e5847008 	str	r7, [r4, #8]
   1035c:	ebfffbff 	bl	f360 <emmc_issue_command.constprop.0>
   10360:	e3500000 	cmp	r0, #0, 0
   10364:	1a000002 	bne	10374 <emmc_init+0x5b0>
   10368:	e1a00009 	mov	r0, r9
   1036c:	eb000c6f 	bl	13530 <printk>
   10370:	eaffff82 	b	10180 <emmc_init+0x3bc>
   10374:	e3a02002 	mov	r2, #2, 0
   10378:	e3a03029 	mov	r3, #41, 0	; 0x29
   1037c:	e584b008 	str	fp, [r4, #8]
   10380:	e5c4200a 	strb	r2, [r4, #10]
   10384:	e5c4300b 	strb	r3, [r4, #11]
   10388:	e1a0100a 	mov	r1, sl
   1038c:	e5940008 	ldr	r0, [r4, #8]
   10390:	ebfffbf2 	bl	f360 <emmc_issue_command.constprop.0>
   10394:	e3500000 	cmp	r0, #0, 0
   10398:	0afffff2 	beq	10368 <emmc_init+0x5a4>
   1039c:	e5943014 	ldr	r3, [r4, #20]
   103a0:	e3530000 	cmp	r3, #0, 0
   103a4:	ba00003d 	blt	104a0 <emmc_init+0x6dc>
   103a8:	e3a00f7d 	mov	r0, #500	; 0x1f4
   103ac:	eb000e01 	bl	13bb8 <delay_ms>
   103b0:	eaffffe5 	b	1034c <emmc_init+0x588>
   103b4:	e59f0398 	ldr	r0, [pc, #920]	; 10754 <emmc_init+0x990>
   103b8:	e1a0a007 	mov	sl, r7
   103bc:	eb000c5b 	bl	13530 <printk>
   103c0:	eaffff15 	b	1001c <emmc_init+0x258>
   103c4:	e59f038c 	ldr	r0, [pc, #908]	; 10758 <emmc_init+0x994>
   103c8:	eb000c58 	bl	13530 <printk>
   103cc:	eaffff5f 	b	10150 <emmc_init+0x38c>
   103d0:	e59f0384 	ldr	r0, [pc, #900]	; 1075c <emmc_init+0x998>
   103d4:	eb000c55 	bl	13530 <printk>
   103d8:	e5943040 	ldr	r3, [r4, #64]	; 0x40
   103dc:	eaffff49 	b	10108 <emmc_init+0x344>
   103e0:	e59f0374 	ldr	r0, [pc, #884]	; 1075c <emmc_init+0x998>
   103e4:	eb000c51 	bl	13530 <printk>
   103e8:	e5947040 	ldr	r7, [r4, #64]	; 0x40
   103ec:	eafffef5 	b	ffc8 <emmc_init+0x204>
   103f0:	e5951010 	ldr	r1, [r5, #16]
   103f4:	e5953014 	ldr	r3, [r5, #20]
   103f8:	e5841014 	str	r1, [r4, #20]
   103fc:	e5951018 	ldr	r1, [r5, #24]
   10400:	e5843018 	str	r3, [r4, #24]
   10404:	e595301c 	ldr	r3, [r5, #28]
   10408:	e584101c 	str	r1, [r4, #28]
   1040c:	e5843020 	str	r3, [r4, #32]
   10410:	eaffffa1 	b	1029c <emmc_init+0x4d8>
   10414:	e5951010 	ldr	r1, [r5, #16]
   10418:	e5953014 	ldr	r3, [r5, #20]
   1041c:	e5841014 	str	r1, [r4, #20]
   10420:	e5951018 	ldr	r1, [r5, #24]
   10424:	e5843018 	str	r3, [r4, #24]
   10428:	e595301c 	ldr	r3, [r5, #28]
   1042c:	e584101c 	str	r1, [r4, #28]
   10430:	e5843020 	str	r3, [r4, #32]
   10434:	eaffff6d 	b	101f0 <emmc_init+0x42c>
   10438:	e59d0004 	ldr	r0, [sp, #4]
   1043c:	ebfffb79 	bl	f228 <do_data_transfer>
   10440:	e5dd3006 	ldrb	r3, [sp, #6]
   10444:	e2032003 	and	r2, r3, #3, 0
   10448:	e3520003 	cmp	r2, #3, 0
   1044c:	0affff6c 	beq	10204 <emmc_init+0x440>
   10450:	e3130020 	tst	r3, #32, 0
   10454:	1affff6a 	bne	10204 <emmc_init+0x440>
   10458:	eaffff7a 	b	10248 <emmc_init+0x484>
   1045c:	e59d0004 	ldr	r0, [sp, #4]
   10460:	ebfffb70 	bl	f228 <do_data_transfer>
   10464:	e5dd3006 	ldrb	r3, [sp, #6]
   10468:	e2032003 	and	r2, r3, #3, 0
   1046c:	e3520003 	cmp	r2, #3, 0
   10470:	0affff8e 	beq	102b0 <emmc_init+0x4ec>
   10474:	e3130020 	tst	r3, #32, 0
   10478:	1affff8c 	bne	102b0 <emmc_init+0x4ec>
   1047c:	eaffff9c 	b	102f4 <emmc_init+0x530>
   10480:	e59f02d8 	ldr	r0, [pc, #728]	; 10760 <emmc_init+0x99c>
   10484:	eb000c29 	bl	13530 <printk>
   10488:	e5947040 	ldr	r7, [r4, #64]	; 0x40
   1048c:	eafffecd 	b	ffc8 <emmc_init+0x204>
   10490:	e59f02c8 	ldr	r0, [pc, #712]	; 10760 <emmc_init+0x99c>
   10494:	eb000c25 	bl	13530 <printk>
   10498:	e5943040 	ldr	r3, [r4, #64]	; 0x40
   1049c:	eaffff19 	b	10108 <emmc_init+0x344>
   104a0:	e1a02f23 	lsr	r2, r3, #30
   104a4:	e2022001 	and	r2, r2, #1, 0
   104a8:	e1a03423 	lsr	r3, r3, #8
   104ac:	e3a0000a 	mov	r0, #10, 0
   104b0:	e5c42024 	strb	r2, [r4, #36]	; 0x24
   104b4:	e1c432b6 	strh	r3, [r4, #38]	; 0x26
   104b8:	eb000dbe 	bl	13bb8 <delay_ms>
   104bc:	e3a01000 	mov	r1, #0, 0
   104c0:	e3a00002 	mov	r0, #2, 0
   104c4:	ebfffd01 	bl	f8d0 <emmc_command.constprop.0>
   104c8:	e3500000 	cmp	r0, #0, 0
   104cc:	0a000052 	beq	1061c <emmc_init+0x858>
   104d0:	e3a01000 	mov	r1, #0, 0
   104d4:	e3a00003 	mov	r0, #3, 0
   104d8:	ebfffcfc 	bl	f8d0 <emmc_command.constprop.0>
   104dc:	e3500000 	cmp	r0, #0, 0
   104e0:	0a000057 	beq	10644 <emmc_init+0x880>
   104e4:	e5941014 	ldr	r1, [r4, #20]
   104e8:	e1a03821 	lsr	r3, r1, #16
   104ec:	e3110c01 	tst	r1, #256	; 0x100
   104f0:	e5843028 	str	r3, [r4, #40]	; 0x28
   104f4:	0a000055 	beq	10650 <emmc_init+0x88c>
   104f8:	e1a01821 	lsr	r1, r1, #16
   104fc:	e3a00007 	mov	r0, #7, 0
   10500:	e1a01801 	lsl	r1, r1, #16
   10504:	ebfffcf1 	bl	f8d0 <emmc_command.constprop.0>
   10508:	e3500000 	cmp	r0, #0, 0
   1050c:	0a000052 	beq	1065c <emmc_init+0x898>
   10510:	e5941014 	ldr	r1, [r4, #20]
   10514:	e1a014a1 	lsr	r1, r1, #9
   10518:	e201100f 	and	r1, r1, #15, 0
   1051c:	e2413003 	sub	r3, r1, #3, 0
   10520:	e3530001 	cmp	r3, #1, 0
   10524:	8a00003f 	bhi	10628 <emmc_init+0x864>
   10528:	e5d43024 	ldrb	r3, [r4, #36]	; 0x24
   1052c:	e3530000 	cmp	r3, #0, 0
   10530:	1a000004 	bne	10548 <emmc_init+0x784>
   10534:	e3a01c02 	mov	r1, #512	; 0x200
   10538:	e3a00010 	mov	r0, #16, 0
   1053c:	ebfffce3 	bl	f8d0 <emmc_command.constprop.0>
   10540:	e3500000 	cmp	r0, #0, 0
   10544:	0a000062 	beq	106d4 <emmc_init+0x910>
   10548:	e3a02008 	mov	r2, #8, 0
   1054c:	e3a07001 	mov	r7, #1, 0
   10550:	e5953004 	ldr	r3, [r5, #4]
   10554:	e59f11b8 	ldr	r1, [pc, #440]	; 10714 <emmc_init+0x950>
   10558:	e3c33eff 	bic	r3, r3, #4080	; 0xff0
   1055c:	e3c3300f 	bic	r3, r3, #15, 0
   10560:	e59100ec 	ldr	r0, [r1, #236]	; 0xec
   10564:	e3833c02 	orr	r3, r3, #512	; 0x200
   10568:	e5941028 	ldr	r1, [r4, #40]	; 0x28
   1056c:	e5853004 	str	r3, [r5, #4]
   10570:	e59f31ec 	ldr	r3, [pc, #492]	; 10764 <emmc_init+0x9a0>
   10574:	e1a01801 	lsl	r1, r1, #16
   10578:	e5842010 	str	r2, [r4, #16]
   1057c:	e5847004 	str	r7, [r4, #4]
   10580:	e5840008 	str	r0, [r4, #8]
   10584:	e5843038 	str	r3, [r4, #56]	; 0x38
   10588:	ebfffb74 	bl	f360 <emmc_issue_command.constprop.0>
   1058c:	e3500000 	cmp	r0, #0, 0
   10590:	1a000034 	bne	10668 <emmc_init+0x8a4>
   10594:	e59f01cc 	ldr	r0, [pc, #460]	; 10768 <emmc_init+0x9a4>
   10598:	eb000be4 	bl	13530 <printk>
   1059c:	eafffef7 	b	10180 <emmc_init+0x3bc>
   105a0:	e59f01c4 	ldr	r0, [pc, #452]	; 1076c <emmc_init+0x9a8>
   105a4:	eb000be1 	bl	13530 <printk>
   105a8:	eafffef4 	b	10180 <emmc_init+0x3bc>
   105ac:	e59f01bc 	ldr	r0, [pc, #444]	; 10770 <emmc_init+0x9ac>
   105b0:	e1a0a007 	mov	sl, r7
   105b4:	eb000bdd 	bl	13530 <printk>
   105b8:	eafffe97 	b	1001c <emmc_init+0x258>
   105bc:	e59f01b0 	ldr	r0, [pc, #432]	; 10774 <emmc_init+0x9b0>
   105c0:	eb000bda 	bl	13530 <printk>
   105c4:	e5943040 	ldr	r3, [r4, #64]	; 0x40
   105c8:	e5c47000 	strb	r7, [r4]
   105cc:	eafffecd 	b	10108 <emmc_init+0x344>
   105d0:	e59f019c 	ldr	r0, [pc, #412]	; 10774 <emmc_init+0x9b0>
   105d4:	eb000bd5 	bl	13530 <printk>
   105d8:	e5c47000 	strb	r7, [r4]
   105dc:	e5947040 	ldr	r7, [r4, #64]	; 0x40
   105e0:	eafffe78 	b	ffc8 <emmc_init+0x204>
   105e4:	e595102c 	ldr	r1, [r5, #44]	; 0x2c
   105e8:	e59f0188 	ldr	r0, [pc, #392]	; 10778 <emmc_init+0x9b4>
   105ec:	eb000bcf 	bl	13530 <printk>
   105f0:	eafffee2 	b	10180 <emmc_init+0x3bc>
   105f4:	e1a07822 	lsr	r7, r2, #16
   105f8:	e1a07807 	lsl	r7, r7, #16
   105fc:	e5842044 	str	r2, [r4, #68]	; 0x44
   10600:	e5847040 	str	r7, [r4, #64]	; 0x40
   10604:	eafffe6f 	b	ffc8 <emmc_init+0x204>
   10608:	e1a03822 	lsr	r3, r2, #16
   1060c:	e1a03803 	lsl	r3, r3, #16
   10610:	e5842044 	str	r2, [r4, #68]	; 0x44
   10614:	e5843040 	str	r3, [r4, #64]	; 0x40
   10618:	eafffeba 	b	10108 <emmc_init+0x344>
   1061c:	e59f0158 	ldr	r0, [pc, #344]	; 1077c <emmc_init+0x9b8>
   10620:	eb000bc2 	bl	13530 <printk>
   10624:	eafffed5 	b	10180 <emmc_init+0x3bc>
   10628:	e59f0150 	ldr	r0, [pc, #336]	; 10780 <emmc_init+0x9bc>
   1062c:	eb000bbf 	bl	13530 <printk>
   10630:	eafffed2 	b	10180 <emmc_init+0x3bc>
   10634:	e595102c 	ldr	r1, [r5, #44]	; 0x2c
   10638:	e59f0138 	ldr	r0, [pc, #312]	; 10778 <emmc_init+0x9b4>
   1063c:	eb000bbb 	bl	13530 <printk>
   10640:	eafffe75 	b	1001c <emmc_init+0x258>
   10644:	e59f0138 	ldr	r0, [pc, #312]	; 10784 <emmc_init+0x9c0>
   10648:	eb000bb8 	bl	13530 <printk>
   1064c:	eafffecb 	b	10180 <emmc_init+0x3bc>
   10650:	e59f0130 	ldr	r0, [pc, #304]	; 10788 <emmc_init+0x9c4>
   10654:	eb000bb5 	bl	13530 <printk>
   10658:	eafffec8 	b	10180 <emmc_init+0x3bc>
   1065c:	e59f0128 	ldr	r0, [pc, #296]	; 1078c <emmc_init+0x9c8>
   10660:	eb000bb2 	bl	13530 <printk>
   10664:	eafffec5 	b	10180 <emmc_init+0x3bc>
   10668:	e59f30a4 	ldr	r3, [pc, #164]	; 10714 <emmc_init+0x950>
   1066c:	e3a01000 	mov	r1, #0, 0
   10670:	e59300dc 	ldr	r0, [r3, #220]	; 0xdc
   10674:	e5840008 	str	r0, [r4, #8]
   10678:	ebfffb38 	bl	f360 <emmc_issue_command.constprop.0>
   1067c:	e3500000 	cmp	r0, #0, 0
   10680:	0affffc3 	beq	10594 <emmc_init+0x7d0>
   10684:	e3a03c02 	mov	r3, #512	; 0x200
   10688:	e5942048 	ldr	r2, [r4, #72]	; 0x48
   1068c:	e5843010 	str	r3, [r4, #16]
   10690:	e6bf2f32 	rev	r2, r2
   10694:	e1a03c22 	lsr	r3, r2, #24
   10698:	e213300f 	ands	r3, r3, #15, 0
   1069c:	05847054 	streq	r7, [r4, #84]	; 0x54
   106a0:	0a000007 	beq	106c4 <emmc_init+0x900>
   106a4:	e3530001 	cmp	r3, #1, 0
   106a8:	03a0300b 	moveq	r3, #11, 0
   106ac:	05843054 	streq	r3, [r4, #84]	; 0x54
   106b0:	0a000003 	beq	106c4 <emmc_init+0x900>
   106b4:	e3530002 	cmp	r3, #2, 0
   106b8:	0a000008 	beq	106e0 <emmc_init+0x91c>
   106bc:	e3e03000 	mvn	r3, #0, 0
   106c0:	e5843054 	str	r3, [r4, #84]	; 0x54
   106c4:	e3e02000 	mvn	r2, #0, 0
   106c8:	e59f3038 	ldr	r3, [pc, #56]	; 10708 <emmc_init+0x944>
   106cc:	e5832030 	str	r2, [r3, #48]	; 0x30
   106d0:	eafffeb1 	b	1019c <emmc_init+0x3d8>
   106d4:	e59f00b4 	ldr	r0, [pc, #180]	; 10790 <emmc_init+0x9cc>
   106d8:	eb000b94 	bl	13530 <printk>
   106dc:	eafffea7 	b	10180 <emmc_init+0x3bc>
   106e0:	e3120902 	tst	r2, #32768	; 0x8000
   106e4:	0a000004 	beq	106fc <emmc_init+0x938>
   106e8:	e3120b01 	tst	r2, #1024	; 0x400
   106ec:	13a03004 	movne	r3, #4, 0
   106f0:	15843054 	strne	r3, [r4, #84]	; 0x54
   106f4:	1afffff2 	bne	106c4 <emmc_init+0x900>
   106f8:	e3a03003 	mov	r3, #3, 0
   106fc:	e5843054 	str	r3, [r4, #84]	; 0x54
   10700:	eaffffef 	b	106c4 <emmc_init+0x900>
   10704:	00017a60 	.word	0x00017a60
   10708:	20300000 	.word	0x20300000
   1070c:	00015a1c 	.word	0x00015a1c
   10710:	00004e21 	.word	0x00004e21
   10714:	00015b84 	.word	0x00015b84
   10718:	00017a68 	.word	0x00017a68
   1071c:	00015c74 	.word	0x00015c74
   10720:	000001aa 	.word	0x000001aa
   10724:	00008001 	.word	0x00008001
   10728:	ffff0001 	.word	0xffff0001
   1072c:	00002710 	.word	0x00002710
   10730:	0001593c 	.word	0x0001593c
   10734:	000159f0 	.word	0x000159f0
   10738:	00015b30 	.word	0x00015b30
   1073c:	00015b64 	.word	0x00015b64
   10740:	000158c4 	.word	0x000158c4
   10744:	00008002 	.word	0x00008002
   10748:	ffef0002 	.word	0xffef0002
   1074c:	ffff0002 	.word	0xffff0002
   10750:	00015988 	.word	0x00015988
   10754:	000158e4 	.word	0x000158e4
   10758:	000159a8 	.word	0x000159a8
   1075c:	00015810 	.word	0x00015810
   10760:	000156e0 	.word	0x000156e0
   10764:	00017aa8 	.word	0x00017aa8
   10768:	00015b10 	.word	0x00015b10
   1076c:	000159cc 	.word	0x000159cc
   10770:	00015960 	.word	0x00015960
   10774:	00015708 	.word	0x00015708
   10778:	00015904 	.word	0x00015904
   1077c:	00015a40 	.word	0x00015a40
   10780:	00015acc 	.word	0x00015acc
   10784:	00015a60 	.word	0x00015a60
   10788:	00015a88 	.word	0x00015a88
   1078c:	00015aa8 	.word	0x00015aa8
   10790:	00015aec 	.word	0x00015aec

00010794 <read_cluster_chain>:
   10794:	e92d4070 	push	{r4, r5, r6, lr}
   10798:	e1a05000 	mov	r5, r0
   1079c:	e1a04001 	mov	r4, r1
   107a0:	e1a06002 	mov	r6, r2
   107a4:	e24dd008 	sub	sp, sp, #8, 0
   107a8:	ea00000f 	b	107ec <read_cluster_chain+0x58>
   107ac:	e3540001 	cmp	r4, #1, 0
   107b0:	9a000013 	bls	10804 <read_cluster_chain+0x70>
   107b4:	e5953008 	ldr	r3, [r5, #8]
   107b8:	e595100c 	ldr	r1, [r5, #12]
   107bc:	e2440002 	sub	r0, r4, #2, 0
   107c0:	e0203091 	mla	r0, r1, r0, r3
   107c4:	ebffefba 	bl	c6b4 <pi_sec_read>
   107c8:	e595200c 	ldr	r2, [r5, #12]
   107cc:	e1a01000 	mov	r1, r0
   107d0:	e1a02482 	lsl	r2, r2, #9
   107d4:	e1a00006 	mov	r0, r6
   107d8:	eb000ae2 	bl	13368 <memcpy>
   107dc:	e5952014 	ldr	r2, [r5, #20]
   107e0:	e595300c 	ldr	r3, [r5, #12]
   107e4:	e7924104 	ldr	r4, [r2, r4, lsl #2]
   107e8:	e0866483 	add	r6, r6, r3, lsl #9
   107ec:	e1a00004 	mov	r0, r4
   107f0:	ebfff413 	bl	d844 <fat32_fat_entry_type>
   107f4:	e370028f 	cmn	r0, #-268435448	; 0xf0000008
   107f8:	1affffeb 	bne	107ac <read_cluster_chain+0x18>
   107fc:	e28dd008 	add	sp, sp, #8, 0
   10800:	e8bd8070 	pop	{r4, r5, r6, pc}
   10804:	e59f2018 	ldr	r2, [pc, #24]	; 10824 <read_cluster_chain+0x90>
   10808:	e3a0305a 	mov	r3, #90, 0	; 0x5a
   1080c:	e59f1014 	ldr	r1, [pc, #20]	; 10828 <read_cluster_chain+0x94>
   10810:	e58d2000 	str	r2, [sp]
   10814:	e59f0010 	ldr	r0, [pc, #16]	; 1082c <read_cluster_chain+0x98>
   10818:	e59f2010 	ldr	r2, [pc, #16]	; 10830 <read_cluster_chain+0x9c>
   1081c:	eb000b43 	bl	13530 <printk>
   10820:	eb000c87 	bl	13a44 <clean_reboot>
   10824:	00015cc0 	.word	0x00015cc0
   10828:	00015c90 	.word	0x00015c90
   1082c:	00013f8c 	.word	0x00013f8c
   10830:	00015f68 	.word	0x00015f68

00010834 <write_cluster_chain>:
   10834:	e92d4ff0 	push	{r4, r5, r6, r7, r8, r9, sl, fp, lr}
   10838:	e3530000 	cmp	r3, #0, 0
   1083c:	e24dd014 	sub	sp, sp, #20, 0
   10840:	e1a05000 	mov	r5, r0
   10844:	e1a04001 	mov	r4, r1
   10848:	e58d3008 	str	r3, [sp, #8]
   1084c:	e58d200c 	str	r2, [sp, #12]
   10850:	0a000082 	beq	10a60 <write_cluster_chain+0x22c>
   10854:	e3a08000 	mov	r8, #0, 0
   10858:	e1a07008 	mov	r7, r8
   1085c:	e59f2290 	ldr	r2, [pc, #656]	; 10af4 <write_cluster_chain+0x2c0>
   10860:	e590900c 	ldr	r9, [r0, #12]
   10864:	e5d2300b 	ldrb	r3, [r2, #11]
   10868:	e5d2200c 	ldrb	r2, [r2, #12]
   1086c:	e1833402 	orr	r3, r3, r2, lsl #8
   10870:	e0090399 	mul	r9, r9, r3
   10874:	e59d3008 	ldr	r3, [sp, #8]
   10878:	e0436007 	sub	r6, r3, r7
   1087c:	e1560009 	cmp	r6, r9
   10880:	21a06009 	movcs	r6, r9
   10884:	e3540001 	cmp	r4, #1, 0
   10888:	81a0b104 	lslhi	fp, r4, #2
   1088c:	9a000044 	bls	109a4 <write_cluster_chain+0x170>
   10890:	e595200c 	ldr	r2, [r5, #12]
   10894:	e5953008 	ldr	r3, [r5, #8]
   10898:	e2448002 	sub	r8, r4, #2, 0
   1089c:	e1590006 	cmp	r9, r6
   108a0:	e0283892 	mla	r8, r2, r8, r3
   108a4:	9a00005c 	bls	10a1c <write_cluster_chain+0x1e8>
   108a8:	e1a00009 	mov	r0, r9
   108ac:	eb0007f0 	bl	12874 <kmalloc>
   108b0:	e595100c 	ldr	r1, [r5, #12]
   108b4:	e1a0a000 	mov	sl, r0
   108b8:	e1a00008 	mov	r0, r8
   108bc:	ebffef7c 	bl	c6b4 <pi_sec_read>
   108c0:	e1a02009 	mov	r2, r9
   108c4:	e1a01000 	mov	r1, r0
   108c8:	e1a0000a 	mov	r0, sl
   108cc:	eb000aa5 	bl	13368 <memcpy>
   108d0:	e59d300c 	ldr	r3, [sp, #12]
   108d4:	e1a02006 	mov	r2, r6
   108d8:	e0831007 	add	r1, r3, r7
   108dc:	e1a0000a 	mov	r0, sl
   108e0:	eb000aa0 	bl	13368 <memcpy>
   108e4:	e1a0100a 	mov	r1, sl
   108e8:	e1a00008 	mov	r0, r8
   108ec:	e595200c 	ldr	r2, [r5, #12]
   108f0:	ebfff000 	bl	c8f8 <pi_sec_write>
   108f4:	e59d3008 	ldr	r3, [sp, #8]
   108f8:	e0877006 	add	r7, r7, r6
   108fc:	e1530007 	cmp	r3, r7
   10900:	8a00004d 	bhi	10a3c <write_cluster_chain+0x208>
   10904:	e3e0327f 	mvn	r3, #-268435449	; 0xf0000007
   10908:	e5951014 	ldr	r1, [r5, #20]
   1090c:	e791400b 	ldr	r4, [r1, fp]
   10910:	e781300b 	str	r3, [r1, fp]
   10914:	e3540001 	cmp	r4, #1, 0
   10918:	9a000010 	bls	10960 <write_cluster_chain+0x12c>
   1091c:	e3a06000 	mov	r6, #0, 0
   10920:	ea000009 	b	1094c <write_cluster_chain+0x118>
   10924:	e1a00004 	mov	r0, r4
   10928:	ebfff3c5 	bl	d844 <fat32_fat_entry_type>
   1092c:	e370028f 	cmn	r0, #-268435448	; 0xf0000008
   10930:	e5951014 	ldr	r1, [r5, #20]
   10934:	0a000009 	beq	10960 <write_cluster_chain+0x12c>
   10938:	e1a03104 	lsl	r3, r4, #2
   1093c:	e7914104 	ldr	r4, [r1, r4, lsl #2]
   10940:	e7816003 	str	r6, [r1, r3]
   10944:	e3540001 	cmp	r4, #1, 0
   10948:	9a000004 	bls	10960 <write_cluster_chain+0x12c>
   1094c:	e1a00004 	mov	r0, r4
   10950:	ebfff3bb 	bl	d844 <fat32_fat_entry_type>
   10954:	e3500000 	cmp	r0, #0, 0
   10958:	1afffff1 	bne	10924 <write_cluster_chain+0xf0>
   1095c:	e5951014 	ldr	r1, [r5, #20]
   10960:	e59fc18c 	ldr	ip, [pc, #396]	; 10af4 <write_cluster_chain+0x2c0>
   10964:	e5dc2025 	ldrb	r2, [ip, #37]	; 0x25
   10968:	e5dc3024 	ldrb	r3, [ip, #36]	; 0x24
   1096c:	e5dc0026 	ldrb	r0, [ip, #38]	; 0x26
   10970:	e1833402 	orr	r3, r3, r2, lsl #8
   10974:	e5dc2027 	ldrb	r2, [ip, #39]	; 0x27
   10978:	e1833800 	orr	r3, r3, r0, lsl #16
   1097c:	e5950004 	ldr	r0, [r5, #4]
   10980:	e1832c02 	orr	r2, r3, r2, lsl #24
   10984:	e28dd014 	add	sp, sp, #20, 0
   10988:	e8bd4ff0 	pop	{r4, r5, r6, r7, r8, r9, sl, fp, lr}
   1098c:	eaffefd9 	b	c8f8 <pi_sec_write>
   10990:	e59d3008 	ldr	r3, [sp, #8]
   10994:	e1a08004 	mov	r8, r4
   10998:	e0436007 	sub	r6, r3, r7
   1099c:	e1560009 	cmp	r6, r9
   109a0:	21a06009 	movcs	r6, r9
   109a4:	e5953018 	ldr	r3, [r5, #24]
   109a8:	e3530003 	cmp	r3, #3, 0
   109ac:	9a00004a 	bls	10adc <write_cluster_chain+0x2a8>
   109b0:	e3a04003 	mov	r4, #3, 0
   109b4:	ea000003 	b	109c8 <write_cluster_chain+0x194>
   109b8:	e5953018 	ldr	r3, [r5, #24]
   109bc:	e2844001 	add	r4, r4, #1, 0
   109c0:	e1540003 	cmp	r4, r3
   109c4:	2a000044 	bcs	10adc <write_cluster_chain+0x2a8>
   109c8:	e5953014 	ldr	r3, [r5, #20]
   109cc:	e1a0b104 	lsl	fp, r4, #2
   109d0:	e7930104 	ldr	r0, [r3, r4, lsl #2]
   109d4:	ebfff39a 	bl	d844 <fat32_fat_entry_type>
   109d8:	e3500000 	cmp	r0, #0, 0
   109dc:	1afffff5 	bne	109b8 <write_cluster_chain+0x184>
   109e0:	e3e0227f 	mvn	r2, #-268435449	; 0xf0000007
   109e4:	e5953014 	ldr	r3, [r5, #20]
   109e8:	e3580001 	cmp	r8, #1, 0
   109ec:	e783200b 	str	r2, [r3, fp]
   109f0:	87834108 	strhi	r4, [r3, r8, lsl #2]
   109f4:	e3540001 	cmp	r4, #1, 0
   109f8:	8affffa4 	bhi	10890 <write_cluster_chain+0x5c>
   109fc:	e59f20f4 	ldr	r2, [pc, #244]	; 10af8 <write_cluster_chain+0x2c4>
   10a00:	e3a0305a 	mov	r3, #90, 0	; 0x5a
   10a04:	e59f10f0 	ldr	r1, [pc, #240]	; 10afc <write_cluster_chain+0x2c8>
   10a08:	e58d2000 	str	r2, [sp]
   10a0c:	e59f00ec 	ldr	r0, [pc, #236]	; 10b00 <write_cluster_chain+0x2cc>
   10a10:	e59f20ec 	ldr	r2, [pc, #236]	; 10b04 <write_cluster_chain+0x2d0>
   10a14:	eb000ac5 	bl	13530 <printk>
   10a18:	eb000c09 	bl	13a44 <clean_reboot>
   10a1c:	e59d300c 	ldr	r3, [sp, #12]
   10a20:	e1a00008 	mov	r0, r8
   10a24:	e0831007 	add	r1, r3, r7
   10a28:	ebffefb2 	bl	c8f8 <pi_sec_write>
   10a2c:	e59d3008 	ldr	r3, [sp, #8]
   10a30:	e0877006 	add	r7, r7, r6
   10a34:	e1530007 	cmp	r3, r7
   10a38:	9affffb1 	bls	10904 <write_cluster_chain+0xd0>
   10a3c:	e5953014 	ldr	r3, [r5, #20]
   10a40:	e793000b 	ldr	r0, [r3, fp]
   10a44:	ebfff37e 	bl	d844 <fat32_fat_entry_type>
   10a48:	e370028f 	cmn	r0, #-268435448	; 0xf0000008
   10a4c:	0affffcf 	beq	10990 <write_cluster_chain+0x15c>
   10a50:	e5953014 	ldr	r3, [r5, #20]
   10a54:	e1a08004 	mov	r8, r4
   10a58:	e793400b 	ldr	r4, [r3, fp]
   10a5c:	eaffff84 	b	10874 <write_cluster_chain+0x40>
   10a60:	e3510001 	cmp	r1, #1, 0
   10a64:	9a00001a 	bls	10ad4 <write_cluster_chain+0x2a0>
   10a68:	e1a0a003 	mov	sl, r3
   10a6c:	e1a00004 	mov	r0, r4
   10a70:	ebfff373 	bl	d844 <fat32_fat_entry_type>
   10a74:	e3500000 	cmp	r0, #0, 0
   10a78:	0a000015 	beq	10ad4 <write_cluster_chain+0x2a0>
   10a7c:	e5953014 	ldr	r3, [r5, #20]
   10a80:	e1a06104 	lsl	r6, r4, #2
   10a84:	e7930104 	ldr	r0, [r3, r4, lsl #2]
   10a88:	ebfff36d 	bl	d844 <fat32_fat_entry_type>
   10a8c:	e370028f 	cmn	r0, #-268435448	; 0xf0000008
   10a90:	0a00000b 	beq	10ac4 <write_cluster_chain+0x290>
   10a94:	e5951014 	ldr	r1, [r5, #20]
   10a98:	e7914104 	ldr	r4, [r1, r4, lsl #2]
   10a9c:	e781a006 	str	sl, [r1, r6]
   10aa0:	e3540001 	cmp	r4, #1, 0
   10aa4:	8afffff0 	bhi	10a6c <write_cluster_chain+0x238>
   10aa8:	e59f2044 	ldr	r2, [pc, #68]	; 10af4 <write_cluster_chain+0x2c0>
   10aac:	e5d23024 	ldrb	r3, [r2, #36]	; 0x24
   10ab0:	e5d2c025 	ldrb	ip, [r2, #37]	; 0x25
   10ab4:	e5d20026 	ldrb	r0, [r2, #38]	; 0x26
   10ab8:	e183340c 	orr	r3, r3, ip, lsl #8
   10abc:	e5d22027 	ldrb	r2, [r2, #39]	; 0x27
   10ac0:	eaffffac 	b	10978 <write_cluster_chain+0x144>
   10ac4:	e3a03000 	mov	r3, #0, 0
   10ac8:	e5951014 	ldr	r1, [r5, #20]
   10acc:	e7813006 	str	r3, [r1, r6]
   10ad0:	eafffff4 	b	10aa8 <write_cluster_chain+0x274>
   10ad4:	e5951014 	ldr	r1, [r5, #20]
   10ad8:	eafffff2 	b	10aa8 <write_cluster_chain+0x274>
   10adc:	e59f3024 	ldr	r3, [pc, #36]	; 10b08 <write_cluster_chain+0x2d4>
   10ae0:	e59f2024 	ldr	r2, [pc, #36]	; 10b0c <write_cluster_chain+0x2d8>
   10ae4:	e59f1010 	ldr	r1, [pc, #16]	; 10afc <write_cluster_chain+0x2c8>
   10ae8:	e59f0020 	ldr	r0, [pc, #32]	; 10b10 <write_cluster_chain+0x2dc>
   10aec:	eb000a8f 	bl	13530 <printk>
   10af0:	eb000bd3 	bl	13a44 <clean_reboot>
   10af4:	00017ac8 	.word	0x00017ac8
   10af8:	00015cc0 	.word	0x00015cc0
   10afc:	00015c90 	.word	0x00015c90
   10b00:	00013f8c 	.word	0x00013f8c
   10b04:	00015f68 	.word	0x00015f68
   10b08:	00000143 	.word	0x00000143
   10b0c:	00015f78 	.word	0x00015f78
   10b10:	00015cd4 	.word	0x00015cd4

00010b14 <fat32_mk>:
   10b14:	e92d4ff0 	push	{r4, r5, r6, r7, r8, r9, sl, fp, lr}
   10b18:	e59f31cc 	ldr	r3, [pc, #460]	; 10cec <fat32_mk+0x1d8>
   10b1c:	e24dd014 	sub	sp, sp, #20, 0
   10b20:	e5932000 	ldr	r2, [r3]
   10b24:	e3520000 	cmp	r2, #0, 0
   10b28:	1a00005f 	bne	10cac <fat32_mk+0x198>
   10b2c:	e1a07001 	mov	r7, r1
   10b30:	e5d12008 	ldrb	r2, [r1, #8]
   10b34:	e1a05000 	mov	r5, r0
   10b38:	e5d10009 	ldrb	r0, [r1, #9]
   10b3c:	e5d1100a 	ldrb	r1, [r1, #10]
   10b40:	e1822400 	orr	r2, r2, r0, lsl #8
   10b44:	e5d7000b 	ldrb	r0, [r7, #11]
   10b48:	e1822801 	orr	r2, r2, r1, lsl #16
   10b4c:	e1820c00 	orr	r0, r2, r0, lsl #24
   10b50:	e3a01001 	mov	r1, #1, 0
   10b54:	ebffeed6 	bl	c6b4 <pi_sec_read>
   10b58:	e1a06000 	mov	r6, r0
   10b5c:	e59f418c 	ldr	r4, [pc, #396]	; 10cf0 <fat32_mk+0x1dc>
   10b60:	e1a01000 	mov	r1, r0
   10b64:	e3a02c02 	mov	r2, #512	; 0x200
   10b68:	e1a00004 	mov	r0, r4
   10b6c:	eb0009fd 	bl	13368 <memcpy>
   10b70:	e1a00006 	mov	r0, r6
   10b74:	ebfff1bb 	bl	d268 <fat32_volume_id_check>
   10b78:	e5d72009 	ldrb	r2, [r7, #9]
   10b7c:	e5d70008 	ldrb	r0, [r7, #8]
   10b80:	e5d7100a 	ldrb	r1, [r7, #10]
   10b84:	e1800402 	orr	r0, r0, r2, lsl #8
   10b88:	e5d7200b 	ldrb	r2, [r7, #11]
   10b8c:	e1800801 	orr	r0, r0, r1, lsl #16
   10b90:	e1800c02 	orr	r0, r0, r2, lsl #24
   10b94:	e3a01001 	mov	r1, #1, 0
   10b98:	e2800001 	add	r0, r0, #1, 0
   10b9c:	ebffeec4 	bl	c6b4 <pi_sec_read>
   10ba0:	ebfff2dc 	bl	d718 <fat32_fsinfo_check>
   10ba4:	e5d49030 	ldrb	r9, [r4, #48]	; 0x30
   10ba8:	e5d42031 	ldrb	r2, [r4, #49]	; 0x31
   10bac:	e1893402 	orr	r3, r9, r2, lsl #8
   10bb0:	e3530001 	cmp	r3, #1, 0
   10bb4:	e58d300c 	str	r3, [sp, #12]
   10bb8:	1a000043 	bne	10ccc <fat32_mk+0x1b8>
   10bbc:	e5d42025 	ldrb	r2, [r4, #37]	; 0x25
   10bc0:	e5d4b024 	ldrb	fp, [r4, #36]	; 0x24
   10bc4:	e5d70009 	ldrb	r0, [r7, #9]
   10bc8:	e5d41026 	ldrb	r1, [r4, #38]	; 0x26
   10bcc:	e5d76008 	ldrb	r6, [r7, #8]
   10bd0:	e5d4e027 	ldrb	lr, [r4, #39]	; 0x27
   10bd4:	e18bb402 	orr	fp, fp, r2, lsl #8
   10bd8:	e5d7200a 	ldrb	r2, [r7, #10]
   10bdc:	e5d7a00b 	ldrb	sl, [r7, #11]
   10be0:	e5d4c00f 	ldrb	ip, [r4, #15]
   10be4:	e5d4800e 	ldrb	r8, [r4, #14]
   10be8:	e5d4702c 	ldrb	r7, [r4, #44]	; 0x2c
   10bec:	e18bb801 	orr	fp, fp, r1, lsl #16
   10bf0:	e1866400 	orr	r6, r6, r0, lsl #8
   10bf4:	e5d4002d 	ldrb	r0, [r4, #45]	; 0x2d
   10bf8:	e18b1c0e 	orr	r1, fp, lr, lsl #24
   10bfc:	e1866802 	orr	r6, r6, r2, lsl #16
   10c00:	e5d4e02e 	ldrb	lr, [r4, #46]	; 0x2e
   10c04:	e5d4300d 	ldrb	r3, [r4, #13]
   10c08:	e1a09481 	lsl	r9, r1, #9
   10c0c:	e1866c0a 	orr	r6, r6, sl, lsl #24
   10c10:	e5d4b010 	ldrb	fp, [r4, #16]
   10c14:	e188840c 	orr	r8, r8, ip, lsl #8
   10c18:	e1877400 	orr	r7, r7, r0, lsl #8
   10c1c:	e5d4c02f 	ldrb	ip, [r4, #47]	; 0x2f
   10c20:	e0888006 	add	r8, r8, r6
   10c24:	e187780e 	orr	r7, r7, lr, lsl #16
   10c28:	e1a00009 	mov	r0, r9
   10c2c:	e58d3008 	str	r3, [sp, #8]
   10c30:	e02b8b91 	mla	fp, r1, fp, r8
   10c34:	e1877c0c 	orr	r7, r7, ip, lsl #24
   10c38:	eb00070d 	bl	12874 <kmalloc>
   10c3c:	e5d41024 	ldrb	r1, [r4, #36]	; 0x24
   10c40:	e1a0a000 	mov	sl, r0
   10c44:	e5d40025 	ldrb	r0, [r4, #37]	; 0x25
   10c48:	e5d4e026 	ldrb	lr, [r4, #38]	; 0x26
   10c4c:	e5d4c027 	ldrb	ip, [r4, #39]	; 0x27
   10c50:	e1810400 	orr	r0, r1, r0, lsl #8
   10c54:	e180180e 	orr	r1, r0, lr, lsl #16
   10c58:	e1811c0c 	orr	r1, r1, ip, lsl #24
   10c5c:	e1a00008 	mov	r0, r8
   10c60:	ebffee93 	bl	c6b4 <pi_sec_read>
   10c64:	e1a02009 	mov	r2, r9
   10c68:	e1a01000 	mov	r1, r0
   10c6c:	e1a0000a 	mov	r0, sl
   10c70:	eb0009bc 	bl	13368 <memcpy>
   10c74:	e1a00005 	mov	r0, r5
   10c78:	e59d3008 	ldr	r3, [sp, #8]
   10c7c:	e1a02129 	lsr	r2, r9, #2
   10c80:	e5852018 	str	r2, [r5, #24]
   10c84:	e585300c 	str	r3, [r5, #12]
   10c88:	e59d200c 	ldr	r2, [sp, #12]
   10c8c:	e59f3058 	ldr	r3, [pc, #88]	; 10cec <fat32_mk+0x1d8>
   10c90:	e8850140 	stm	r5, {r6, r8}
   10c94:	e585b008 	str	fp, [r5, #8]
   10c98:	e5857010 	str	r7, [r5, #16]
   10c9c:	e585a014 	str	sl, [r5, #20]
   10ca0:	e5832000 	str	r2, [r3]
   10ca4:	e28dd014 	add	sp, sp, #20, 0
   10ca8:	e8bd8ff0 	pop	{r4, r5, r6, r7, r8, r9, sl, fp, pc}
   10cac:	e59f2040 	ldr	r2, [pc, #64]	; 10cf4 <fat32_mk+0x1e0>
   10cb0:	e3a03011 	mov	r3, #17, 0
   10cb4:	e59f103c 	ldr	r1, [pc, #60]	; 10cf8 <fat32_mk+0x1e4>
   10cb8:	e58d2000 	str	r2, [sp]
   10cbc:	e59f0038 	ldr	r0, [pc, #56]	; 10cfc <fat32_mk+0x1e8>
   10cc0:	e59f2038 	ldr	r2, [pc, #56]	; 10d00 <fat32_mk+0x1ec>
   10cc4:	eb000a19 	bl	13530 <printk>
   10cc8:	eb000b5d 	bl	13a44 <clean_reboot>
   10ccc:	e59f2030 	ldr	r2, [pc, #48]	; 10d04 <fat32_mk+0x1f0>
   10cd0:	e3a03023 	mov	r3, #35, 0	; 0x23
   10cd4:	e59f101c 	ldr	r1, [pc, #28]	; 10cf8 <fat32_mk+0x1e4>
   10cd8:	e58d2000 	str	r2, [sp]
   10cdc:	e59f0024 	ldr	r0, [pc, #36]	; 10d08 <fat32_mk+0x1f4>
   10ce0:	e59f2018 	ldr	r2, [pc, #24]	; 10d00 <fat32_mk+0x1ec>
   10ce4:	eb000a11 	bl	13530 <printk>
   10ce8:	eb000b55 	bl	13a44 <clean_reboot>
   10cec:	00017ab8 	.word	0x00017ab8
   10cf0:	00017ac8 	.word	0x00017ac8
   10cf4:	00015d58 	.word	0x00015d58
   10cf8:	00015c90 	.word	0x00015c90
   10cfc:	00015d04 	.word	0x00015d04
   10d00:	00015f8c 	.word	0x00015f8c
   10d04:	00015d60 	.word	0x00015d60
   10d08:	00013f8c 	.word	0x00013f8c

00010d0c <fat32_get_root>:
   10d0c:	e52de004 	push	{lr}		; (str lr, [sp, #-4]!)
   10d10:	e59f3070 	ldr	r3, [pc, #112]	; 10d88 <fat32_get_root+0x7c>
   10d14:	e24dd00c 	sub	sp, sp, #12, 0
   10d18:	e5932000 	ldr	r2, [r3]
   10d1c:	e3520000 	cmp	r2, #0, 0
   10d20:	0a000010 	beq	10d68 <fat32_get_root+0x5c>
   10d24:	e3a02000 	mov	r2, #0, 0
   10d28:	e1a0c000 	mov	ip, r0
   10d2c:	e3a0e001 	mov	lr, #1, 0
   10d30:	e5911010 	ldr	r1, [r1, #16]
   10d34:	e48c2004 	str	r2, [ip], #4
   10d38:	e5801020 	str	r1, [r0, #32]
   10d3c:	e5802004 	str	r2, [r0, #4]
   10d40:	e5802010 	str	r2, [r0, #16]
   10d44:	e5802014 	str	r2, [r0, #20]
   10d48:	e5802028 	str	r2, [r0, #40]	; 0x28
   10d4c:	e58c2004 	str	r2, [ip, #4]
   10d50:	e58c2008 	str	r2, [ip, #8]
   10d54:	e5802018 	str	r2, [r0, #24]
   10d58:	e580201c 	str	r2, [r0, #28]
   10d5c:	e580e024 	str	lr, [r0, #36]	; 0x24
   10d60:	e28dd00c 	add	sp, sp, #12, 0
   10d64:	e49df004 	pop	{pc}		; (ldr pc, [sp], #4)
   10d68:	e59f201c 	ldr	r2, [pc, #28]	; 10d8c <fat32_get_root+0x80>
   10d6c:	e3a03063 	mov	r3, #99, 0	; 0x63
   10d70:	e59f1018 	ldr	r1, [pc, #24]	; 10d90 <fat32_get_root+0x84>
   10d74:	e58d2000 	str	r2, [sp]
   10d78:	e59f0014 	ldr	r0, [pc, #20]	; 10d94 <fat32_get_root+0x88>
   10d7c:	e59f2014 	ldr	r2, [pc, #20]	; 10d98 <fat32_get_root+0x8c>
   10d80:	eb0009ea 	bl	13530 <printk>
   10d84:	eb000b2e 	bl	13a44 <clean_reboot>
   10d88:	00017ab8 	.word	0x00017ab8
   10d8c:	00014550 	.word	0x00014550
   10d90:	00015c90 	.word	0x00015c90
   10d94:	00015d80 	.word	0x00015d80
   10d98:	00015f98 	.word	0x00015f98

00010d9c <fat32_readdir>:
   10d9c:	e92d47f0 	push	{r4, r5, r6, r7, r8, r9, sl, lr}
   10da0:	e59f31f4 	ldr	r3, [pc, #500]	; 10f9c <fat32_readdir+0x200>
   10da4:	e24dd060 	sub	sp, sp, #96, 0	; 0x60
   10da8:	e5933000 	ldr	r3, [r3]
   10dac:	e3530000 	cmp	r3, #0, 0
   10db0:	0a000069 	beq	10f5c <fat32_readdir+0x1c0>
   10db4:	e5923024 	ldr	r3, [r2, #36]	; 0x24
   10db8:	e3530000 	cmp	r3, #0, 0
   10dbc:	0a00006e 	beq	10f7c <fat32_readdir+0x1e0>
   10dc0:	e5928020 	ldr	r8, [r2, #32]
   10dc4:	e1a09000 	mov	r9, r0
   10dc8:	e1a07001 	mov	r7, r1
   10dcc:	e3a05000 	mov	r5, #0, 0
   10dd0:	e1a04008 	mov	r4, r8
   10dd4:	ea000002 	b	10de4 <fat32_readdir+0x48>
   10dd8:	e5973014 	ldr	r3, [r7, #20]
   10ddc:	e2855001 	add	r5, r5, #1, 0
   10de0:	e7934104 	ldr	r4, [r3, r4, lsl #2]
   10de4:	e1a00004 	mov	r0, r4
   10de8:	ebfff295 	bl	d844 <fat32_fat_entry_type>
   10dec:	e370028f 	cmn	r0, #-268435448	; 0xf0000008
   10df0:	1afffff8 	bne	10dd8 <fat32_readdir+0x3c>
   10df4:	e597000c 	ldr	r0, [r7, #12]
   10df8:	e0000590 	mul	r0, r0, r5
   10dfc:	e1a00480 	lsl	r0, r0, #9
   10e00:	e1a062a0 	lsr	r6, r0, #5
   10e04:	eb00069a 	bl	12874 <kmalloc>
   10e08:	e1a04000 	mov	r4, r0
   10e0c:	e1a01008 	mov	r1, r8
   10e10:	e1a00007 	mov	r0, r7
   10e14:	e1a02004 	mov	r2, r4
   10e18:	ebfffe5d 	bl	10794 <read_cluster_chain>
   10e1c:	e0860106 	add	r0, r6, r6, lsl #2
   10e20:	e0860080 	add	r0, r6, r0, lsl #1
   10e24:	e1a00100 	lsl	r0, r0, #2
   10e28:	eb000691 	bl	12874 <kmalloc>
   10e2c:	e3560000 	cmp	r6, #0, 0
   10e30:	e1a08000 	mov	r8, r0
   10e34:	0a000043 	beq	10f48 <fat32_readdir+0x1ac>
   10e38:	e0847286 	add	r7, r4, r6, lsl #5
   10e3c:	e3a06000 	mov	r6, #0, 0
   10e40:	ea00003d 	b	10f3c <fat32_readdir+0x1a0>
   10e44:	e1a00004 	mov	r0, r4
   10e48:	ebfff2a8 	bl	d8f0 <fat32_dirent_free>
   10e4c:	e3500000 	cmp	r0, #0, 0
   10e50:	1a000036 	bne	10f30 <fat32_readdir+0x194>
   10e54:	e5d4a00b 	ldrb	sl, [r4, #11]
   10e58:	e35a000f 	cmp	sl, #15, 0
   10e5c:	0a000033 	beq	10f30 <fat32_readdir+0x194>
   10e60:	e21a1008 	ands	r1, sl, #8, 0
   10e64:	1a000031 	bne	10f30 <fat32_readdir+0x194>
   10e68:	e24aa010 	sub	sl, sl, #16, 0
   10e6c:	e16faf1a 	clz	sl, sl
   10e70:	e086e106 	add	lr, r6, r6, lsl #2
   10e74:	e086e08e 	add	lr, r6, lr, lsl #1
   10e78:	e3a02020 	mov	r2, #32, 0
   10e7c:	e28d0008 	add	r0, sp, #8, 0
   10e80:	e088510e 	add	r5, r8, lr, lsl #2
   10e84:	eb00096e 	bl	13444 <memset>
   10e88:	e5d40015 	ldrb	r0, [r4, #21]
   10e8c:	e5d4101b 	ldrb	r1, [r4, #27]
   10e90:	e5d42014 	ldrb	r2, [r4, #20]
   10e94:	e5d4301a 	ldrb	r3, [r4, #26]
   10e98:	e1822400 	orr	r2, r2, r0, lsl #8
   10e9c:	e1833401 	orr	r3, r3, r1, lsl #8
   10ea0:	e1833802 	orr	r3, r3, r2, lsl #16
   10ea4:	e1a0a2aa 	lsr	sl, sl, #5
   10ea8:	e58da02c 	str	sl, [sp, #44]	; 0x2c
   10eac:	e58d3028 	str	r3, [sp, #40]	; 0x28
   10eb0:	e5d4201d 	ldrb	r2, [r4, #29]
   10eb4:	e5d4301c 	ldrb	r3, [r4, #28]
   10eb8:	e5d4101e 	ldrb	r1, [r4, #30]
   10ebc:	e1833402 	orr	r3, r3, r2, lsl #8
   10ec0:	e5d4201f 	ldrb	r2, [r4, #31]
   10ec4:	e1833801 	orr	r3, r3, r1, lsl #16
   10ec8:	e1833c02 	orr	r3, r3, r2, lsl #24
   10ecc:	e1a01004 	mov	r1, r4
   10ed0:	e3a0200b 	mov	r2, #11, 0
   10ed4:	e28d0018 	add	r0, sp, #24, 0
   10ed8:	e58d3030 	str	r3, [sp, #48]	; 0x30
   10edc:	eb000921 	bl	13368 <memcpy>
   10ee0:	e1a00004 	mov	r0, r4
   10ee4:	e28d1008 	add	r1, sp, #8, 0
   10ee8:	ebfff2ed 	bl	daa4 <fat32_dirent_name>
   10eec:	e1a0e005 	mov	lr, r5
   10ef0:	e28da008 	add	sl, sp, #8, 0
   10ef4:	e28dc034 	add	ip, sp, #52, 0	; 0x34
   10ef8:	e8ba000f 	ldm	sl!, {r0, r1, r2, r3}
   10efc:	e8ac000f 	stmia	ip!, {r0, r1, r2, r3}
   10f00:	e8ba000f 	ldm	sl!, {r0, r1, r2, r3}
   10f04:	e8ac000f 	stmia	ip!, {r0, r1, r2, r3}
   10f08:	e89a0007 	ldm	sl, {r0, r1, r2}
   10f0c:	e28d5034 	add	r5, sp, #52, 0	; 0x34
   10f10:	e88c0007 	stm	ip, {r0, r1, r2}
   10f14:	e8b5000f 	ldm	r5!, {r0, r1, r2, r3}
   10f18:	e8ae000f 	stmia	lr!, {r0, r1, r2, r3}
   10f1c:	e8b5000f 	ldm	r5!, {r0, r1, r2, r3}
   10f20:	e8ae000f 	stmia	lr!, {r0, r1, r2, r3}
   10f24:	e89c0007 	ldm	ip, {r0, r1, r2}
   10f28:	e88e0007 	stm	lr, {r0, r1, r2}
   10f2c:	e2866001 	add	r6, r6, #1, 0
   10f30:	e2844020 	add	r4, r4, #32, 0
   10f34:	e1540007 	cmp	r4, r7
   10f38:	0a000002 	beq	10f48 <fat32_readdir+0x1ac>
   10f3c:	e5d43000 	ldrb	r3, [r4]
   10f40:	e3530000 	cmp	r3, #0, 0
   10f44:	1affffbe 	bne	10e44 <fat32_readdir+0xa8>
   10f48:	e1a00009 	mov	r0, r9
   10f4c:	e5898000 	str	r8, [r9]
   10f50:	e5896004 	str	r6, [r9, #4]
   10f54:	e28dd060 	add	sp, sp, #96, 0	; 0x60
   10f58:	e8bd87f0 	pop	{r4, r5, r6, r7, r8, r9, sl, pc}
   10f5c:	e59f203c 	ldr	r2, [pc, #60]	; 10fa0 <fat32_readdir+0x204>
   10f60:	e3a030c9 	mov	r3, #201, 0	; 0xc9
   10f64:	e59f1038 	ldr	r1, [pc, #56]	; 10fa4 <fat32_readdir+0x208>
   10f68:	e58d2000 	str	r2, [sp]
   10f6c:	e59f0034 	ldr	r0, [pc, #52]	; 10fa8 <fat32_readdir+0x20c>
   10f70:	e59f2034 	ldr	r2, [pc, #52]	; 10fac <fat32_readdir+0x210>
   10f74:	eb00096d 	bl	13530 <printk>
   10f78:	eb000ab1 	bl	13a44 <clean_reboot>
   10f7c:	e59f202c 	ldr	r2, [pc, #44]	; 10fb0 <fat32_readdir+0x214>
   10f80:	e3a030ca 	mov	r3, #202, 0	; 0xca
   10f84:	e59f1018 	ldr	r1, [pc, #24]	; 10fa4 <fat32_readdir+0x208>
   10f88:	e58d2000 	str	r2, [sp]
   10f8c:	e59f0020 	ldr	r0, [pc, #32]	; 10fb4 <fat32_readdir+0x218>
   10f90:	e59f2014 	ldr	r2, [pc, #20]	; 10fac <fat32_readdir+0x210>
   10f94:	eb000965 	bl	13530 <printk>
   10f98:	eb000aa9 	bl	13a44 <clean_reboot>
   10f9c:	00017ab8 	.word	0x00017ab8
   10fa0:	00014550 	.word	0x00014550
   10fa4:	00015c90 	.word	0x00015c90
   10fa8:	00015d80 	.word	0x00015d80
   10fac:	00015fa8 	.word	0x00015fa8
   10fb0:	00015e0c 	.word	0x00015e0c
   10fb4:	00015dc4 	.word	0x00015dc4

00010fb8 <fat32_stat>:
   10fb8:	e92d43f0 	push	{r4, r5, r6, r7, r8, r9, lr}
   10fbc:	e59f31dc 	ldr	r3, [pc, #476]	; 111a0 <fat32_stat+0x1e8>
   10fc0:	e24dd064 	sub	sp, sp, #100, 0	; 0x64
   10fc4:	e5933000 	ldr	r3, [r3]
   10fc8:	e3530000 	cmp	r3, #0, 0
   10fcc:	0a000063 	beq	11160 <fat32_stat+0x1a8>
   10fd0:	e5913024 	ldr	r3, [r1, #36]	; 0x24
   10fd4:	e3530000 	cmp	r3, #0, 0
   10fd8:	0a000068 	beq	11180 <fat32_stat+0x1c8>
   10fdc:	e5918020 	ldr	r8, [r1, #32]
   10fe0:	e1a06000 	mov	r6, r0
   10fe4:	e1a07002 	mov	r7, r2
   10fe8:	e3a09000 	mov	r9, #0, 0
   10fec:	e1a04008 	mov	r4, r8
   10ff0:	ea000002 	b	11000 <fat32_stat+0x48>
   10ff4:	e5963014 	ldr	r3, [r6, #20]
   10ff8:	e2899001 	add	r9, r9, #1, 0
   10ffc:	e7934104 	ldr	r4, [r3, r4, lsl #2]
   11000:	e1a00004 	mov	r0, r4
   11004:	ebfff20e 	bl	d844 <fat32_fat_entry_type>
   11008:	e370028f 	cmn	r0, #-268435448	; 0xf0000008
   1100c:	1afffff8 	bne	10ff4 <fat32_stat+0x3c>
   11010:	e596500c 	ldr	r5, [r6, #12]
   11014:	e0050995 	mul	r5, r5, r9
   11018:	e1a00485 	lsl	r0, r5, #9
   1101c:	e1a052a0 	lsr	r5, r0, #5
   11020:	eb000613 	bl	12874 <kmalloc>
   11024:	e1a04000 	mov	r4, r0
   11028:	e1a01008 	mov	r1, r8
   1102c:	e1a00006 	mov	r0, r6
   11030:	e1a02004 	mov	r2, r4
   11034:	ebfffdd6 	bl	10794 <read_cluster_chain>
   11038:	e3550000 	cmp	r5, #0, 0
   1103c:	0a000043 	beq	11150 <fat32_stat+0x198>
   11040:	e3a06000 	mov	r6, #0, 0
   11044:	ea000003 	b	11058 <fat32_stat+0xa0>
   11048:	e2866001 	add	r6, r6, #1, 0
   1104c:	e1550006 	cmp	r5, r6
   11050:	e2844020 	add	r4, r4, #32, 0
   11054:	0a00003d 	beq	11150 <fat32_stat+0x198>
   11058:	e1a00004 	mov	r0, r4
   1105c:	e28d1034 	add	r1, sp, #52, 0	; 0x34
   11060:	ebfff28f 	bl	daa4 <fat32_dirent_name>
   11064:	e1a01007 	mov	r1, r7
   11068:	e28d0034 	add	r0, sp, #52, 0	; 0x34
   1106c:	eb000a4f 	bl	139b0 <strcmp>
   11070:	e2508000 	subs	r8, r0, #0, 0
   11074:	1afffff3 	bne	11048 <fat32_stat+0x90>
   11078:	e3a0002c 	mov	r0, #44, 0	; 0x2c
   1107c:	eb0005fc 	bl	12874 <kmalloc>
   11080:	e1a01008 	mov	r1, r8
   11084:	e1a06000 	mov	r6, r0
   11088:	e3a02020 	mov	r2, #32, 0
   1108c:	e28d0008 	add	r0, sp, #8, 0
   11090:	eb0008eb 	bl	13444 <memset>
   11094:	e5d40015 	ldrb	r0, [r4, #21]
   11098:	e5d4101b 	ldrb	r1, [r4, #27]
   1109c:	e5d42014 	ldrb	r2, [r4, #20]
   110a0:	e5d4301a 	ldrb	r3, [r4, #26]
   110a4:	e1822400 	orr	r2, r2, r0, lsl #8
   110a8:	e1833401 	orr	r3, r3, r1, lsl #8
   110ac:	e1833802 	orr	r3, r3, r2, lsl #16
   110b0:	e58d3028 	str	r3, [sp, #40]	; 0x28
   110b4:	e5d4300b 	ldrb	r3, [r4, #11]
   110b8:	e3a0200b 	mov	r2, #11, 0
   110bc:	e2433010 	sub	r3, r3, #16, 0
   110c0:	e16f3f13 	clz	r3, r3
   110c4:	e1a032a3 	lsr	r3, r3, #5
   110c8:	e58d302c 	str	r3, [sp, #44]	; 0x2c
   110cc:	e5d4101d 	ldrb	r1, [r4, #29]
   110d0:	e5d4301c 	ldrb	r3, [r4, #28]
   110d4:	e5d4001e 	ldrb	r0, [r4, #30]
   110d8:	e1833401 	orr	r3, r3, r1, lsl #8
   110dc:	e5d4101f 	ldrb	r1, [r4, #31]
   110e0:	e1833800 	orr	r3, r3, r0, lsl #16
   110e4:	e1833c01 	orr	r3, r3, r1, lsl #24
   110e8:	e28d0018 	add	r0, sp, #24, 0
   110ec:	e1a01004 	mov	r1, r4
   110f0:	e58d3030 	str	r3, [sp, #48]	; 0x30
   110f4:	eb00089b 	bl	13368 <memcpy>
   110f8:	e1a00004 	mov	r0, r4
   110fc:	e28d1008 	add	r1, sp, #8, 0
   11100:	ebfff267 	bl	daa4 <fat32_dirent_name>
   11104:	e28dc034 	add	ip, sp, #52, 0	; 0x34
   11108:	e1a0500c 	mov	r5, ip
   1110c:	e1a04006 	mov	r4, r6
   11110:	e28de008 	add	lr, sp, #8, 0
   11114:	e8be000f 	ldm	lr!, {r0, r1, r2, r3}
   11118:	e8ac000f 	stmia	ip!, {r0, r1, r2, r3}
   1111c:	e8be000f 	ldm	lr!, {r0, r1, r2, r3}
   11120:	e8ac000f 	stmia	ip!, {r0, r1, r2, r3}
   11124:	e89e0007 	ldm	lr, {r0, r1, r2}
   11128:	e88c0007 	stm	ip, {r0, r1, r2}
   1112c:	e8b5000f 	ldm	r5!, {r0, r1, r2, r3}
   11130:	e8a4000f 	stmia	r4!, {r0, r1, r2, r3}
   11134:	e8b5000f 	ldm	r5!, {r0, r1, r2, r3}
   11138:	e8a4000f 	stmia	r4!, {r0, r1, r2, r3}
   1113c:	e89c0007 	ldm	ip, {r0, r1, r2}
   11140:	e8840007 	stm	r4, {r0, r1, r2}
   11144:	e1a00006 	mov	r0, r6
   11148:	e28dd064 	add	sp, sp, #100, 0	; 0x64
   1114c:	e8bd83f0 	pop	{r4, r5, r6, r7, r8, r9, pc}
   11150:	e3a06000 	mov	r6, #0, 0
   11154:	e1a00006 	mov	r0, r6
   11158:	e28dd064 	add	sp, sp, #100, 0	; 0x64
   1115c:	e8bd83f0 	pop	{r4, r5, r6, r7, r8, r9, pc}
   11160:	e59f203c 	ldr	r2, [pc, #60]	; 111a4 <fat32_stat+0x1ec>
   11164:	e3a030fc 	mov	r3, #252, 0	; 0xfc
   11168:	e59f1038 	ldr	r1, [pc, #56]	; 111a8 <fat32_stat+0x1f0>
   1116c:	e58d2000 	str	r2, [sp]
   11170:	e59f0034 	ldr	r0, [pc, #52]	; 111ac <fat32_stat+0x1f4>
   11174:	e59f2034 	ldr	r2, [pc, #52]	; 111b0 <fat32_stat+0x1f8>
   11178:	eb0008ec 	bl	13530 <printk>
   1117c:	eb000a30 	bl	13a44 <clean_reboot>
   11180:	e59f202c 	ldr	r2, [pc, #44]	; 111b4 <fat32_stat+0x1fc>
   11184:	e3a030fd 	mov	r3, #253, 0	; 0xfd
   11188:	e59f1018 	ldr	r1, [pc, #24]	; 111a8 <fat32_stat+0x1f0>
   1118c:	e58d2000 	str	r2, [sp]
   11190:	e59f0020 	ldr	r0, [pc, #32]	; 111b8 <fat32_stat+0x200>
   11194:	e59f2014 	ldr	r2, [pc, #20]	; 111b0 <fat32_stat+0x1f8>
   11198:	eb0008e4 	bl	13530 <printk>
   1119c:	eb000a28 	bl	13a44 <clean_reboot>
   111a0:	00017ab8 	.word	0x00017ab8
   111a4:	00014550 	.word	0x00014550
   111a8:	00015c90 	.word	0x00015c90
   111ac:	00015d80 	.word	0x00015d80
   111b0:	00015fb8 	.word	0x00015fb8
   111b4:	00015e70 	.word	0x00015e70
   111b8:	00015e20 	.word	0x00015e20

000111bc <fat32_read>:
   111bc:	e92d40f0 	push	{r4, r5, r6, r7, lr}
   111c0:	e59f30ec 	ldr	r3, [pc, #236]	; 112b4 <fat32_read+0xf8>
   111c4:	e24dd00c 	sub	sp, sp, #12, 0
   111c8:	e593c000 	ldr	ip, [r3]
   111cc:	e35c0000 	cmp	ip, #0, 0
   111d0:	0a000021 	beq	1125c <fat32_read+0xa0>
   111d4:	e5913024 	ldr	r3, [r1, #36]	; 0x24
   111d8:	e3530000 	cmp	r3, #0, 0
   111dc:	0a00002c 	beq	11294 <fat32_read+0xd8>
   111e0:	e1a06000 	mov	r6, r0
   111e4:	ebffff73 	bl	10fb8 <fat32_stat>
   111e8:	e2507000 	subs	r7, r0, #0, 0
   111ec:	13a05000 	movne	r5, #0, 0
   111f0:	15974020 	ldrne	r4, [r7, #32]
   111f4:	1a000003 	bne	11208 <fat32_read+0x4c>
   111f8:	ea00001f 	b	1127c <fat32_read+0xc0>
   111fc:	e5963014 	ldr	r3, [r6, #20]
   11200:	e2855001 	add	r5, r5, #1, 0
   11204:	e7934104 	ldr	r4, [r3, r4, lsl #2]
   11208:	e1a00004 	mov	r0, r4
   1120c:	ebfff18c 	bl	d844 <fat32_fat_entry_type>
   11210:	e370028f 	cmn	r0, #-268435448	; 0xf0000008
   11214:	1afffff8 	bne	111fc <fat32_read+0x40>
   11218:	e596300c 	ldr	r3, [r6, #12]
   1121c:	e0050593 	mul	r5, r3, r5
   11220:	e1a05485 	lsl	r5, r5, #9
   11224:	e1a00005 	mov	r0, r5
   11228:	eb000591 	bl	12874 <kmalloc>
   1122c:	e1a04000 	mov	r4, r0
   11230:	e5971020 	ldr	r1, [r7, #32]
   11234:	e1a02004 	mov	r2, r4
   11238:	e1a00006 	mov	r0, r6
   1123c:	ebfffd54 	bl	10794 <read_cluster_chain>
   11240:	e3a0000c 	mov	r0, #12, 0
   11244:	eb00058a 	bl	12874 <kmalloc>
   11248:	e5972028 	ldr	r2, [r7, #40]	; 0x28
   1124c:	e8800030 	stm	r0, {r4, r5}
   11250:	e5802008 	str	r2, [r0, #8]
   11254:	e28dd00c 	add	sp, sp, #12, 0
   11258:	e8bd80f0 	pop	{r4, r5, r6, r7, pc}
   1125c:	e59f2054 	ldr	r2, [pc, #84]	; 112b8 <fat32_read+0xfc>
   11260:	e3a03f45 	mov	r3, #276	; 0x114
   11264:	e59f1050 	ldr	r1, [pc, #80]	; 112bc <fat32_read+0x100>
   11268:	e58d2000 	str	r2, [sp]
   1126c:	e59f004c 	ldr	r0, [pc, #76]	; 112c0 <fat32_read+0x104>
   11270:	e59f204c 	ldr	r2, [pc, #76]	; 112c4 <fat32_read+0x108>
   11274:	eb0008ad 	bl	13530 <printk>
   11278:	eb0009f1 	bl	13a44 <clean_reboot>
   1127c:	e59f3044 	ldr	r3, [pc, #68]	; 112c8 <fat32_read+0x10c>
   11280:	e59f203c 	ldr	r2, [pc, #60]	; 112c4 <fat32_read+0x108>
   11284:	e59f1030 	ldr	r1, [pc, #48]	; 112bc <fat32_read+0x100>
   11288:	e59f003c 	ldr	r0, [pc, #60]	; 112cc <fat32_read+0x110>
   1128c:	eb0008a7 	bl	13530 <printk>
   11290:	eb0009eb 	bl	13a44 <clean_reboot>
   11294:	e59f2034 	ldr	r2, [pc, #52]	; 112d0 <fat32_read+0x114>
   11298:	e59f3034 	ldr	r3, [pc, #52]	; 112d4 <fat32_read+0x118>
   1129c:	e59f1018 	ldr	r1, [pc, #24]	; 112bc <fat32_read+0x100>
   112a0:	e58d2000 	str	r2, [sp]
   112a4:	e59f002c 	ldr	r0, [pc, #44]	; 112d8 <fat32_read+0x11c>
   112a8:	e59f2014 	ldr	r2, [pc, #20]	; 112c4 <fat32_read+0x108>
   112ac:	eb00089f 	bl	13530 <printk>
   112b0:	eb0009e3 	bl	13a44 <clean_reboot>
   112b4:	00017ab8 	.word	0x00017ab8
   112b8:	00014550 	.word	0x00014550
   112bc:	00015c90 	.word	0x00015c90
   112c0:	00015d80 	.word	0x00015d80
   112c4:	00015fc4 	.word	0x00015fc4
   112c8:	0000011a 	.word	0x0000011a
   112cc:	00015ed4 	.word	0x00015ed4
   112d0:	00015e70 	.word	0x00015e70
   112d4:	00000115 	.word	0x00000115
   112d8:	00015e84 	.word	0x00015e84

000112dc <fat32_rename>:
   112dc:	e92d4ff0 	push	{r4, r5, r6, r7, r8, r9, sl, fp, lr}
   112e0:	e59fc1b4 	ldr	ip, [pc, #436]	; 1149c <fat32_rename+0x1c0>
   112e4:	e1a04000 	mov	r4, r0
   112e8:	e59c0000 	ldr	r0, [ip]
   112ec:	e24dd024 	sub	sp, sp, #36, 0	; 0x24
   112f0:	e3500000 	cmp	r0, #0, 0
   112f4:	e58d1008 	str	r1, [sp, #8]
   112f8:	0a00005f 	beq	1147c <fat32_rename+0x1a0>
   112fc:	e1a00003 	mov	r0, r3
   11300:	e1a07002 	mov	r7, r2
   11304:	e1a06003 	mov	r6, r3
   11308:	ebfff233 	bl	dbdc <fat32_is_valid_name>
   1130c:	e3500000 	cmp	r0, #0, 0
   11310:	1a000001 	bne	1131c <fat32_rename+0x40>
   11314:	e28dd024 	add	sp, sp, #36, 0	; 0x24
   11318:	e8bd8ff0 	pop	{r4, r5, r6, r7, r8, r9, sl, fp, pc}
   1131c:	e59d3008 	ldr	r3, [sp, #8]
   11320:	e3a05000 	mov	r5, #0, 0
   11324:	e593b020 	ldr	fp, [r3, #32]
   11328:	e1a0900b 	mov	r9, fp
   1132c:	ea000002 	b	1133c <fat32_rename+0x60>
   11330:	e5943014 	ldr	r3, [r4, #20]
   11334:	e2855001 	add	r5, r5, #1, 0
   11338:	e7939109 	ldr	r9, [r3, r9, lsl #2]
   1133c:	e1a00009 	mov	r0, r9
   11340:	ebfff13f 	bl	d844 <fat32_fat_entry_type>
   11344:	e370028f 	cmn	r0, #-268435448	; 0xf0000008
   11348:	1afffff8 	bne	11330 <fat32_rename+0x54>
   1134c:	e594000c 	ldr	r0, [r4, #12]
   11350:	e0000590 	mul	r0, r0, r5
   11354:	e1a00480 	lsl	r0, r0, #9
   11358:	e1a052a0 	lsr	r5, r0, #5
   1135c:	eb000544 	bl	12874 <kmalloc>
   11360:	e1a0100b 	mov	r1, fp
   11364:	e1a02000 	mov	r2, r0
   11368:	e1a0a000 	mov	sl, r0
   1136c:	e1a00004 	mov	r0, r4
   11370:	ebfffd07 	bl	10794 <read_cluster_chain>
   11374:	e3550000 	cmp	r5, #0, 0
   11378:	0a00003d 	beq	11474 <fat32_rename+0x198>
   1137c:	e1a0b00a 	mov	fp, sl
   11380:	e1a0800a 	mov	r8, sl
   11384:	e3a09000 	mov	r9, #0, 0
   11388:	ea000000 	b	11390 <fat32_rename+0xb4>
   1138c:	e1a09002 	mov	r9, r2
   11390:	e1a00008 	mov	r0, r8
   11394:	e28d1010 	add	r1, sp, #16, 0
   11398:	ebfff1c1 	bl	daa4 <fat32_dirent_name>
   1139c:	e1a01006 	mov	r1, r6
   113a0:	e28d0010 	add	r0, sp, #16, 0
   113a4:	eb000981 	bl	139b0 <strcmp>
   113a8:	e3500000 	cmp	r0, #0, 0
   113ac:	0affffd8 	beq	11314 <fat32_rename+0x38>
   113b0:	e2892001 	add	r2, r9, #1, 0
   113b4:	e1550002 	cmp	r5, r2
   113b8:	e2888020 	add	r8, r8, #32, 0
   113bc:	1afffff2 	bne	1138c <fat32_rename+0xb0>
   113c0:	e3a05000 	mov	r5, #0, 0
   113c4:	ea000003 	b	113d8 <fat32_rename+0xfc>
   113c8:	e1550009 	cmp	r5, r9
   113cc:	e28bb020 	add	fp, fp, #32, 0
   113d0:	e2855001 	add	r5, r5, #1, 0
   113d4:	0a000026 	beq	11474 <fat32_rename+0x198>
   113d8:	e1a0000b 	mov	r0, fp
   113dc:	e28d1010 	add	r1, sp, #16, 0
   113e0:	ebfff1af 	bl	daa4 <fat32_dirent_name>
   113e4:	e1a01007 	mov	r1, r7
   113e8:	e28d0010 	add	r0, sp, #16, 0
   113ec:	eb00096f 	bl	139b0 <strcmp>
   113f0:	e2503000 	subs	r3, r0, #0, 0
   113f4:	1afffff3 	bne	113c8 <fat32_rename+0xec>
   113f8:	e1a01006 	mov	r1, r6
   113fc:	e1a0000b 	mov	r0, fp
   11400:	e58d300c 	str	r3, [sp, #12]
   11404:	ebfff264 	bl	dd9c <fat32_dirent_set_name>
   11408:	e59d300c 	ldr	r3, [sp, #12]
   1140c:	e1a05003 	mov	r5, r3
   11410:	e59d3008 	ldr	r3, [sp, #8]
   11414:	e5936020 	ldr	r6, [r3, #32]
   11418:	ea000002 	b	11428 <fat32_rename+0x14c>
   1141c:	e5943014 	ldr	r3, [r4, #20]
   11420:	e2855001 	add	r5, r5, #1, 0
   11424:	e7936106 	ldr	r6, [r3, r6, lsl #2]
   11428:	e1a00006 	mov	r0, r6
   1142c:	ebfff104 	bl	d844 <fat32_fat_entry_type>
   11430:	e370028f 	cmn	r0, #-268435448	; 0xf0000008
   11434:	1afffff8 	bne	1141c <fat32_rename+0x140>
   11438:	e59f3060 	ldr	r3, [pc, #96]	; 114a0 <fat32_rename+0x1c4>
   1143c:	e1a0200a 	mov	r2, sl
   11440:	e5d3000c 	ldrb	r0, [r3, #12]
   11444:	e5d3100b 	ldrb	r1, [r3, #11]
   11448:	e594300c 	ldr	r3, [r4, #12]
   1144c:	e1811400 	orr	r1, r1, r0, lsl #8
   11450:	e0030193 	mul	r3, r3, r1
   11454:	e59d1008 	ldr	r1, [sp, #8]
   11458:	e1a00004 	mov	r0, r4
   1145c:	e0030395 	mul	r3, r5, r3
   11460:	e5911020 	ldr	r1, [r1, #32]
   11464:	ebfffcf2 	bl	10834 <write_cluster_chain>
   11468:	e3a00001 	mov	r0, #1, 0
   1146c:	e28dd024 	add	sp, sp, #36, 0	; 0x24
   11470:	e8bd8ff0 	pop	{r4, r5, r6, r7, r8, r9, sl, fp, pc}
   11474:	e3a00000 	mov	r0, #0, 0
   11478:	eaffffa5 	b	11314 <fat32_rename+0x38>
   1147c:	e59f2020 	ldr	r2, [pc, #32]	; 114a4 <fat32_rename+0x1c8>
   11480:	e59f3020 	ldr	r3, [pc, #32]	; 114a8 <fat32_rename+0x1cc>
   11484:	e59f1020 	ldr	r1, [pc, #32]	; 114ac <fat32_rename+0x1d0>
   11488:	e58d2000 	str	r2, [sp]
   1148c:	e59f001c 	ldr	r0, [pc, #28]	; 114b0 <fat32_rename+0x1d4>
   11490:	e59f201c 	ldr	r2, [pc, #28]	; 114b4 <fat32_rename+0x1d8>
   11494:	eb000825 	bl	13530 <printk>
   11498:	eb000969 	bl	13a44 <clean_reboot>
   1149c:	00017ab8 	.word	0x00017ab8
   114a0:	00017ac8 	.word	0x00017ac8
   114a4:	00014550 	.word	0x00014550
   114a8:	000001be 	.word	0x000001be
   114ac:	00015c90 	.word	0x00015c90
   114b0:	00015d80 	.word	0x00015d80
   114b4:	00015fd0 	.word	0x00015fd0

000114b8 <fat32_create>:
   114b8:	e92d4ff0 	push	{r4, r5, r6, r7, r8, r9, sl, fp, lr}
   114bc:	e59fc294 	ldr	ip, [pc, #660]	; 11758 <fat32_create+0x2a0>
   114c0:	e1a06000 	mov	r6, r0
   114c4:	e59c0000 	ldr	r0, [ip]
   114c8:	e24dd064 	sub	sp, sp, #100, 0	; 0x64
   114cc:	e3500000 	cmp	r0, #0, 0
   114d0:	0a000098 	beq	11738 <fat32_create+0x280>
   114d4:	e1a00002 	mov	r0, r2
   114d8:	e1a09001 	mov	r9, r1
   114dc:	e1a07002 	mov	r7, r2
   114e0:	e1a0a003 	mov	sl, r3
   114e4:	ebfff1bc 	bl	dbdc <fat32_is_valid_name>
   114e8:	e3500000 	cmp	r0, #0, 0
   114ec:	0a000025 	beq	11588 <fat32_create+0xd0>
   114f0:	e599b020 	ldr	fp, [r9, #32]
   114f4:	e3a05000 	mov	r5, #0, 0
   114f8:	e1a0400b 	mov	r4, fp
   114fc:	ea000002 	b	1150c <fat32_create+0x54>
   11500:	e5963014 	ldr	r3, [r6, #20]
   11504:	e2855001 	add	r5, r5, #1, 0
   11508:	e7934104 	ldr	r4, [r3, r4, lsl #2]
   1150c:	e1a00004 	mov	r0, r4
   11510:	ebfff0cb 	bl	d844 <fat32_fat_entry_type>
   11514:	e370028f 	cmn	r0, #-268435448	; 0xf0000008
   11518:	1afffff8 	bne	11500 <fat32_create+0x48>
   1151c:	e596000c 	ldr	r0, [r6, #12]
   11520:	e0050590 	mul	r5, r0, r5
   11524:	e1a00485 	lsl	r0, r5, #9
   11528:	e1a052a0 	lsr	r5, r0, #5
   1152c:	eb0004d0 	bl	12874 <kmalloc>
   11530:	e1a0100b 	mov	r1, fp
   11534:	e1a02000 	mov	r2, r0
   11538:	e1a08000 	mov	r8, r0
   1153c:	e1a00006 	mov	r0, r6
   11540:	ebfffc93 	bl	10794 <read_cluster_chain>
   11544:	e3550000 	cmp	r5, #0, 0
   11548:	0a000074 	beq	11720 <fat32_create+0x268>
   1154c:	e1a0b008 	mov	fp, r8
   11550:	e3a04000 	mov	r4, #0, 0
   11554:	ea000003 	b	11568 <fat32_create+0xb0>
   11558:	e2844001 	add	r4, r4, #1, 0
   1155c:	e1550004 	cmp	r5, r4
   11560:	e28bb020 	add	fp, fp, #32, 0
   11564:	0a00000b 	beq	11598 <fat32_create+0xe0>
   11568:	e1a0000b 	mov	r0, fp
   1156c:	e28d1034 	add	r1, sp, #52, 0	; 0x34
   11570:	ebfff14b 	bl	daa4 <fat32_dirent_name>
   11574:	e1a01007 	mov	r1, r7
   11578:	e28d0034 	add	r0, sp, #52, 0	; 0x34
   1157c:	eb00090b 	bl	139b0 <strcmp>
   11580:	e3500000 	cmp	r0, #0, 0
   11584:	1afffff3 	bne	11558 <fat32_create+0xa0>
   11588:	e1a06000 	mov	r6, r0
   1158c:	e1a00006 	mov	r0, r6
   11590:	e28dd064 	add	sp, sp, #100, 0	; 0x64
   11594:	e8bd8ff0 	pop	{r4, r5, r6, r7, r8, r9, sl, fp, pc}
   11598:	e1a0b008 	mov	fp, r8
   1159c:	e3a04000 	mov	r4, #0, 0
   115a0:	ea000003 	b	115b4 <fat32_create+0xfc>
   115a4:	e2844001 	add	r4, r4, #1, 0
   115a8:	e1540005 	cmp	r4, r5
   115ac:	e28bb020 	add	fp, fp, #32, 0
   115b0:	2a00005a 	bcs	11720 <fat32_create+0x268>
   115b4:	e1a0000b 	mov	r0, fp
   115b8:	ebfff0cc 	bl	d8f0 <fat32_dirent_free>
   115bc:	e3500000 	cmp	r0, #0, 0
   115c0:	0afffff7 	beq	115a4 <fat32_create+0xec>
   115c4:	e0884284 	add	r4, r8, r4, lsl #5
   115c8:	e3a02020 	mov	r2, #32, 0
   115cc:	e3a01000 	mov	r1, #0, 0
   115d0:	e1a00004 	mov	r0, r4
   115d4:	eb00079a 	bl	13444 <memset>
   115d8:	e1a01007 	mov	r1, r7
   115dc:	e1a00004 	mov	r0, r4
   115e0:	ebfff1ed 	bl	dd9c <fat32_dirent_set_name>
   115e4:	e35a0000 	cmp	sl, #0, 0
   115e8:	13a03010 	movne	r3, #16, 0
   115ec:	03a03020 	moveq	r3, #32, 0
   115f0:	e5c4300b 	strb	r3, [r4, #11]
   115f4:	e3a07000 	mov	r7, #0, 0
   115f8:	e5995020 	ldr	r5, [r9, #32]
   115fc:	ea000002 	b	1160c <fat32_create+0x154>
   11600:	e5963014 	ldr	r3, [r6, #20]
   11604:	e2877001 	add	r7, r7, #1, 0
   11608:	e7935105 	ldr	r5, [r3, r5, lsl #2]
   1160c:	e1a00005 	mov	r0, r5
   11610:	ebfff08b 	bl	d844 <fat32_fat_entry_type>
   11614:	e370028f 	cmn	r0, #-268435448	; 0xf0000008
   11618:	1afffff8 	bne	11600 <fat32_create+0x148>
   1161c:	e59f3138 	ldr	r3, [pc, #312]	; 1175c <fat32_create+0x2a4>
   11620:	e1a02008 	mov	r2, r8
   11624:	e5d3000c 	ldrb	r0, [r3, #12]
   11628:	e5d3100b 	ldrb	r1, [r3, #11]
   1162c:	e596300c 	ldr	r3, [r6, #12]
   11630:	e1811400 	orr	r1, r1, r0, lsl #8
   11634:	e0030193 	mul	r3, r3, r1
   11638:	e1a00006 	mov	r0, r6
   1163c:	e0030397 	mul	r3, r7, r3
   11640:	e5991020 	ldr	r1, [r9, #32]
   11644:	ebfffc7a 	bl	10834 <write_cluster_chain>
   11648:	e3a0002c 	mov	r0, #44, 0	; 0x2c
   1164c:	eb000488 	bl	12874 <kmalloc>
   11650:	e3a02020 	mov	r2, #32, 0
   11654:	e1a06000 	mov	r6, r0
   11658:	e3a01000 	mov	r1, #0, 0
   1165c:	e28d0008 	add	r0, sp, #8, 0
   11660:	eb000777 	bl	13444 <memset>
   11664:	e5d40015 	ldrb	r0, [r4, #21]
   11668:	e5d4101b 	ldrb	r1, [r4, #27]
   1166c:	e5d42014 	ldrb	r2, [r4, #20]
   11670:	e5d4301a 	ldrb	r3, [r4, #26]
   11674:	e1822400 	orr	r2, r2, r0, lsl #8
   11678:	e1833401 	orr	r3, r3, r1, lsl #8
   1167c:	e1833802 	orr	r3, r3, r2, lsl #16
   11680:	e58d3028 	str	r3, [sp, #40]	; 0x28
   11684:	e5d4300b 	ldrb	r3, [r4, #11]
   11688:	e3a0200b 	mov	r2, #11, 0
   1168c:	e2433010 	sub	r3, r3, #16, 0
   11690:	e16f3f13 	clz	r3, r3
   11694:	e1a032a3 	lsr	r3, r3, #5
   11698:	e58d302c 	str	r3, [sp, #44]	; 0x2c
   1169c:	e5d4101d 	ldrb	r1, [r4, #29]
   116a0:	e5d4301c 	ldrb	r3, [r4, #28]
   116a4:	e5d4001e 	ldrb	r0, [r4, #30]
   116a8:	e1833401 	orr	r3, r3, r1, lsl #8
   116ac:	e5d4101f 	ldrb	r1, [r4, #31]
   116b0:	e1833800 	orr	r3, r3, r0, lsl #16
   116b4:	e1833c01 	orr	r3, r3, r1, lsl #24
   116b8:	e28d0018 	add	r0, sp, #24, 0
   116bc:	e1a01004 	mov	r1, r4
   116c0:	e58d3030 	str	r3, [sp, #48]	; 0x30
   116c4:	eb000727 	bl	13368 <memcpy>
   116c8:	e1a00004 	mov	r0, r4
   116cc:	e28d1008 	add	r1, sp, #8, 0
   116d0:	ebfff0f3 	bl	daa4 <fat32_dirent_name>
   116d4:	e28dc034 	add	ip, sp, #52, 0	; 0x34
   116d8:	e1a0500c 	mov	r5, ip
   116dc:	e1a04006 	mov	r4, r6
   116e0:	e28de008 	add	lr, sp, #8, 0
   116e4:	e8be000f 	ldm	lr!, {r0, r1, r2, r3}
   116e8:	e8ac000f 	stmia	ip!, {r0, r1, r2, r3}
   116ec:	e8be000f 	ldm	lr!, {r0, r1, r2, r3}
   116f0:	e8ac000f 	stmia	ip!, {r0, r1, r2, r3}
   116f4:	e89e0007 	ldm	lr, {r0, r1, r2}
   116f8:	e88c0007 	stm	ip, {r0, r1, r2}
   116fc:	e8b5000f 	ldm	r5!, {r0, r1, r2, r3}
   11700:	e8a4000f 	stmia	r4!, {r0, r1, r2, r3}
   11704:	e8b5000f 	ldm	r5!, {r0, r1, r2, r3}
   11708:	e8a4000f 	stmia	r4!, {r0, r1, r2, r3}
   1170c:	e89c0007 	ldm	ip, {r0, r1, r2}
   11710:	e8840007 	stm	r4, {r0, r1, r2}
   11714:	e1a00006 	mov	r0, r6
   11718:	e28dd064 	add	sp, sp, #100, 0	; 0x64
   1171c:	e8bd8ff0 	pop	{r4, r5, r6, r7, r8, r9, sl, fp, pc}
   11720:	e59f3038 	ldr	r3, [pc, #56]	; 11760 <fat32_create+0x2a8>
   11724:	e59f2038 	ldr	r2, [pc, #56]	; 11764 <fat32_create+0x2ac>
   11728:	e59f1038 	ldr	r1, [pc, #56]	; 11768 <fat32_create+0x2b0>
   1172c:	e59f0038 	ldr	r0, [pc, #56]	; 1176c <fat32_create+0x2b4>
   11730:	eb00077e 	bl	13530 <printk>
   11734:	eb0008c2 	bl	13a44 <clean_reboot>
   11738:	e59f2030 	ldr	r2, [pc, #48]	; 11770 <fat32_create+0x2b8>
   1173c:	e59f3030 	ldr	r3, [pc, #48]	; 11774 <fat32_create+0x2bc>
   11740:	e59f1020 	ldr	r1, [pc, #32]	; 11768 <fat32_create+0x2b0>
   11744:	e58d2000 	str	r2, [sp]
   11748:	e59f0028 	ldr	r0, [pc, #40]	; 11778 <fat32_create+0x2c0>
   1174c:	e59f2010 	ldr	r2, [pc, #16]	; 11764 <fat32_create+0x2ac>
   11750:	eb000776 	bl	13530 <printk>
   11754:	eb0008ba 	bl	13a44 <clean_reboot>
   11758:	00017ab8 	.word	0x00017ab8
   1175c:	00017ac8 	.word	0x00017ac8
   11760:	000001f2 	.word	0x000001f2
   11764:	00015fe0 	.word	0x00015fe0
   11768:	00015c90 	.word	0x00015c90
   1176c:	00015f20 	.word	0x00015f20
   11770:	00014550 	.word	0x00014550
   11774:	000001da 	.word	0x000001da
   11778:	00015d80 	.word	0x00015d80

0001177c <fat32_delete>:
   1177c:	e92d47f0 	push	{r4, r5, r6, r7, r8, r9, sl, lr}
   11780:	e59f31e0 	ldr	r3, [pc, #480]	; 11968 <fat32_delete+0x1ec>
   11784:	e24dd018 	sub	sp, sp, #24, 0
   11788:	e5933000 	ldr	r3, [r3]
   1178c:	e3530000 	cmp	r3, #0, 0
   11790:	0a00006c 	beq	11948 <fat32_delete+0x1cc>
   11794:	e1a05000 	mov	r5, r0
   11798:	e1a00002 	mov	r0, r2
   1179c:	e1a06001 	mov	r6, r1
   117a0:	e1a08002 	mov	r8, r2
   117a4:	ebfff10c 	bl	dbdc <fat32_is_valid_name>
   117a8:	e3500000 	cmp	r0, #0, 0
   117ac:	1a000001 	bne	117b8 <fat32_delete+0x3c>
   117b0:	e28dd018 	add	sp, sp, #24, 0
   117b4:	e8bd87f0 	pop	{r4, r5, r6, r7, r8, r9, sl, pc}
   117b8:	e596a020 	ldr	sl, [r6, #32]
   117bc:	e3a07000 	mov	r7, #0, 0
   117c0:	e1a0400a 	mov	r4, sl
   117c4:	ea000002 	b	117d4 <fat32_delete+0x58>
   117c8:	e5953014 	ldr	r3, [r5, #20]
   117cc:	e2877001 	add	r7, r7, #1, 0
   117d0:	e7934104 	ldr	r4, [r3, r4, lsl #2]
   117d4:	e1a00004 	mov	r0, r4
   117d8:	ebfff019 	bl	d844 <fat32_fat_entry_type>
   117dc:	e370028f 	cmn	r0, #-268435448	; 0xf0000008
   117e0:	1afffff8 	bne	117c8 <fat32_delete+0x4c>
   117e4:	e595000c 	ldr	r0, [r5, #12]
   117e8:	e0000790 	mul	r0, r0, r7
   117ec:	e1a00480 	lsl	r0, r0, #9
   117f0:	e1a092a0 	lsr	r9, r0, #5
   117f4:	eb00041e 	bl	12874 <kmalloc>
   117f8:	e1a0100a 	mov	r1, sl
   117fc:	e1a02000 	mov	r2, r0
   11800:	e1a07000 	mov	r7, r0
   11804:	e1a00005 	mov	r0, r5
   11808:	ebfffbe1 	bl	10794 <read_cluster_chain>
   1180c:	e3590000 	cmp	r9, #0, 0
   11810:	0a000047 	beq	11934 <fat32_delete+0x1b8>
   11814:	e1a0a007 	mov	sl, r7
   11818:	e3a04000 	mov	r4, #0, 0
   1181c:	ea000003 	b	11830 <fat32_delete+0xb4>
   11820:	e2844001 	add	r4, r4, #1, 0
   11824:	e1590004 	cmp	r9, r4
   11828:	e28aa020 	add	sl, sl, #32, 0
   1182c:	0a000040 	beq	11934 <fat32_delete+0x1b8>
   11830:	e1a0000a 	mov	r0, sl
   11834:	e28d1008 	add	r1, sp, #8, 0
   11838:	ebfff099 	bl	daa4 <fat32_dirent_name>
   1183c:	e1a01008 	mov	r1, r8
   11840:	e28d0008 	add	r0, sp, #8, 0
   11844:	eb000859 	bl	139b0 <strcmp>
   11848:	e3500000 	cmp	r0, #0, 0
   1184c:	1afffff3 	bne	11820 <fat32_delete+0xa4>
   11850:	e3e0101a 	mvn	r1, #26, 0
   11854:	e5da2015 	ldrb	r2, [sl, #21]
   11858:	e5da3014 	ldrb	r3, [sl, #20]
   1185c:	e5da401a 	ldrb	r4, [sl, #26]
   11860:	e1833402 	orr	r3, r3, r2, lsl #8
   11864:	e5da201b 	ldrb	r2, [sl, #27]
   11868:	e5ca1000 	strb	r1, [sl]
   1186c:	e1844402 	orr	r4, r4, r2, lsl #8
   11870:	e1844803 	orr	r4, r4, r3, lsl #16
   11874:	e3540001 	cmp	r4, #1, 0
   11878:	81a08000 	movhi	r8, r0
   1187c:	8a000004 	bhi	11894 <fat32_delete+0x118>
   11880:	ea00002e 	b	11940 <fat32_delete+0x1c4>
   11884:	e5953014 	ldr	r3, [r5, #20]
   11888:	e1a02104 	lsl	r2, r4, #2
   1188c:	e7934104 	ldr	r4, [r3, r4, lsl #2]
   11890:	e7838002 	str	r8, [r3, r2]
   11894:	e1a00004 	mov	r0, r4
   11898:	ebffefe9 	bl	d844 <fat32_fat_entry_type>
   1189c:	e370028f 	cmn	r0, #-268435448	; 0xf0000008
   118a0:	1afffff7 	bne	11884 <fat32_delete+0x108>
   118a4:	e3a03000 	mov	r3, #0, 0
   118a8:	e5951014 	ldr	r1, [r5, #20]
   118ac:	e59f80b8 	ldr	r8, [pc, #184]	; 1196c <fat32_delete+0x1f0>
   118b0:	e7813104 	str	r3, [r1, r4, lsl #2]
   118b4:	e5d82025 	ldrb	r2, [r8, #37]	; 0x25
   118b8:	e5d83024 	ldrb	r3, [r8, #36]	; 0x24
   118bc:	e5d80026 	ldrb	r0, [r8, #38]	; 0x26
   118c0:	e1833402 	orr	r3, r3, r2, lsl #8
   118c4:	e5d82027 	ldrb	r2, [r8, #39]	; 0x27
   118c8:	e1833800 	orr	r3, r3, r0, lsl #16
   118cc:	e1832c02 	orr	r2, r3, r2, lsl #24
   118d0:	e5950004 	ldr	r0, [r5, #4]
   118d4:	ebffec07 	bl	c8f8 <pi_sec_write>
   118d8:	e3a09000 	mov	r9, #0, 0
   118dc:	e5964020 	ldr	r4, [r6, #32]
   118e0:	ea000002 	b	118f0 <fat32_delete+0x174>
   118e4:	e5952014 	ldr	r2, [r5, #20]
   118e8:	e2899001 	add	r9, r9, #1, 0
   118ec:	e7924104 	ldr	r4, [r2, r4, lsl #2]
   118f0:	e1a00004 	mov	r0, r4
   118f4:	ebffefd2 	bl	d844 <fat32_fat_entry_type>
   118f8:	e370028f 	cmn	r0, #-268435448	; 0xf0000008
   118fc:	1afffff8 	bne	118e4 <fat32_delete+0x168>
   11900:	e5d8100c 	ldrb	r1, [r8, #12]
   11904:	e5d8200b 	ldrb	r2, [r8, #11]
   11908:	e595300c 	ldr	r3, [r5, #12]
   1190c:	e1822401 	orr	r2, r2, r1, lsl #8
   11910:	e0030293 	mul	r3, r3, r2
   11914:	e1a00005 	mov	r0, r5
   11918:	e1a02007 	mov	r2, r7
   1191c:	e0030399 	mul	r3, r9, r3
   11920:	e5961020 	ldr	r1, [r6, #32]
   11924:	ebfffbc2 	bl	10834 <write_cluster_chain>
   11928:	e3a00001 	mov	r0, #1, 0
   1192c:	e28dd018 	add	sp, sp, #24, 0
   11930:	e8bd87f0 	pop	{r4, r5, r6, r7, r8, r9, sl, pc}
   11934:	e3a00000 	mov	r0, #0, 0
   11938:	e28dd018 	add	sp, sp, #24, 0
   1193c:	e8bd87f0 	pop	{r4, r5, r6, r7, r8, r9, sl, pc}
   11940:	e59f8024 	ldr	r8, [pc, #36]	; 1196c <fat32_delete+0x1f0>
   11944:	eaffffe3 	b	118d8 <fat32_delete+0x15c>
   11948:	e59f2020 	ldr	r2, [pc, #32]	; 11970 <fat32_delete+0x1f4>
   1194c:	e3a03f82 	mov	r3, #520	; 0x208
   11950:	e59f101c 	ldr	r1, [pc, #28]	; 11974 <fat32_delete+0x1f8>
   11954:	e58d2000 	str	r2, [sp]
   11958:	e59f0018 	ldr	r0, [pc, #24]	; 11978 <fat32_delete+0x1fc>
   1195c:	e59f2018 	ldr	r2, [pc, #24]	; 1197c <fat32_delete+0x200>
   11960:	eb0006f2 	bl	13530 <printk>
   11964:	eb000836 	bl	13a44 <clean_reboot>
   11968:	00017ab8 	.word	0x00017ab8
   1196c:	00017ac8 	.word	0x00017ac8
   11970:	00014550 	.word	0x00014550
   11974:	00015c90 	.word	0x00015c90
   11978:	00015d80 	.word	0x00015d80
   1197c:	00015ff0 	.word	0x00015ff0

00011980 <fat32_truncate>:
   11980:	e92d4ff0 	push	{r4, r5, r6, r7, r8, r9, sl, fp, lr}
   11984:	e59fc3ec 	ldr	ip, [pc, #1004]	; 11d78 <fat32_truncate+0x3f8>
   11988:	e1a04000 	mov	r4, r0
   1198c:	e59c0000 	ldr	r0, [ip]
   11990:	e24dd02c 	sub	sp, sp, #44, 0	; 0x2c
   11994:	e3500000 	cmp	r0, #0, 0
   11998:	e58d1008 	str	r1, [sp, #8]
   1199c:	0a0000ed 	beq	11d58 <fat32_truncate+0x3d8>
   119a0:	e5916020 	ldr	r6, [r1, #32]
   119a4:	e1a07002 	mov	r7, r2
   119a8:	e1a08003 	mov	r8, r3
   119ac:	e3a09000 	mov	r9, #0, 0
   119b0:	e1a05006 	mov	r5, r6
   119b4:	ea000002 	b	119c4 <fat32_truncate+0x44>
   119b8:	e5943014 	ldr	r3, [r4, #20]
   119bc:	e2899001 	add	r9, r9, #1, 0
   119c0:	e7935105 	ldr	r5, [r3, r5, lsl #2]
   119c4:	e1a00005 	mov	r0, r5
   119c8:	ebffef9d 	bl	d844 <fat32_fat_entry_type>
   119cc:	e370028f 	cmn	r0, #-268435448	; 0xf0000008
   119d0:	1afffff8 	bne	119b8 <fat32_truncate+0x38>
   119d4:	e594000c 	ldr	r0, [r4, #12]
   119d8:	e0090990 	mul	r9, r0, r9
   119dc:	e1a00489 	lsl	r0, r9, #9
   119e0:	e1a092a0 	lsr	r9, r0, #5
   119e4:	eb0003a2 	bl	12874 <kmalloc>
   119e8:	e1a01006 	mov	r1, r6
   119ec:	e1a02000 	mov	r2, r0
   119f0:	e1a0a000 	mov	sl, r0
   119f4:	e1a00004 	mov	r0, r4
   119f8:	ebfffb65 	bl	10794 <read_cluster_chain>
   119fc:	e3590000 	cmp	r9, #0, 0
   11a00:	0a000075 	beq	11bdc <fat32_truncate+0x25c>
   11a04:	e1a0500a 	mov	r5, sl
   11a08:	e3a06000 	mov	r6, #0, 0
   11a0c:	ea000003 	b	11a20 <fat32_truncate+0xa0>
   11a10:	e2866001 	add	r6, r6, #1, 0
   11a14:	e1590006 	cmp	r9, r6
   11a18:	e2855020 	add	r5, r5, #32, 0
   11a1c:	0a00006e 	beq	11bdc <fat32_truncate+0x25c>
   11a20:	e1a00005 	mov	r0, r5
   11a24:	e28d1018 	add	r1, sp, #24, 0
   11a28:	ebfff01d 	bl	daa4 <fat32_dirent_name>
   11a2c:	e1a01007 	mov	r1, r7
   11a30:	e28d0018 	add	r0, sp, #24, 0
   11a34:	eb0007dd 	bl	139b0 <strcmp>
   11a38:	e3500000 	cmp	r0, #0, 0
   11a3c:	1afffff3 	bne	11a10 <fat32_truncate+0x90>
   11a40:	e5d53014 	ldrb	r3, [r5, #20]
   11a44:	e5d51015 	ldrb	r1, [r5, #21]
   11a48:	e5d5901a 	ldrb	r9, [r5, #26]
   11a4c:	e5d5201b 	ldrb	r2, [r5, #27]
   11a50:	e1833401 	orr	r3, r3, r1, lsl #8
   11a54:	e1899402 	orr	r9, r9, r2, lsl #8
   11a58:	e3580000 	cmp	r8, #0, 0
   11a5c:	e1899803 	orr	r9, r9, r3, lsl #16
   11a60:	0a000060 	beq	11be8 <fat32_truncate+0x268>
   11a64:	e59f2310 	ldr	r2, [pc, #784]	; 11d7c <fat32_truncate+0x3fc>
   11a68:	e594100c 	ldr	r1, [r4, #12]
   11a6c:	e58d200c 	str	r2, [sp, #12]
   11a70:	e5d2300b 	ldrb	r3, [r2, #11]
   11a74:	e5d2200c 	ldrb	r2, [r2, #12]
   11a78:	e2480001 	sub	r0, r8, #1, 0
   11a7c:	e1833402 	orr	r3, r3, r2, lsl #8
   11a80:	e0010391 	mul	r1, r1, r3
   11a84:	e0800001 	add	r0, r0, r1
   11a88:	eb0008f6 	bl	13e68 <__udivsi3>
   11a8c:	e3590001 	cmp	r9, #1, 0
   11a90:	e58d0010 	str	r0, [sp, #16]
   11a94:	9a000088 	bls	11cbc <fat32_truncate+0x33c>
   11a98:	e5941014 	ldr	r1, [r4, #20]
   11a9c:	e3500001 	cmp	r0, #1, 0
   11aa0:	e791b109 	ldr	fp, [r1, r9, lsl #2]
   11aa4:	e0812109 	add	r2, r1, r9, lsl #2
   11aa8:	e1a06109 	lsl	r6, r9, #2
   11aac:	9a00002c 	bls	11b64 <fat32_truncate+0x1e4>
   11ab0:	e58d5014 	str	r5, [sp, #20]
   11ab4:	e3a07001 	mov	r7, #1, 0
   11ab8:	e1a05004 	mov	r5, r4
   11abc:	e1a0000b 	mov	r0, fp
   11ac0:	e59d4010 	ldr	r4, [sp, #16]
   11ac4:	ea000007 	b	11ae8 <fat32_truncate+0x168>
   11ac8:	e5951014 	ldr	r1, [r5, #20]
   11acc:	e2877001 	add	r7, r7, #1, 0
   11ad0:	e0816006 	add	r6, r1, r6
   11ad4:	e1540007 	cmp	r4, r7
   11ad8:	e5969000 	ldr	r9, [r6]
   11adc:	0a00001c 	beq	11b54 <fat32_truncate+0x1d4>
   11ae0:	e7910109 	ldr	r0, [r1, r9, lsl #2]
   11ae4:	e1a06109 	lsl	r6, r9, #2
   11ae8:	ebffef55 	bl	d844 <fat32_fat_entry_type>
   11aec:	e370028f 	cmn	r0, #-268435448	; 0xf0000008
   11af0:	1afffff4 	bne	11ac8 <fat32_truncate+0x148>
   11af4:	e5952018 	ldr	r2, [r5, #24]
   11af8:	e3520003 	cmp	r2, #3, 0
   11afc:	9a00008f 	bls	11d40 <fat32_truncate+0x3c0>
   11b00:	e3a09003 	mov	r9, #3, 0
   11b04:	ea000003 	b	11b18 <fat32_truncate+0x198>
   11b08:	e5953018 	ldr	r3, [r5, #24]
   11b0c:	e2899001 	add	r9, r9, #1, 0
   11b10:	e1590003 	cmp	r9, r3
   11b14:	2a000089 	bcs	11d40 <fat32_truncate+0x3c0>
   11b18:	e5953014 	ldr	r3, [r5, #20]
   11b1c:	e1a0b109 	lsl	fp, r9, #2
   11b20:	e7930109 	ldr	r0, [r3, r9, lsl #2]
   11b24:	ebffef46 	bl	d844 <fat32_fat_entry_type>
   11b28:	e3500000 	cmp	r0, #0, 0
   11b2c:	1afffff5 	bne	11b08 <fat32_truncate+0x188>
   11b30:	e3e0327f 	mvn	r3, #-268435449	; 0xf0000007
   11b34:	e5951014 	ldr	r1, [r5, #20]
   11b38:	e2877001 	add	r7, r7, #1, 0
   11b3c:	e7819006 	str	r9, [r1, r6]
   11b40:	e1540007 	cmp	r4, r7
   11b44:	e0816006 	add	r6, r1, r6
   11b48:	e781300b 	str	r3, [r1, fp]
   11b4c:	e5969000 	ldr	r9, [r6]
   11b50:	1affffe2 	bne	11ae0 <fat32_truncate+0x160>
   11b54:	e1a04005 	mov	r4, r5
   11b58:	e791b109 	ldr	fp, [r1, r9, lsl #2]
   11b5c:	e59d5014 	ldr	r5, [sp, #20]
   11b60:	e0812109 	add	r2, r1, r9, lsl #2
   11b64:	e3e0027f 	mvn	r0, #-268435449	; 0xf0000007
   11b68:	e35b0001 	cmp	fp, #1, 0
   11b6c:	e5820000 	str	r0, [r2]
   11b70:	9a00000e 	bls	11bb0 <fat32_truncate+0x230>
   11b74:	e3a06000 	mov	r6, #0, 0
   11b78:	e1a0000b 	mov	r0, fp
   11b7c:	ebffef30 	bl	d844 <fat32_fat_entry_type>
   11b80:	e3500000 	cmp	r0, #0, 0
   11b84:	0a00004a 	beq	11cb4 <fat32_truncate+0x334>
   11b88:	e1a0000b 	mov	r0, fp
   11b8c:	ebffef2c 	bl	d844 <fat32_fat_entry_type>
   11b90:	e370028f 	cmn	r0, #-268435448	; 0xf0000008
   11b94:	0a000042 	beq	11ca4 <fat32_truncate+0x324>
   11b98:	e5941014 	ldr	r1, [r4, #20]
   11b9c:	e1a0310b 	lsl	r3, fp, #2
   11ba0:	e791b10b 	ldr	fp, [r1, fp, lsl #2]
   11ba4:	e7816003 	str	r6, [r1, r3]
   11ba8:	e35b0001 	cmp	fp, #1, 0
   11bac:	8afffff1 	bhi	11b78 <fat32_truncate+0x1f8>
   11bb0:	e59dc00c 	ldr	ip, [sp, #12]
   11bb4:	e5dc2025 	ldrb	r2, [ip, #37]	; 0x25
   11bb8:	e5dc3024 	ldrb	r3, [ip, #36]	; 0x24
   11bbc:	e5dc0026 	ldrb	r0, [ip, #38]	; 0x26
   11bc0:	e1833402 	orr	r3, r3, r2, lsl #8
   11bc4:	e5dc2027 	ldrb	r2, [ip, #39]	; 0x27
   11bc8:	e1833800 	orr	r3, r3, r0, lsl #16
   11bcc:	e1832c02 	orr	r2, r3, r2, lsl #24
   11bd0:	e5940004 	ldr	r0, [r4, #4]
   11bd4:	ebffeb47 	bl	c8f8 <pi_sec_write>
   11bd8:	ea000010 	b	11c20 <fat32_truncate+0x2a0>
   11bdc:	e3a00000 	mov	r0, #0, 0
   11be0:	e28dd02c 	add	sp, sp, #44, 0	; 0x2c
   11be4:	e8bd8ff0 	pop	{r4, r5, r6, r7, r8, r9, sl, fp, pc}
   11be8:	e3590001 	cmp	r9, #1, 0
   11bec:	9a000004 	bls	11c04 <fat32_truncate+0x284>
   11bf0:	e1a01009 	mov	r1, r9
   11bf4:	e1a03008 	mov	r3, r8
   11bf8:	e1a02008 	mov	r2, r8
   11bfc:	e1a00004 	mov	r0, r4
   11c00:	ebfffb0b 	bl	10834 <write_cluster_chain>
   11c04:	e3a03000 	mov	r3, #0, 0
   11c08:	e5c53014 	strb	r3, [r5, #20]
   11c0c:	e5c53015 	strb	r3, [r5, #21]
   11c10:	e5c5301a 	strb	r3, [r5, #26]
   11c14:	e5c5301b 	strb	r3, [r5, #27]
   11c18:	e59f315c 	ldr	r3, [pc, #348]	; 11d7c <fat32_truncate+0x3fc>
   11c1c:	e58d300c 	str	r3, [sp, #12]
   11c20:	e1a03828 	lsr	r3, r8, #16
   11c24:	e5c5301e 	strb	r3, [r5, #30]
   11c28:	e59d3008 	ldr	r3, [sp, #8]
   11c2c:	e1a02428 	lsr	r2, r8, #8
   11c30:	e5c5801c 	strb	r8, [r5, #28]
   11c34:	e1a08c28 	lsr	r8, r8, #24
   11c38:	e5c5201d 	strb	r2, [r5, #29]
   11c3c:	e5c5801f 	strb	r8, [r5, #31]
   11c40:	e3a06000 	mov	r6, #0, 0
   11c44:	e5935020 	ldr	r5, [r3, #32]
   11c48:	ea000002 	b	11c58 <fat32_truncate+0x2d8>
   11c4c:	e5943014 	ldr	r3, [r4, #20]
   11c50:	e2866001 	add	r6, r6, #1, 0
   11c54:	e7935105 	ldr	r5, [r3, r5, lsl #2]
   11c58:	e1a00005 	mov	r0, r5
   11c5c:	ebffeef8 	bl	d844 <fat32_fat_entry_type>
   11c60:	e370028f 	cmn	r0, #-268435448	; 0xf0000008
   11c64:	1afffff8 	bne	11c4c <fat32_truncate+0x2cc>
   11c68:	e59d300c 	ldr	r3, [sp, #12]
   11c6c:	e1a00004 	mov	r0, r4
   11c70:	e5d3100c 	ldrb	r1, [r3, #12]
   11c74:	e5d3200b 	ldrb	r2, [r3, #11]
   11c78:	e594300c 	ldr	r3, [r4, #12]
   11c7c:	e1822401 	orr	r2, r2, r1, lsl #8
   11c80:	e0030293 	mul	r3, r3, r2
   11c84:	e59d1008 	ldr	r1, [sp, #8]
   11c88:	e1a0200a 	mov	r2, sl
   11c8c:	e0030396 	mul	r3, r6, r3
   11c90:	e5911020 	ldr	r1, [r1, #32]
   11c94:	ebfffae6 	bl	10834 <write_cluster_chain>
   11c98:	e3a00001 	mov	r0, #1, 0
   11c9c:	e28dd02c 	add	sp, sp, #44, 0	; 0x2c
   11ca0:	e8bd8ff0 	pop	{r4, r5, r6, r7, r8, r9, sl, fp, pc}
   11ca4:	e3a02000 	mov	r2, #0, 0
   11ca8:	e5941014 	ldr	r1, [r4, #20]
   11cac:	e781210b 	str	r2, [r1, fp, lsl #2]
   11cb0:	eaffffbe 	b	11bb0 <fat32_truncate+0x230>
   11cb4:	e5941014 	ldr	r1, [r4, #20]
   11cb8:	eaffffbc 	b	11bb0 <fat32_truncate+0x230>
   11cbc:	e5943018 	ldr	r3, [r4, #24]
   11cc0:	e3530003 	cmp	r3, #3, 0
   11cc4:	83a09003 	movhi	r9, #3, 0
   11cc8:	8a000004 	bhi	11ce0 <fat32_truncate+0x360>
   11ccc:	ea00001b 	b	11d40 <fat32_truncate+0x3c0>
   11cd0:	e5943018 	ldr	r3, [r4, #24]
   11cd4:	e2899001 	add	r9, r9, #1, 0
   11cd8:	e1590003 	cmp	r9, r3
   11cdc:	2a000017 	bcs	11d40 <fat32_truncate+0x3c0>
   11ce0:	e5943014 	ldr	r3, [r4, #20]
   11ce4:	e1a06109 	lsl	r6, r9, #2
   11ce8:	e7930109 	ldr	r0, [r3, r9, lsl #2]
   11cec:	ebffeed4 	bl	d844 <fat32_fat_entry_type>
   11cf0:	e3500000 	cmp	r0, #0, 0
   11cf4:	1afffff5 	bne	11cd0 <fat32_truncate+0x350>
   11cf8:	e3e0327f 	mvn	r3, #-268435449	; 0xf0000007
   11cfc:	e59dc010 	ldr	ip, [sp, #16]
   11d00:	e5940014 	ldr	r0, [r4, #20]
   11d04:	e1a01829 	lsr	r1, r9, #16
   11d08:	e6ff2079 	uxth	r2, r9
   11d0c:	e35c0001 	cmp	ip, #1, 0
   11d10:	e1a02422 	lsr	r2, r2, #8
   11d14:	e1a0c421 	lsr	ip, r1, #8
   11d18:	e7803006 	str	r3, [r0, r6]
   11d1c:	e5c5901a 	strb	r9, [r5, #26]
   11d20:	e5c5201b 	strb	r2, [r5, #27]
   11d24:	e5c51014 	strb	r1, [r5, #20]
   11d28:	e5c5c015 	strb	ip, [r5, #21]
   11d2c:	81a0b003 	movhi	fp, r3
   11d30:	8affff5e 	bhi	11ab0 <fat32_truncate+0x130>
   11d34:	e1a0b003 	mov	fp, r3
   11d38:	e7803006 	str	r3, [r0, r6]
   11d3c:	eaffff8c 	b	11b74 <fat32_truncate+0x1f4>
   11d40:	e59f3038 	ldr	r3, [pc, #56]	; 11d80 <fat32_truncate+0x400>
   11d44:	e59f2038 	ldr	r2, [pc, #56]	; 11d84 <fat32_truncate+0x404>
   11d48:	e59f1038 	ldr	r1, [pc, #56]	; 11d88 <fat32_truncate+0x408>
   11d4c:	e59f0038 	ldr	r0, [pc, #56]	; 11d8c <fat32_truncate+0x40c>
   11d50:	eb0005f6 	bl	13530 <printk>
   11d54:	eb00073a 	bl	13a44 <clean_reboot>
   11d58:	e59f2030 	ldr	r2, [pc, #48]	; 11d90 <fat32_truncate+0x410>
   11d5c:	e59f3030 	ldr	r3, [pc, #48]	; 11d94 <fat32_truncate+0x414>
   11d60:	e59f1020 	ldr	r1, [pc, #32]	; 11d88 <fat32_truncate+0x408>
   11d64:	e58d2000 	str	r2, [sp]
   11d68:	e59f0028 	ldr	r0, [pc, #40]	; 11d98 <fat32_truncate+0x418>
   11d6c:	e59f2028 	ldr	r2, [pc, #40]	; 11d9c <fat32_truncate+0x41c>
   11d70:	eb0005ee 	bl	13530 <printk>
   11d74:	eb000732 	bl	13a44 <clean_reboot>
   11d78:	00017ab8 	.word	0x00017ab8
   11d7c:	00017ac8 	.word	0x00017ac8
   11d80:	00000143 	.word	0x00000143
   11d84:	00015f78 	.word	0x00015f78
   11d88:	00015c90 	.word	0x00015c90
   11d8c:	00015cd4 	.word	0x00015cd4
   11d90:	00014550 	.word	0x00014550
   11d94:	00000229 	.word	0x00000229
   11d98:	00015d80 	.word	0x00015d80
   11d9c:	00016000 	.word	0x00016000

00011da0 <fat32_write>:
   11da0:	e92d4ff0 	push	{r4, r5, r6, r7, r8, r9, sl, fp, lr}
   11da4:	e59fc2a4 	ldr	ip, [pc, #676]	; 12050 <fat32_write+0x2b0>
   11da8:	e1a06000 	mov	r6, r0
   11dac:	e59c0000 	ldr	r0, [ip]
   11db0:	e24dd024 	sub	sp, sp, #36, 0	; 0x24
   11db4:	e3500000 	cmp	r0, #0, 0
   11db8:	e58d300c 	str	r3, [sp, #12]
   11dbc:	0a00009b 	beq	12030 <fat32_write+0x290>
   11dc0:	e5913024 	ldr	r3, [r1, #36]	; 0x24
   11dc4:	e1a09001 	mov	r9, r1
   11dc8:	e3530000 	cmp	r3, #0, 0
   11dcc:	0a00008f 	beq	12010 <fat32_write+0x270>
   11dd0:	e5915020 	ldr	r5, [r1, #32]
   11dd4:	e1a08002 	mov	r8, r2
   11dd8:	e3a07000 	mov	r7, #0, 0
   11ddc:	e1a04005 	mov	r4, r5
   11de0:	ea000002 	b	11df0 <fat32_write+0x50>
   11de4:	e5963014 	ldr	r3, [r6, #20]
   11de8:	e2877001 	add	r7, r7, #1, 0
   11dec:	e7934104 	ldr	r4, [r3, r4, lsl #2]
   11df0:	e1a00004 	mov	r0, r4
   11df4:	ebffee92 	bl	d844 <fat32_fat_entry_type>
   11df8:	e370028f 	cmn	r0, #-268435448	; 0xf0000008
   11dfc:	1afffff8 	bne	11de4 <fat32_write+0x44>
   11e00:	e596000c 	ldr	r0, [r6, #12]
   11e04:	e0070790 	mul	r7, r0, r7
   11e08:	e1a00487 	lsl	r0, r7, #9
   11e0c:	e1a072a0 	lsr	r7, r0, #5
   11e10:	eb000297 	bl	12874 <kmalloc>
   11e14:	e1a01005 	mov	r1, r5
   11e18:	e1a02000 	mov	r2, r0
   11e1c:	e1a0b000 	mov	fp, r0
   11e20:	e1a00006 	mov	r0, r6
   11e24:	ebfffa5a 	bl	10794 <read_cluster_chain>
   11e28:	e3570000 	cmp	r7, #0, 0
   11e2c:	0a00003f 	beq	11f30 <fat32_write+0x190>
   11e30:	e1a0400b 	mov	r4, fp
   11e34:	e3a0a000 	mov	sl, #0, 0
   11e38:	ea000003 	b	11e4c <fat32_write+0xac>
   11e3c:	e28aa001 	add	sl, sl, #1, 0
   11e40:	e157000a 	cmp	r7, sl
   11e44:	e2844020 	add	r4, r4, #32, 0
   11e48:	0a000038 	beq	11f30 <fat32_write+0x190>
   11e4c:	e1a00004 	mov	r0, r4
   11e50:	e28d1010 	add	r1, sp, #16, 0
   11e54:	ebffef12 	bl	daa4 <fat32_dirent_name>
   11e58:	e1a01008 	mov	r1, r8
   11e5c:	e28d0010 	add	r0, sp, #16, 0
   11e60:	eb0006d2 	bl	139b0 <strcmp>
   11e64:	e2505000 	subs	r5, r0, #0, 0
   11e68:	1afffff3 	bne	11e3c <fat32_write+0x9c>
   11e6c:	e5d43015 	ldrb	r3, [r4, #21]
   11e70:	e5d41014 	ldrb	r1, [r4, #20]
   11e74:	e5d4201b 	ldrb	r2, [r4, #27]
   11e78:	e1811403 	orr	r1, r1, r3, lsl #8
   11e7c:	e59d300c 	ldr	r3, [sp, #12]
   11e80:	e5d4701a 	ldrb	r7, [r4, #26]
   11e84:	e5933008 	ldr	r3, [r3, #8]
   11e88:	e1877402 	orr	r7, r7, r2, lsl #8
   11e8c:	e1a02423 	lsr	r2, r3, #8
   11e90:	e1877801 	orr	r7, r7, r1, lsl #16
   11e94:	e5c4201d 	strb	r2, [r4, #29]
   11e98:	e1a01823 	lsr	r1, r3, #16
   11e9c:	e1a02c23 	lsr	r2, r3, #24
   11ea0:	e3530000 	cmp	r3, #0, 0
   11ea4:	e5c4301c 	strb	r3, [r4, #28]
   11ea8:	e5c4101e 	strb	r1, [r4, #30]
   11eac:	e5c4201f 	strb	r2, [r4, #31]
   11eb0:	0a000021 	beq	11f3c <fat32_write+0x19c>
   11eb4:	e3570001 	cmp	r7, #1, 0
   11eb8:	9a000031 	bls	11f84 <fat32_write+0x1e4>
   11ebc:	e59d200c 	ldr	r2, [sp, #12]
   11ec0:	e1a01007 	mov	r1, r7
   11ec4:	e1a00006 	mov	r0, r6
   11ec8:	e5922000 	ldr	r2, [r2]
   11ecc:	ebfffa58 	bl	10834 <write_cluster_chain>
   11ed0:	e3a05000 	mov	r5, #0, 0
   11ed4:	e5994020 	ldr	r4, [r9, #32]
   11ed8:	ea000002 	b	11ee8 <fat32_write+0x148>
   11edc:	e5963014 	ldr	r3, [r6, #20]
   11ee0:	e2855001 	add	r5, r5, #1, 0
   11ee4:	e7934104 	ldr	r4, [r3, r4, lsl #2]
   11ee8:	e1a00004 	mov	r0, r4
   11eec:	ebffee54 	bl	d844 <fat32_fat_entry_type>
   11ef0:	e370028f 	cmn	r0, #-268435448	; 0xf0000008
   11ef4:	1afffff8 	bne	11edc <fat32_write+0x13c>
   11ef8:	e59f3154 	ldr	r3, [pc, #340]	; 12054 <fat32_write+0x2b4>
   11efc:	e1a0200b 	mov	r2, fp
   11f00:	e5d3000c 	ldrb	r0, [r3, #12]
   11f04:	e5d3100b 	ldrb	r1, [r3, #11]
   11f08:	e596300c 	ldr	r3, [r6, #12]
   11f0c:	e1811400 	orr	r1, r1, r0, lsl #8
   11f10:	e0030193 	mul	r3, r3, r1
   11f14:	e1a00006 	mov	r0, r6
   11f18:	e0030395 	mul	r3, r5, r3
   11f1c:	e5991020 	ldr	r1, [r9, #32]
   11f20:	ebfffa43 	bl	10834 <write_cluster_chain>
   11f24:	e3a00001 	mov	r0, #1, 0
   11f28:	e28dd024 	add	sp, sp, #36, 0	; 0x24
   11f2c:	e8bd8ff0 	pop	{r4, r5, r6, r7, r8, r9, sl, fp, pc}
   11f30:	e3a00000 	mov	r0, #0, 0
   11f34:	e28dd024 	add	sp, sp, #36, 0	; 0x24
   11f38:	e8bd8ff0 	pop	{r4, r5, r6, r7, r8, r9, sl, fp, pc}
   11f3c:	e3570001 	cmp	r7, #1, 0
   11f40:	8a000004 	bhi	11f58 <fat32_write+0x1b8>
   11f44:	e5c43014 	strb	r3, [r4, #20]
   11f48:	e5c43015 	strb	r3, [r4, #21]
   11f4c:	e5c4301a 	strb	r3, [r4, #26]
   11f50:	e5c4301b 	strb	r3, [r4, #27]
   11f54:	eaffffd8 	b	11ebc <fat32_write+0x11c>
   11f58:	e1a02003 	mov	r2, r3
   11f5c:	e1a01007 	mov	r1, r7
   11f60:	e1a00006 	mov	r0, r6
   11f64:	ebfffa32 	bl	10834 <write_cluster_chain>
   11f68:	e59d300c 	ldr	r3, [sp, #12]
   11f6c:	e5933008 	ldr	r3, [r3, #8]
   11f70:	e5c45014 	strb	r5, [r4, #20]
   11f74:	e5c45015 	strb	r5, [r4, #21]
   11f78:	e5c4501a 	strb	r5, [r4, #26]
   11f7c:	e5c4501b 	strb	r5, [r4, #27]
   11f80:	eaffffcd 	b	11ebc <fat32_write+0x11c>
   11f84:	e5963018 	ldr	r3, [r6, #24]
   11f88:	e3530003 	cmp	r3, #3, 0
   11f8c:	83a07003 	movhi	r7, #3, 0
   11f90:	8a000004 	bhi	11fa8 <fat32_write+0x208>
   11f94:	ea000017 	b	11ff8 <fat32_write+0x258>
   11f98:	e5963018 	ldr	r3, [r6, #24]
   11f9c:	e2877001 	add	r7, r7, #1, 0
   11fa0:	e1570003 	cmp	r7, r3
   11fa4:	2a000013 	bcs	11ff8 <fat32_write+0x258>
   11fa8:	e5963014 	ldr	r3, [r6, #20]
   11fac:	e1a05107 	lsl	r5, r7, #2
   11fb0:	e7930107 	ldr	r0, [r3, r7, lsl #2]
   11fb4:	ebffee22 	bl	d844 <fat32_fat_entry_type>
   11fb8:	e3500000 	cmp	r0, #0, 0
   11fbc:	1afffff5 	bne	11f98 <fat32_write+0x1f8>
   11fc0:	e3e0127f 	mvn	r1, #-268435449	; 0xf0000007
   11fc4:	e5963014 	ldr	r3, [r6, #20]
   11fc8:	e1a02827 	lsr	r2, r7, #16
   11fcc:	e7831005 	str	r1, [r3, r5]
   11fd0:	e6ff3077 	uxth	r3, r7
   11fd4:	e1a03423 	lsr	r3, r3, #8
   11fd8:	e5c4301b 	strb	r3, [r4, #27]
   11fdc:	e59d300c 	ldr	r3, [sp, #12]
   11fe0:	e1a01422 	lsr	r1, r2, #8
   11fe4:	e5933008 	ldr	r3, [r3, #8]
   11fe8:	e5c4701a 	strb	r7, [r4, #26]
   11fec:	e5c42014 	strb	r2, [r4, #20]
   11ff0:	e5c41015 	strb	r1, [r4, #21]
   11ff4:	eaffffb0 	b	11ebc <fat32_write+0x11c>
   11ff8:	e59f3058 	ldr	r3, [pc, #88]	; 12058 <fat32_write+0x2b8>
   11ffc:	e59f2058 	ldr	r2, [pc, #88]	; 1205c <fat32_write+0x2bc>
   12000:	e59f1058 	ldr	r1, [pc, #88]	; 12060 <fat32_write+0x2c0>
   12004:	e59f0058 	ldr	r0, [pc, #88]	; 12064 <fat32_write+0x2c4>
   12008:	eb000548 	bl	13530 <printk>
   1200c:	eb00068c 	bl	13a44 <clean_reboot>
   12010:	e59f2050 	ldr	r2, [pc, #80]	; 12068 <fat32_write+0x2c8>
   12014:	e59f3050 	ldr	r3, [pc, #80]	; 1206c <fat32_write+0x2cc>
   12018:	e59f1040 	ldr	r1, [pc, #64]	; 12060 <fat32_write+0x2c0>
   1201c:	e58d2000 	str	r2, [sp]
   12020:	e59f0048 	ldr	r0, [pc, #72]	; 12070 <fat32_write+0x2d0>
   12024:	e59f2048 	ldr	r2, [pc, #72]	; 12074 <fat32_write+0x2d4>
   12028:	eb000540 	bl	13530 <printk>
   1202c:	eb000684 	bl	13a44 <clean_reboot>
   12030:	e59f2040 	ldr	r2, [pc, #64]	; 12078 <fat32_write+0x2d8>
   12034:	e59f3040 	ldr	r3, [pc, #64]	; 1207c <fat32_write+0x2dc>
   12038:	e59f1020 	ldr	r1, [pc, #32]	; 12060 <fat32_write+0x2c0>
   1203c:	e58d2000 	str	r2, [sp]
   12040:	e59f0038 	ldr	r0, [pc, #56]	; 12080 <fat32_write+0x2e0>
   12044:	e59f2028 	ldr	r2, [pc, #40]	; 12074 <fat32_write+0x2d4>
   12048:	eb000538 	bl	13530 <printk>
   1204c:	eb00067c 	bl	13a44 <clean_reboot>
   12050:	00017ab8 	.word	0x00017ab8
   12054:	00017ac8 	.word	0x00017ac8
   12058:	00000143 	.word	0x00000143
   1205c:	00015f78 	.word	0x00015f78
   12060:	00015c90 	.word	0x00015c90
   12064:	00015cd4 	.word	0x00015cd4
   12068:	00015e70 	.word	0x00015e70
   1206c:	0000026e 	.word	0x0000026e
   12070:	00015e84 	.word	0x00015e84
   12074:	00016010 	.word	0x00016010
   12078:	00014550 	.word	0x00014550
   1207c:	0000026d 	.word	0x0000026d
   12080:	00015d80 	.word	0x00015d80

00012084 <fat32_flush>:
   12084:	e59f3038 	ldr	r3, [pc, #56]	; 120c4 <fat32_flush+0x40>
   12088:	e5933000 	ldr	r3, [r3]
   1208c:	e3530000 	cmp	r3, #0, 0
   12090:	0a000001 	beq	1209c <fat32_flush+0x18>
   12094:	e3a00000 	mov	r0, #0, 0
   12098:	e12fff1e 	bx	lr
   1209c:	e52de004 	push	{lr}		; (str lr, [sp, #-4]!)
   120a0:	e59f2020 	ldr	r2, [pc, #32]	; 120c8 <fat32_flush+0x44>
   120a4:	e24dd00c 	sub	sp, sp, #12, 0
   120a8:	e59f301c 	ldr	r3, [pc, #28]	; 120cc <fat32_flush+0x48>
   120ac:	e59f101c 	ldr	r1, [pc, #28]	; 120d0 <fat32_flush+0x4c>
   120b0:	e58d2000 	str	r2, [sp]
   120b4:	e59f0018 	ldr	r0, [pc, #24]	; 120d4 <fat32_flush+0x50>
   120b8:	e59f2018 	ldr	r2, [pc, #24]	; 120d8 <fat32_flush+0x54>
   120bc:	eb00051b 	bl	13530 <printk>
   120c0:	eb00065f 	bl	13a44 <clean_reboot>
   120c4:	00017ab8 	.word	0x00017ab8
   120c8:	00014550 	.word	0x00014550
   120cc:	00000292 	.word	0x00000292
   120d0:	00015c90 	.word	0x00015c90
   120d4:	00015d80 	.word	0x00015d80
   120d8:	0001601c 	.word	0x0001601c

000120dc <mbr_read>:
   120dc:	e92d4010 	push	{r4, lr}
   120e0:	e3a01001 	mov	r1, #1, 0
   120e4:	e3a00000 	mov	r0, #0, 0
   120e8:	ebffe971 	bl	c6b4 <pi_sec_read>
   120ec:	e1a04000 	mov	r4, r0
   120f0:	ebffea33 	bl	c9c4 <mbr_check>
   120f4:	e1a00004 	mov	r0, r4
   120f8:	e8bd8010 	pop	{r4, pc}

000120fc <new_cs>:
   120fc:	e3a00000 	mov	r0, #0, 0
   12100:	e12fff1e 	bx	lr

00012104 <read_cs>:
   12104:	e92d4010 	push	{r4, lr}
   12108:	ebffd7c7 	bl	802c <GET32>
   1210c:	e8bd8010 	pop	{r4, pc}

00012110 <start_transfer>:
   12110:	e24dd010 	sub	sp, sp, #16, 0
   12114:	e92d4010 	push	{r4, lr}
   12118:	e24dd008 	sub	sp, sp, #8, 0
   1211c:	e28dc00c 	add	ip, sp, #12, 0
   12120:	e98c000f 	stmib	ip, {r0, r1, r2, r3}
   12124:	eb000678 	bl	13b0c <dev_barrier>
   12128:	e59f306c 	ldr	r3, [pc, #108]	; 1219c <start_transfer+0x8c>
   1212c:	e5933000 	ldr	r3, [r3]
   12130:	e3530000 	cmp	r3, #0, 0
   12134:	1a000010 	bne	1217c <start_transfer+0x6c>
   12138:	e59f4060 	ldr	r4, [pc, #96]	; 121a0 <start_transfer+0x90>
   1213c:	e1a00004 	mov	r0, r4
   12140:	ebffffef 	bl	12104 <read_cs>
   12144:	e38000b0 	orr	r0, r0, #176, 0	; 0xb0
   12148:	e59d1010 	ldr	r1, [sp, #16]
   1214c:	e2011003 	and	r1, r1, #3, 0
   12150:	e3c00003 	bic	r0, r0, #3, 0
   12154:	e1811000 	orr	r1, r1, r0
   12158:	e1a00004 	mov	r0, r4
   1215c:	ebffd7b0 	bl	8024 <PUT32>
   12160:	eb000669 	bl	13b0c <dev_barrier>
   12164:	e3a00003 	mov	r0, #3, 0
   12168:	eb00064e 	bl	13aa8 <delay_cycles>
   1216c:	e28dd008 	add	sp, sp, #8, 0
   12170:	e8bd4010 	pop	{r4, lr}
   12174:	e28dd010 	add	sp, sp, #16, 0
   12178:	e12fff1e 	bx	lr
   1217c:	e59d3010 	ldr	r3, [sp, #16]
   12180:	e58d3000 	str	r3, [sp]
   12184:	e3a030f5 	mov	r3, #245, 0	; 0xf5
   12188:	e59f2014 	ldr	r2, [pc, #20]	; 121a4 <start_transfer+0x94>
   1218c:	e59f1014 	ldr	r1, [pc, #20]	; 121a8 <start_transfer+0x98>
   12190:	e59f0014 	ldr	r0, [pc, #20]	; 121ac <start_transfer+0x9c>
   12194:	eb0004e5 	bl	13530 <printk>
   12198:	eaffffe6 	b	12138 <start_transfer+0x28>
   1219c:	00017abc 	.word	0x00017abc
   121a0:	20204000 	.word	0x20204000
   121a4:	000161ec 	.word	0x000161ec
   121a8:	00016028 	.word	0x00016028
   121ac:	00016038 	.word	0x00016038

000121b0 <end_transfer>:
   121b0:	e24dd010 	sub	sp, sp, #16, 0
   121b4:	e52de004 	push	{lr}		; (str lr, [sp, #-4]!)
   121b8:	e24dd00c 	sub	sp, sp, #12, 0
   121bc:	e28dc00c 	add	ip, sp, #12, 0
   121c0:	e98c000f 	stmib	ip, {r0, r1, r2, r3}
   121c4:	e59f30c4 	ldr	r3, [pc, #196]	; 12290 <end_transfer+0xe0>
   121c8:	e5933000 	ldr	r3, [r3]
   121cc:	e3530000 	cmp	r3, #0, 0
   121d0:	1a000017 	bne	12234 <end_transfer+0x84>
   121d4:	e59f30b8 	ldr	r3, [pc, #184]	; 12294 <end_transfer+0xe4>
   121d8:	e5933000 	ldr	r3, [r3]
   121dc:	e3130801 	tst	r3, #65536	; 0x10000
   121e0:	0afffffb 	beq	121d4 <end_transfer+0x24>
   121e4:	e59f30a4 	ldr	r3, [pc, #164]	; 12290 <end_transfer+0xe0>
   121e8:	e5933000 	ldr	r3, [r3]
   121ec:	e3530000 	cmp	r3, #0, 0
   121f0:	1a000016 	bne	12250 <end_transfer+0xa0>
   121f4:	e59f0098 	ldr	r0, [pc, #152]	; 12294 <end_transfer+0xe4>
   121f8:	ebffffc1 	bl	12104 <read_cs>
   121fc:	e3c01080 	bic	r1, r0, #128, 0	; 0x80
   12200:	e2000003 	and	r0, r0, #3, 0
   12204:	e59d3010 	ldr	r3, [sp, #16]
   12208:	e1500003 	cmp	r0, r3
   1220c:	1a000017 	bne	12270 <end_transfer+0xc0>
   12210:	e59f007c 	ldr	r0, [pc, #124]	; 12294 <end_transfer+0xe4>
   12214:	ebffd782 	bl	8024 <PUT32>
   12218:	eb00063b 	bl	13b0c <dev_barrier>
   1221c:	e3a00003 	mov	r0, #3, 0
   12220:	eb000620 	bl	13aa8 <delay_cycles>
   12224:	e28dd00c 	add	sp, sp, #12, 0
   12228:	e49de004 	pop	{lr}		; (ldr lr, [sp], #4)
   1222c:	e28dd010 	add	sp, sp, #16, 0
   12230:	e12fff1e 	bx	lr
   12234:	e58d0000 	str	r0, [sp]
   12238:	e59f3058 	ldr	r3, [pc, #88]	; 12298 <end_transfer+0xe8>
   1223c:	e59f2058 	ldr	r2, [pc, #88]	; 1229c <end_transfer+0xec>
   12240:	e59f1058 	ldr	r1, [pc, #88]	; 122a0 <end_transfer+0xf0>
   12244:	e59f0058 	ldr	r0, [pc, #88]	; 122a4 <end_transfer+0xf4>
   12248:	eb0004b8 	bl	13530 <printk>
   1224c:	eaffffe0 	b	121d4 <end_transfer+0x24>
   12250:	e59d3010 	ldr	r3, [sp, #16]
   12254:	e58d3000 	str	r3, [sp]
   12258:	e3a03f47 	mov	r3, #284	; 0x11c
   1225c:	e59f2038 	ldr	r2, [pc, #56]	; 1229c <end_transfer+0xec>
   12260:	e59f1038 	ldr	r1, [pc, #56]	; 122a0 <end_transfer+0xf0>
   12264:	e59f003c 	ldr	r0, [pc, #60]	; 122a8 <end_transfer+0xf8>
   12268:	eb0004b0 	bl	13530 <printk>
   1226c:	eaffffe0 	b	121f4 <end_transfer+0x44>
   12270:	e58d3004 	str	r3, [sp, #4]
   12274:	e58d0000 	str	r0, [sp]
   12278:	e59f302c 	ldr	r3, [pc, #44]	; 122ac <end_transfer+0xfc>
   1227c:	e59f2018 	ldr	r2, [pc, #24]	; 1229c <end_transfer+0xec>
   12280:	e59f1018 	ldr	r1, [pc, #24]	; 122a0 <end_transfer+0xf0>
   12284:	e59f0024 	ldr	r0, [pc, #36]	; 122b0 <end_transfer+0x100>
   12288:	eb0004a8 	bl	13530 <printk>
   1228c:	eb0005ec 	bl	13a44 <clean_reboot>
   12290:	00017abc 	.word	0x00017abc
   12294:	20204000 	.word	0x20204000
   12298:	00000119 	.word	0x00000119
   1229c:	000161fc 	.word	0x000161fc
   122a0:	00016028 	.word	0x00016028
   122a4:	0001605c 	.word	0x0001605c
   122a8:	0001608c 	.word	0x0001608c
   122ac:	00000122 	.word	0x00000122
   122b0:	000160ac 	.word	0x000160ac

000122b4 <move_data>:
   122b4:	e92d41f0 	push	{r4, r5, r6, r7, r8, lr}
   122b8:	e24dd010 	sub	sp, sp, #16, 0
   122bc:	e1a08000 	mov	r8, r0
   122c0:	e1a06001 	mov	r6, r1
   122c4:	e1a05002 	mov	r5, r2
   122c8:	e3520010 	cmp	r2, #16, 0
   122cc:	31a07002 	movcc	r7, r2
   122d0:	23a07010 	movcs	r7, #16, 0
   122d4:	e3a04000 	mov	r4, #0, 0
   122d8:	ea000003 	b	122ec <move_data+0x38>
   122dc:	e7d61004 	ldrb	r1, [r6, r4]
   122e0:	e59f00c4 	ldr	r0, [pc, #196]	; 123ac <move_data+0xf8>
   122e4:	ebffd74e 	bl	8024 <PUT32>
   122e8:	e2844001 	add	r4, r4, #1, 0
   122ec:	e1540007 	cmp	r4, r7
   122f0:	3afffff9 	bcc	122dc <move_data+0x28>
   122f4:	e3a07000 	mov	r7, #0, 0
   122f8:	ea00000d 	b	12334 <move_data+0x80>
   122fc:	e7d61004 	ldrb	r1, [r6, r4]
   12300:	e59f00a4 	ldr	r0, [pc, #164]	; 123ac <move_data+0xf8>
   12304:	ebffd746 	bl	8024 <PUT32>
   12308:	e2844001 	add	r4, r4, #1, 0
   1230c:	e1540005 	cmp	r4, r5
   12310:	2a000003 	bcs	12324 <move_data+0x70>
   12314:	e59f3094 	ldr	r3, [pc, #148]	; 123b0 <move_data+0xfc>
   12318:	e5933000 	ldr	r3, [r3]
   1231c:	e3130701 	tst	r3, #262144	; 0x40000
   12320:	1afffff5 	bne	122fc <move_data+0x48>
   12324:	e59f3084 	ldr	r3, [pc, #132]	; 123b0 <move_data+0xfc>
   12328:	e5933000 	ldr	r3, [r3]
   1232c:	e3130802 	tst	r3, #131072	; 0x20000
   12330:	1a000007 	bne	12354 <move_data+0xa0>
   12334:	e1570005 	cmp	r7, r5
   12338:	3afffff3 	bcc	1230c <move_data+0x58>
   1233c:	e1540005 	cmp	r4, r5
   12340:	1a000008 	bne	12368 <move_data+0xb4>
   12344:	e1570005 	cmp	r7, r5
   12348:	1a00000f 	bne	1238c <move_data+0xd8>
   1234c:	e28dd010 	add	sp, sp, #16, 0
   12350:	e8bd81f0 	pop	{r4, r5, r6, r7, r8, pc}
   12354:	e59f0050 	ldr	r0, [pc, #80]	; 123ac <move_data+0xf8>
   12358:	ebffd733 	bl	802c <GET32>
   1235c:	e7c80007 	strb	r0, [r8, r7]
   12360:	e2877001 	add	r7, r7, #1, 0
   12364:	eafffff2 	b	12334 <move_data+0x80>
   12368:	e58d5008 	str	r5, [sp, #8]
   1236c:	e58d7004 	str	r7, [sp, #4]
   12370:	e58d4000 	str	r4, [sp]
   12374:	e59f3038 	ldr	r3, [pc, #56]	; 123b4 <move_data+0x100>
   12378:	e59f2038 	ldr	r2, [pc, #56]	; 123b8 <move_data+0x104>
   1237c:	e59f1038 	ldr	r1, [pc, #56]	; 123bc <move_data+0x108>
   12380:	e59f0038 	ldr	r0, [pc, #56]	; 123c0 <move_data+0x10c>
   12384:	eb000469 	bl	13530 <printk>
   12388:	eb0005ad 	bl	13a44 <clean_reboot>
   1238c:	e59f3030 	ldr	r3, [pc, #48]	; 123c4 <move_data+0x110>
   12390:	e58d3000 	str	r3, [sp]
   12394:	e3a03e1a 	mov	r3, #416	; 0x1a0
   12398:	e59f2018 	ldr	r2, [pc, #24]	; 123b8 <move_data+0x104>
   1239c:	e59f1018 	ldr	r1, [pc, #24]	; 123bc <move_data+0x108>
   123a0:	e59f0020 	ldr	r0, [pc, #32]	; 123c8 <move_data+0x114>
   123a4:	eb000461 	bl	13530 <printk>
   123a8:	eb0005a5 	bl	13a44 <clean_reboot>
   123ac:	20204004 	.word	0x20204004
   123b0:	20204000 	.word	0x20204000
   123b4:	0000019e 	.word	0x0000019e
   123b8:	0001620c 	.word	0x0001620c
   123bc:	00016028 	.word	0x00016028
   123c0:	000160e4 	.word	0x000160e4
   123c4:	00016114 	.word	0x00016114
   123c8:	00013f8c 	.word	0x00013f8c

000123cc <spi_set_verbose>:
   123cc:	e59f3004 	ldr	r3, [pc, #4]	; 123d8 <spi_set_verbose+0xc>
   123d0:	e5830000 	str	r0, [r3]
   123d4:	e12fff1e 	bx	lr
   123d8:	00017abc 	.word	0x00017abc

000123dc <spi_n_transfer>:
   123dc:	e24dd010 	sub	sp, sp, #16, 0
   123e0:	e92d4070 	push	{r4, r5, r6, lr}
   123e4:	e24dd010 	sub	sp, sp, #16, 0
   123e8:	e28dc01c 	add	ip, sp, #28, 0
   123ec:	e98c000f 	stmib	ip, {r0, r1, r2, r3}
   123f0:	e59d6040 	ldr	r6, [sp, #64]	; 0x40
   123f4:	e3560000 	cmp	r6, #0, 0
   123f8:	0a000013 	beq	1244c <spi_n_transfer+0x70>
   123fc:	e58d6008 	str	r6, [sp, #8]
   12400:	e28d5030 	add	r5, sp, #48, 0	; 0x30
   12404:	e8950003 	ldm	r5, {r0, r1}
   12408:	e88d0003 	stm	sp, {r0, r1}
   1240c:	e28d4020 	add	r4, sp, #32, 0
   12410:	e894000f 	ldm	r4, {r0, r1, r2, r3}
   12414:	ebffff3d 	bl	12110 <start_transfer>
   12418:	e1a02006 	mov	r2, r6
   1241c:	e59d103c 	ldr	r1, [sp, #60]	; 0x3c
   12420:	e59d0038 	ldr	r0, [sp, #56]	; 0x38
   12424:	ebffffa2 	bl	122b4 <move_data>
   12428:	e8950003 	ldm	r5, {r0, r1}
   1242c:	e88d0003 	stm	sp, {r0, r1}
   12430:	e894000f 	ldm	r4, {r0, r1, r2, r3}
   12434:	ebffff5d 	bl	121b0 <end_transfer>
   12438:	e3a00001 	mov	r0, #1, 0
   1243c:	e28dd010 	add	sp, sp, #16, 0
   12440:	e8bd4070 	pop	{r4, r5, r6, lr}
   12444:	e28dd010 	add	sp, sp, #16, 0
   12448:	e12fff1e 	bx	lr
   1244c:	e59f3018 	ldr	r3, [pc, #24]	; 1246c <spi_n_transfer+0x90>
   12450:	e58d3000 	str	r3, [sp]
   12454:	e59f3014 	ldr	r3, [pc, #20]	; 12470 <spi_n_transfer+0x94>
   12458:	e59f2014 	ldr	r2, [pc, #20]	; 12474 <spi_n_transfer+0x98>
   1245c:	e59f1014 	ldr	r1, [pc, #20]	; 12478 <spi_n_transfer+0x9c>
   12460:	e59f0014 	ldr	r0, [pc, #20]	; 1247c <spi_n_transfer+0xa0>
   12464:	eb000431 	bl	13530 <printk>
   12468:	eb000575 	bl	13a44 <clean_reboot>
   1246c:	0001611c 	.word	0x0001611c
   12470:	000001c3 	.word	0x000001c3
   12474:	00016218 	.word	0x00016218
   12478:	00016028 	.word	0x00016028
   1247c:	00013f8c 	.word	0x00013f8c

00012480 <spi_n_init>:
   12480:	e92d40f0 	push	{r4, r5, r6, r7, lr}
   12484:	e24dd014 	sub	sp, sp, #20, 0
   12488:	e1a04000 	mov	r4, r0
   1248c:	e1a05001 	mov	r5, r1
   12490:	e1a06002 	mov	r6, r2
   12494:	e59f3168 	ldr	r3, [pc, #360]	; 12604 <spi_n_init+0x184>
   12498:	e5933004 	ldr	r3, [r3, #4]
   1249c:	e3530000 	cmp	r3, #0, 0
   124a0:	1a00002b 	bne	12554 <spi_n_init+0xd4>
   124a4:	e59f3158 	ldr	r3, [pc, #344]	; 12604 <spi_n_init+0x184>
   124a8:	e5832004 	str	r2, [r3, #4]
   124ac:	eb000596 	bl	13b0c <dev_barrier>
   124b0:	e3550000 	cmp	r5, #0, 0
   124b4:	0a000030 	beq	1257c <spi_n_init+0xfc>
   124b8:	e3550001 	cmp	r5, #1, 0
   124bc:	1a000032 	bne	1258c <spi_n_init+0x10c>
   124c0:	e3a01004 	mov	r1, #4, 0
   124c4:	e3a00007 	mov	r0, #7, 0
   124c8:	eb0001cc 	bl	12c00 <gpio_set_function>
   124cc:	e59f3130 	ldr	r3, [pc, #304]	; 12604 <spi_n_init+0x184>
   124d0:	e5933008 	ldr	r3, [r3, #8]
   124d4:	e3530000 	cmp	r3, #0, 0
   124d8:	0a000032 	beq	125a8 <spi_n_init+0x128>
   124dc:	eb00058a 	bl	13b0c <dev_barrier>
   124e0:	ebffff05 	bl	120fc <new_cs>
   124e4:	e2051003 	and	r1, r5, #3, 0
   124e8:	e3c00003 	bic	r0, r0, #3, 0
   124ec:	e1811000 	orr	r1, r1, r0
   124f0:	e59f7110 	ldr	r7, [pc, #272]	; 12608 <spi_n_init+0x188>
   124f4:	e3811030 	orr	r1, r1, #48, 0	; 0x30
   124f8:	e1a00007 	mov	r0, r7
   124fc:	ebffd6c8 	bl	8024 <PUT32>
   12500:	eb000581 	bl	13b0c <dev_barrier>
   12504:	e1a00007 	mov	r0, r7
   12508:	ebfffefd 	bl	12104 <read_cs>
   1250c:	e2000003 	and	r0, r0, #3, 0
   12510:	e1500005 	cmp	r0, r5
   12514:	1a000030 	bne	125dc <spi_n_init+0x15c>
   12518:	e1a01006 	mov	r1, r6
   1251c:	e59f00e8 	ldr	r0, [pc, #232]	; 1260c <spi_n_init+0x18c>
   12520:	ebffd6bf 	bl	8024 <PUT32>
   12524:	eb000578 	bl	13b0c <dev_barrier>
   12528:	e3a03000 	mov	r3, #0, 0
   1252c:	e5843000 	str	r3, [r4]
   12530:	e5843004 	str	r3, [r4, #4]
   12534:	e5843008 	str	r3, [r4, #8]
   12538:	e584300c 	str	r3, [r4, #12]
   1253c:	e5843010 	str	r3, [r4, #16]
   12540:	e5843014 	str	r3, [r4, #20]
   12544:	e5845000 	str	r5, [r4]
   12548:	e1a00004 	mov	r0, r4
   1254c:	e28dd014 	add	sp, sp, #20, 0
   12550:	e8bd80f0 	pop	{r4, r5, r6, r7, pc}
   12554:	e1530002 	cmp	r3, r2
   12558:	0affffd3 	beq	124ac <spi_n_init+0x2c>
   1255c:	e58d2004 	str	r2, [sp, #4]
   12560:	e58d3000 	str	r3, [sp]
   12564:	e59f30a4 	ldr	r3, [pc, #164]	; 12610 <spi_n_init+0x190>
   12568:	e59f20a4 	ldr	r2, [pc, #164]	; 12614 <spi_n_init+0x194>
   1256c:	e59f10a4 	ldr	r1, [pc, #164]	; 12618 <spi_n_init+0x198>
   12570:	e59f00a4 	ldr	r0, [pc, #164]	; 1261c <spi_n_init+0x19c>
   12574:	eb0003ed 	bl	13530 <printk>
   12578:	eb000531 	bl	13a44 <clean_reboot>
   1257c:	e3a01004 	mov	r1, #4, 0
   12580:	e3a00008 	mov	r0, #8, 0
   12584:	eb00019d 	bl	12c00 <gpio_set_function>
   12588:	eaffffcf 	b	124cc <spi_n_init+0x4c>
   1258c:	e58d5000 	str	r5, [sp]
   12590:	e59f3088 	ldr	r3, [pc, #136]	; 12620 <spi_n_init+0x1a0>
   12594:	e59f2078 	ldr	r2, [pc, #120]	; 12614 <spi_n_init+0x194>
   12598:	e59f1078 	ldr	r1, [pc, #120]	; 12618 <spi_n_init+0x198>
   1259c:	e59f0080 	ldr	r0, [pc, #128]	; 12624 <spi_n_init+0x1a4>
   125a0:	eb0003e2 	bl	13530 <printk>
   125a4:	eb000526 	bl	13a44 <clean_reboot>
   125a8:	e59f3054 	ldr	r3, [pc, #84]	; 12604 <spi_n_init+0x184>
   125ac:	e3a02001 	mov	r2, #1, 0
   125b0:	e5832008 	str	r2, [r3, #8]
   125b4:	e3a01004 	mov	r1, #4, 0
   125b8:	e3a00009 	mov	r0, #9, 0
   125bc:	eb00018f 	bl	12c00 <gpio_set_function>
   125c0:	e3a01004 	mov	r1, #4, 0
   125c4:	e3a0000a 	mov	r0, #10, 0
   125c8:	eb00018c 	bl	12c00 <gpio_set_function>
   125cc:	e3a01004 	mov	r1, #4, 0
   125d0:	e3a0000b 	mov	r0, #11, 0
   125d4:	eb000189 	bl	12c00 <gpio_set_function>
   125d8:	eaffffbf 	b	124dc <spi_n_init+0x5c>
   125dc:	e58d0008 	str	r0, [sp, #8]
   125e0:	e58d5004 	str	r5, [sp, #4]
   125e4:	e59f303c 	ldr	r3, [pc, #60]	; 12628 <spi_n_init+0x1a8>
   125e8:	e58d3000 	str	r3, [sp]
   125ec:	e3a03f8e 	mov	r3, #568	; 0x238
   125f0:	e59f201c 	ldr	r2, [pc, #28]	; 12614 <spi_n_init+0x194>
   125f4:	e59f101c 	ldr	r1, [pc, #28]	; 12618 <spi_n_init+0x198>
   125f8:	e59f002c 	ldr	r0, [pc, #44]	; 1262c <spi_n_init+0x1ac>
   125fc:	eb0003cb 	bl	13530 <printk>
   12600:	eb00050f 	bl	13a44 <clean_reboot>
   12604:	00017abc 	.word	0x00017abc
   12608:	20204000 	.word	0x20204000
   1260c:	20204008 	.word	0x20204008
   12610:	00000213 	.word	0x00000213
   12614:	00016228 	.word	0x00016228
   12618:	00016028 	.word	0x00016028
   1261c:	00016124 	.word	0x00016124
   12620:	00000222 	.word	0x00000222
   12624:	00016174 	.word	0x00016174
   12628:	000161dc 	.word	0x000161dc
   1262c:	0001619c 	.word	0x0001619c

00012630 <kmalloc_heap_end>:
   12630:	e59f3004 	ldr	r3, [pc, #4]	; 1263c <kmalloc_heap_end+0xc>
   12634:	e5930000 	ldr	r0, [r3]
   12638:	e12fff1e 	bx	lr
   1263c:	00017754 	.word	0x00017754

00012640 <kmalloc_heap_start>:
   12640:	e59f3004 	ldr	r3, [pc, #4]	; 1264c <kmalloc_heap_start+0xc>
   12644:	e5930004 	ldr	r0, [r3, #4]
   12648:	e12fff1e 	bx	lr
   1264c:	00017754 	.word	0x00017754

00012650 <kmalloc_heap_ptr>:
   12650:	e59f3004 	ldr	r3, [pc, #4]	; 1265c <kmalloc_heap_ptr+0xc>
   12654:	e5930008 	ldr	r0, [r3, #8]
   12658:	e12fff1e 	bx	lr
   1265c:	00017754 	.word	0x00017754

00012660 <kmalloc_init_set_start>:
   12660:	e92d4030 	push	{r4, r5, lr}
   12664:	e24dd00c 	sub	sp, sp, #12, 0
   12668:	e1a05001 	mov	r5, r1
   1266c:	e3510201 	cmp	r1, #268435456	; 0x10000000
   12670:	8a000014 	bhi	126c8 <kmalloc_init_set_start+0x68>
   12674:	e1a04000 	mov	r4, r0
   12678:	eb0004f9 	bl	13a64 <program_end>
   1267c:	e1540000 	cmp	r4, r0
   12680:	3a000017 	bcc	126e4 <kmalloc_init_set_start+0x84>
   12684:	e3550000 	cmp	r5, #0, 0
   12688:	0a00001b 	beq	126fc <kmalloc_init_set_start+0x9c>
   1268c:	e59f30d0 	ldr	r3, [pc, #208]	; 12764 <kmalloc_init_set_start+0x104>
   12690:	e5933004 	ldr	r3, [r3, #4]
   12694:	e1530004 	cmp	r3, r4
   12698:	8a00001f 	bhi	1271c <kmalloc_init_set_start+0xbc>
   1269c:	e59f30c0 	ldr	r3, [pc, #192]	; 12764 <kmalloc_init_set_start+0x104>
   126a0:	e5933008 	ldr	r3, [r3, #8]
   126a4:	e1530004 	cmp	r3, r4
   126a8:	8a000023 	bhi	1273c <kmalloc_init_set_start+0xdc>
   126ac:	e59f30b0 	ldr	r3, [pc, #176]	; 12764 <kmalloc_init_set_start+0x104>
   126b0:	e5834008 	str	r4, [r3, #8]
   126b4:	e5834004 	str	r4, [r3, #4]
   126b8:	e0844005 	add	r4, r4, r5
   126bc:	e5834000 	str	r4, [r3]
   126c0:	e28dd00c 	add	sp, sp, #12, 0
   126c4:	e8bd8030 	pop	{r4, r5, pc}
   126c8:	e58d1000 	str	r1, [sp]
   126cc:	e3a0303c 	mov	r3, #60, 0	; 0x3c
   126d0:	e59f2090 	ldr	r2, [pc, #144]	; 12768 <kmalloc_init_set_start+0x108>
   126d4:	e59f1090 	ldr	r1, [pc, #144]	; 1276c <kmalloc_init_set_start+0x10c>
   126d8:	e59f0090 	ldr	r0, [pc, #144]	; 12770 <kmalloc_init_set_start+0x110>
   126dc:	eb000393 	bl	13530 <printk>
   126e0:	eb0004d7 	bl	13a44 <clean_reboot>
   126e4:	e3a03040 	mov	r3, #64, 0	; 0x40
   126e8:	e59f2078 	ldr	r2, [pc, #120]	; 12768 <kmalloc_init_set_start+0x108>
   126ec:	e59f1078 	ldr	r1, [pc, #120]	; 1276c <kmalloc_init_set_start+0x10c>
   126f0:	e59f007c 	ldr	r0, [pc, #124]	; 12774 <kmalloc_init_set_start+0x114>
   126f4:	eb00038d 	bl	13530 <printk>
   126f8:	eb0004d1 	bl	13a44 <clean_reboot>
   126fc:	e59f3074 	ldr	r3, [pc, #116]	; 12778 <kmalloc_init_set_start+0x118>
   12700:	e58d3000 	str	r3, [sp]
   12704:	e3a03042 	mov	r3, #66, 0	; 0x42
   12708:	e59f2058 	ldr	r2, [pc, #88]	; 12768 <kmalloc_init_set_start+0x108>
   1270c:	e59f1058 	ldr	r1, [pc, #88]	; 1276c <kmalloc_init_set_start+0x10c>
   12710:	e59f0064 	ldr	r0, [pc, #100]	; 1277c <kmalloc_init_set_start+0x11c>
   12714:	eb000385 	bl	13530 <printk>
   12718:	eb0004c9 	bl	13a44 <clean_reboot>
   1271c:	e58d4004 	str	r4, [sp, #4]
   12720:	e58d3000 	str	r3, [sp]
   12724:	e3a03044 	mov	r3, #68, 0	; 0x44
   12728:	e59f2038 	ldr	r2, [pc, #56]	; 12768 <kmalloc_init_set_start+0x108>
   1272c:	e59f1038 	ldr	r1, [pc, #56]	; 1276c <kmalloc_init_set_start+0x10c>
   12730:	e59f0048 	ldr	r0, [pc, #72]	; 12780 <kmalloc_init_set_start+0x120>
   12734:	eb00037d 	bl	13530 <printk>
   12738:	eb0004c1 	bl	13a44 <clean_reboot>
   1273c:	e59f3020 	ldr	r3, [pc, #32]	; 12764 <kmalloc_init_set_start+0x104>
   12740:	e5933000 	ldr	r3, [r3]
   12744:	e58d3004 	str	r3, [sp, #4]
   12748:	e58d4000 	str	r4, [sp]
   1274c:	e3a03048 	mov	r3, #72, 0	; 0x48
   12750:	e59f2010 	ldr	r2, [pc, #16]	; 12768 <kmalloc_init_set_start+0x108>
   12754:	e59f1010 	ldr	r1, [pc, #16]	; 1276c <kmalloc_init_set_start+0x10c>
   12758:	e59f0024 	ldr	r0, [pc, #36]	; 12784 <kmalloc_init_set_start+0x124>
   1275c:	eb000373 	bl	13530 <printk>
   12760:	eb0004b7 	bl	13a44 <clean_reboot>
   12764:	00017754 	.word	0x00017754
   12768:	00016494 	.word	0x00016494
   1276c:	00016234 	.word	0x00016234
   12770:	00016244 	.word	0x00016244
   12774:	00016274 	.word	0x00016274
   12778:	0001629c 	.word	0x0001629c
   1277c:	00013f8c 	.word	0x00013f8c
   12780:	000162a8 	.word	0x000162a8
   12784:	00016310 	.word	0x00016310

00012788 <kmalloc_notzero>:
   12788:	e52de004 	push	{lr}		; (str lr, [sp, #-4]!)
   1278c:	e24dd00c 	sub	sp, sp, #12, 0
   12790:	e3500000 	cmp	r0, #0, 0
   12794:	0a00000f 	beq	127d8 <kmalloc_notzero+0x50>
   12798:	e2800007 	add	r0, r0, #7, 0
   1279c:	e3c03007 	bic	r3, r0, #7, 0
   127a0:	e59f20ac 	ldr	r2, [pc, #172]	; 12854 <kmalloc_notzero+0xcc>
   127a4:	e5920008 	ldr	r0, [r2, #8]
   127a8:	e3100007 	tst	r0, #7, 0
   127ac:	1a000011 	bne	127f8 <kmalloc_notzero+0x70>
   127b0:	e3500000 	cmp	r0, #0, 0
   127b4:	0a000017 	beq	12818 <kmalloc_notzero+0x90>
   127b8:	e0802003 	add	r2, r0, r3
   127bc:	e59f1090 	ldr	r1, [pc, #144]	; 12854 <kmalloc_notzero+0xcc>
   127c0:	e5812008 	str	r2, [r1, #8]
   127c4:	e5911000 	ldr	r1, [r1]
   127c8:	e1520001 	cmp	r2, r1
   127cc:	8a000017 	bhi	12830 <kmalloc_notzero+0xa8>
   127d0:	e28dd00c 	add	sp, sp, #12, 0
   127d4:	e49df004 	pop	{pc}		; (ldr pc, [sp], #4)
   127d8:	e59f3078 	ldr	r3, [pc, #120]	; 12858 <kmalloc_notzero+0xd0>
   127dc:	e58d3000 	str	r3, [sp]
   127e0:	e3a03051 	mov	r3, #81, 0	; 0x51
   127e4:	e59f2070 	ldr	r2, [pc, #112]	; 1285c <kmalloc_notzero+0xd4>
   127e8:	e59f1070 	ldr	r1, [pc, #112]	; 12860 <kmalloc_notzero+0xd8>
   127ec:	e59f0070 	ldr	r0, [pc, #112]	; 12864 <kmalloc_notzero+0xdc>
   127f0:	eb00034e 	bl	13530 <printk>
   127f4:	eb000492 	bl	13a44 <clean_reboot>
   127f8:	e59f3068 	ldr	r3, [pc, #104]	; 12868 <kmalloc_notzero+0xe0>
   127fc:	e58d3000 	str	r3, [sp]
   12800:	e3a03054 	mov	r3, #84, 0	; 0x54
   12804:	e59f2050 	ldr	r2, [pc, #80]	; 1285c <kmalloc_notzero+0xd4>
   12808:	e59f1050 	ldr	r1, [pc, #80]	; 12860 <kmalloc_notzero+0xd8>
   1280c:	e59f0050 	ldr	r0, [pc, #80]	; 12864 <kmalloc_notzero+0xdc>
   12810:	eb000346 	bl	13530 <printk>
   12814:	eb00048a 	bl	13a44 <clean_reboot>
   12818:	e3a03058 	mov	r3, #88, 0	; 0x58
   1281c:	e59f2038 	ldr	r2, [pc, #56]	; 1285c <kmalloc_notzero+0xd4>
   12820:	e59f1038 	ldr	r1, [pc, #56]	; 12860 <kmalloc_notzero+0xd8>
   12824:	e59f0040 	ldr	r0, [pc, #64]	; 1286c <kmalloc_notzero+0xe4>
   12828:	eb000340 	bl	13530 <printk>
   1282c:	eb000484 	bl	13a44 <clean_reboot>
   12830:	e0422001 	sub	r2, r2, r1
   12834:	e58d2004 	str	r2, [sp, #4]
   12838:	e58d3000 	str	r3, [sp]
   1283c:	e3a0305c 	mov	r3, #92, 0	; 0x5c
   12840:	e59f2014 	ldr	r2, [pc, #20]	; 1285c <kmalloc_notzero+0xd4>
   12844:	e59f1014 	ldr	r1, [pc, #20]	; 12860 <kmalloc_notzero+0xd8>
   12848:	e59f0020 	ldr	r0, [pc, #32]	; 12870 <kmalloc_notzero+0xe8>
   1284c:	eb000337 	bl	13530 <printk>
   12850:	eb00047b 	bl	13a44 <clean_reboot>
   12854:	00017754 	.word	0x00017754
   12858:	0001611c 	.word	0x0001611c
   1285c:	000164ac 	.word	0x000164ac
   12860:	00016234 	.word	0x00016234
   12864:	00013f8c 	.word	0x00013f8c
   12868:	00016354 	.word	0x00016354
   1286c:	0001636c 	.word	0x0001636c
   12870:	00016398 	.word	0x00016398

00012874 <kmalloc>:
   12874:	e92d4030 	push	{r4, r5, lr}
   12878:	e24dd00c 	sub	sp, sp, #12, 0
   1287c:	e2504000 	subs	r4, r0, #0, 0
   12880:	0a000008 	beq	128a8 <kmalloc+0x34>
   12884:	e1a00004 	mov	r0, r4
   12888:	ebffffbe 	bl	12788 <kmalloc_notzero>
   1288c:	e1a05000 	mov	r5, r0
   12890:	e1a02004 	mov	r2, r4
   12894:	e3a01000 	mov	r1, #0, 0
   12898:	eb0002e9 	bl	13444 <memset>
   1289c:	e1a00005 	mov	r0, r5
   128a0:	e28dd00c 	add	sp, sp, #12, 0
   128a4:	e8bd8030 	pop	{r4, r5, pc}
   128a8:	e59f3018 	ldr	r3, [pc, #24]	; 128c8 <kmalloc+0x54>
   128ac:	e58d3000 	str	r3, [sp]
   128b0:	e3a03064 	mov	r3, #100, 0	; 0x64
   128b4:	e59f2010 	ldr	r2, [pc, #16]	; 128cc <kmalloc+0x58>
   128b8:	e59f1010 	ldr	r1, [pc, #16]	; 128d0 <kmalloc+0x5c>
   128bc:	e59f0010 	ldr	r0, [pc, #16]	; 128d4 <kmalloc+0x60>
   128c0:	eb00031a 	bl	13530 <printk>
   128c4:	eb00045e 	bl	13a44 <clean_reboot>
   128c8:	0001611c 	.word	0x0001611c
   128cc:	000164bc 	.word	0x000164bc
   128d0:	00016234 	.word	0x00016234
   128d4:	00013f8c 	.word	0x00013f8c

000128d8 <kmalloc_aligned>:
   128d8:	e52de004 	push	{lr}		; (str lr, [sp, #-4]!)
   128dc:	e24dd00c 	sub	sp, sp, #12, 0
   128e0:	e3500000 	cmp	r0, #0, 0
   128e4:	0a000014 	beq	1293c <kmalloc_aligned+0x64>
   128e8:	e2613000 	rsb	r3, r1, #0, 0
   128ec:	e1d13003 	bics	r3, r1, r3
   128f0:	1a000019 	bne	1295c <kmalloc_aligned+0x84>
   128f4:	e3510008 	cmp	r1, #8, 0
   128f8:	33a01008 	movcc	r1, #8, 0
   128fc:	e59f30b8 	ldr	r3, [pc, #184]	; 129bc <kmalloc_aligned+0xe4>
   12900:	e5932008 	ldr	r2, [r3, #8]
   12904:	e2613000 	rsb	r3, r1, #0, 0
   12908:	e1d1c003 	bics	ip, r1, r3
   1290c:	1a00001a 	bne	1297c <kmalloc_aligned+0xa4>
   12910:	e0822001 	add	r2, r2, r1
   12914:	e2422001 	sub	r2, r2, #1, 0
   12918:	e0033002 	and	r3, r3, r2
   1291c:	e2411001 	sub	r1, r1, #1, 0
   12920:	e1110003 	tst	r1, r3
   12924:	1a00001c 	bne	1299c <kmalloc_aligned+0xc4>
   12928:	e59f208c 	ldr	r2, [pc, #140]	; 129bc <kmalloc_aligned+0xe4>
   1292c:	e5823008 	str	r3, [r2, #8]
   12930:	ebffffcf 	bl	12874 <kmalloc>
   12934:	e28dd00c 	add	sp, sp, #12, 0
   12938:	e49df004 	pop	{pc}		; (ldr pc, [sp], #4)
   1293c:	e59f307c 	ldr	r3, [pc, #124]	; 129c0 <kmalloc_aligned+0xe8>
   12940:	e58d3000 	str	r3, [sp]
   12944:	e3a0306e 	mov	r3, #110, 0	; 0x6e
   12948:	e59f2074 	ldr	r2, [pc, #116]	; 129c4 <kmalloc_aligned+0xec>
   1294c:	e59f1074 	ldr	r1, [pc, #116]	; 129c8 <kmalloc_aligned+0xf0>
   12950:	e59f0074 	ldr	r0, [pc, #116]	; 129cc <kmalloc_aligned+0xf4>
   12954:	eb0002f5 	bl	13530 <printk>
   12958:	eb000439 	bl	13a44 <clean_reboot>
   1295c:	e59f306c 	ldr	r3, [pc, #108]	; 129d0 <kmalloc_aligned+0xf8>
   12960:	e58d3000 	str	r3, [sp]
   12964:	e3a0306f 	mov	r3, #111, 0	; 0x6f
   12968:	e59f2054 	ldr	r2, [pc, #84]	; 129c4 <kmalloc_aligned+0xec>
   1296c:	e59f1054 	ldr	r1, [pc, #84]	; 129c8 <kmalloc_aligned+0xf0>
   12970:	e59f005c 	ldr	r0, [pc, #92]	; 129d4 <kmalloc_aligned+0xfc>
   12974:	eb0002ed 	bl	13530 <printk>
   12978:	eb000431 	bl	13a44 <clean_reboot>
   1297c:	e59f3054 	ldr	r3, [pc, #84]	; 129d8 <kmalloc_aligned+0x100>
   12980:	e58d3000 	str	r3, [sp]
   12984:	e3a03011 	mov	r3, #17, 0
   12988:	e59f204c 	ldr	r2, [pc, #76]	; 129dc <kmalloc_aligned+0x104>
   1298c:	e59f1034 	ldr	r1, [pc, #52]	; 129c8 <kmalloc_aligned+0xf0>
   12990:	e59f0034 	ldr	r0, [pc, #52]	; 129cc <kmalloc_aligned+0xf4>
   12994:	eb0002e5 	bl	13530 <printk>
   12998:	eb000429 	bl	13a44 <clean_reboot>
   1299c:	e59f303c 	ldr	r3, [pc, #60]	; 129e0 <kmalloc_aligned+0x108>
   129a0:	e58d3000 	str	r3, [sp]
   129a4:	e3a03076 	mov	r3, #118, 0	; 0x76
   129a8:	e59f2014 	ldr	r2, [pc, #20]	; 129c4 <kmalloc_aligned+0xec>
   129ac:	e59f1014 	ldr	r1, [pc, #20]	; 129c8 <kmalloc_aligned+0xf0>
   129b0:	e59f002c 	ldr	r0, [pc, #44]	; 129e4 <kmalloc_aligned+0x10c>
   129b4:	eb0002dd 	bl	13530 <printk>
   129b8:	eb000421 	bl	13a44 <clean_reboot>
   129bc:	00017754 	.word	0x00017754
   129c0:	0001611c 	.word	0x0001611c
   129c4:	000164c4 	.word	0x000164c4
   129c8:	00016234 	.word	0x00016234
   129cc:	00013f8c 	.word	0x00013f8c
   129d0:	00016420 	.word	0x00016420
   129d4:	000163e0 	.word	0x000163e0
   129d8:	00016434 	.word	0x00016434
   129dc:	000164d4 	.word	0x000164d4
   129e0:	00016478 	.word	0x00016478
   129e4:	00016440 	.word	0x00016440

000129e8 <kfree_all>:
   129e8:	e59f3008 	ldr	r3, [pc, #8]	; 129f8 <kfree_all+0x10>
   129ec:	e5932004 	ldr	r2, [r3, #4]
   129f0:	e5832008 	str	r2, [r3, #8]
   129f4:	e12fff1e 	bx	lr
   129f8:	00017754 	.word	0x00017754

000129fc <gpio_set_on>:
   129fc:	e92d4010 	push	{r4, lr}
   12a00:	e1a04000 	mov	r4, r0
   12a04:	e3500035 	cmp	r0, #53, 0	; 0x35
   12a08:	8a000007 	bhi	12a2c <gpio_set_on+0x30>
   12a0c:	e1a002a4 	lsr	r0, r4, #5
   12a10:	e204401f 	and	r4, r4, #31, 0
   12a14:	e3a01001 	mov	r1, #1, 0
   12a18:	e1a01411 	lsl	r1, r1, r4
   12a1c:	e59f3018 	ldr	r3, [pc, #24]	; 12a3c <gpio_set_on+0x40>
   12a20:	e0830100 	add	r0, r3, r0, lsl #2
   12a24:	ebffd57e 	bl	8024 <PUT32>
   12a28:	e8bd8010 	pop	{r4, pc}
   12a2c:	e1a01000 	mov	r1, r0
   12a30:	e59f0008 	ldr	r0, [pc, #8]	; 12a40 <gpio_set_on+0x44>
   12a34:	eb000429 	bl	13ae0 <gpio_panic>
   12a38:	eafffff3 	b	12a0c <gpio_set_on+0x10>
   12a3c:	2020001c 	.word	0x2020001c
   12a40:	000164dc 	.word	0x000164dc

00012a44 <gpio_set_off>:
   12a44:	e92d4010 	push	{r4, lr}
   12a48:	e1a04000 	mov	r4, r0
   12a4c:	e3500035 	cmp	r0, #53, 0	; 0x35
   12a50:	8a000007 	bhi	12a74 <gpio_set_off+0x30>
   12a54:	e1a002a4 	lsr	r0, r4, #5
   12a58:	e204401f 	and	r4, r4, #31, 0
   12a5c:	e3a01001 	mov	r1, #1, 0
   12a60:	e1a01411 	lsl	r1, r1, r4
   12a64:	e59f3018 	ldr	r3, [pc, #24]	; 12a84 <gpio_set_off+0x40>
   12a68:	e0830100 	add	r0, r3, r0, lsl #2
   12a6c:	ebffd56c 	bl	8024 <PUT32>
   12a70:	e8bd8010 	pop	{r4, pc}
   12a74:	e1a01000 	mov	r1, r0
   12a78:	e59f0008 	ldr	r0, [pc, #8]	; 12a88 <gpio_set_off+0x44>
   12a7c:	eb000417 	bl	13ae0 <gpio_panic>
   12a80:	eafffff3 	b	12a54 <gpio_set_off+0x10>
   12a84:	20200028 	.word	0x20200028
   12a88:	000164dc 	.word	0x000164dc

00012a8c <gpio_write>:
   12a8c:	e92d4010 	push	{r4, lr}
   12a90:	e3510000 	cmp	r1, #0, 0
   12a94:	0a000001 	beq	12aa0 <gpio_write+0x14>
   12a98:	ebffffd7 	bl	129fc <gpio_set_on>
   12a9c:	e8bd8010 	pop	{r4, pc}
   12aa0:	ebffffe7 	bl	12a44 <gpio_set_off>
   12aa4:	e8bd8010 	pop	{r4, pc}

00012aa8 <gpio_read>:
   12aa8:	e92d4010 	push	{r4, lr}
   12aac:	e1a04000 	mov	r4, r0
   12ab0:	e3500035 	cmp	r0, #53, 0	; 0x35
   12ab4:	8a000007 	bhi	12ad8 <gpio_read+0x30>
   12ab8:	e1a002a4 	lsr	r0, r4, #5
   12abc:	e204401f 	and	r4, r4, #31, 0
   12ac0:	e59f3020 	ldr	r3, [pc, #32]	; 12ae8 <gpio_read+0x40>
   12ac4:	e0830100 	add	r0, r3, r0, lsl #2
   12ac8:	ebffd557 	bl	802c <GET32>
   12acc:	e1a00430 	lsr	r0, r0, r4
   12ad0:	e2000001 	and	r0, r0, #1, 0
   12ad4:	e8bd8010 	pop	{r4, pc}
   12ad8:	e1a01000 	mov	r1, r0
   12adc:	e59f0008 	ldr	r0, [pc, #8]	; 12aec <gpio_read+0x44>
   12ae0:	eb0003fe 	bl	13ae0 <gpio_panic>
   12ae4:	eafffff3 	b	12ab8 <gpio_read+0x10>
   12ae8:	20200034 	.word	0x20200034
   12aec:	000164dc 	.word	0x000164dc

00012af0 <gpio_set_pulldown>:
   12af0:	e92d4070 	push	{r4, r5, r6, lr}
   12af4:	e1a04000 	mov	r4, r0
   12af8:	e3500035 	cmp	r0, #53, 0	; 0x35
   12afc:	8a000016 	bhi	12b5c <gpio_set_pulldown+0x6c>
   12b00:	e3a01001 	mov	r1, #1, 0
   12b04:	e59f0060 	ldr	r0, [pc, #96]	; 12b6c <gpio_set_pulldown+0x7c>
   12b08:	ebffd545 	bl	8024 <PUT32>
   12b0c:	e1a032a4 	lsr	r3, r4, #5
   12b10:	e59f5058 	ldr	r5, [pc, #88]	; 12b70 <gpio_set_pulldown+0x80>
   12b14:	e0855103 	add	r5, r5, r3, lsl #2
   12b18:	e204401f 	and	r4, r4, #31, 0
   12b1c:	e3a00096 	mov	r0, #150, 0	; 0x96
   12b20:	eb0003e0 	bl	13aa8 <delay_cycles>
   12b24:	e1a00005 	mov	r0, r5
   12b28:	ebffd53f 	bl	802c <GET32>
   12b2c:	e1a06000 	mov	r6, r0
   12b30:	e3a00001 	mov	r0, #1, 0
   12b34:	e1a04410 	lsl	r4, r0, r4
   12b38:	e1841006 	orr	r1, r4, r6
   12b3c:	e1a00005 	mov	r0, r5
   12b40:	ebffd537 	bl	8024 <PUT32>
   12b44:	e3a00096 	mov	r0, #150, 0	; 0x96
   12b48:	eb0003d6 	bl	13aa8 <delay_cycles>
   12b4c:	e1c61004 	bic	r1, r6, r4
   12b50:	e1a00005 	mov	r0, r5
   12b54:	ebffd532 	bl	8024 <PUT32>
   12b58:	e8bd8070 	pop	{r4, r5, r6, pc}
   12b5c:	e1a01000 	mov	r1, r0
   12b60:	e59f000c 	ldr	r0, [pc, #12]	; 12b74 <gpio_set_pulldown+0x84>
   12b64:	eb0003dd 	bl	13ae0 <gpio_panic>
   12b68:	eaffffe4 	b	12b00 <gpio_set_pulldown+0x10>
   12b6c:	20200094 	.word	0x20200094
   12b70:	20200098 	.word	0x20200098
   12b74:	000164dc 	.word	0x000164dc

00012b78 <gpio_set_pullup>:
   12b78:	e92d4070 	push	{r4, r5, r6, lr}
   12b7c:	e1a04000 	mov	r4, r0
   12b80:	e3500035 	cmp	r0, #53, 0	; 0x35
   12b84:	8a000016 	bhi	12be4 <gpio_set_pullup+0x6c>
   12b88:	e3a01002 	mov	r1, #2, 0
   12b8c:	e59f0060 	ldr	r0, [pc, #96]	; 12bf4 <gpio_set_pullup+0x7c>
   12b90:	ebffd523 	bl	8024 <PUT32>
   12b94:	e1a032a4 	lsr	r3, r4, #5
   12b98:	e59f5058 	ldr	r5, [pc, #88]	; 12bf8 <gpio_set_pullup+0x80>
   12b9c:	e0855103 	add	r5, r5, r3, lsl #2
   12ba0:	e204401f 	and	r4, r4, #31, 0
   12ba4:	e3a00096 	mov	r0, #150, 0	; 0x96
   12ba8:	eb0003be 	bl	13aa8 <delay_cycles>
   12bac:	e1a00005 	mov	r0, r5
   12bb0:	ebffd51d 	bl	802c <GET32>
   12bb4:	e1a06000 	mov	r6, r0
   12bb8:	e3a00001 	mov	r0, #1, 0
   12bbc:	e1a04410 	lsl	r4, r0, r4
   12bc0:	e1841006 	orr	r1, r4, r6
   12bc4:	e1a00005 	mov	r0, r5
   12bc8:	ebffd515 	bl	8024 <PUT32>
   12bcc:	e3a00096 	mov	r0, #150, 0	; 0x96
   12bd0:	eb0003b4 	bl	13aa8 <delay_cycles>
   12bd4:	e1c61004 	bic	r1, r6, r4
   12bd8:	e1a00005 	mov	r0, r5
   12bdc:	ebffd510 	bl	8024 <PUT32>
   12be0:	e8bd8070 	pop	{r4, r5, r6, pc}
   12be4:	e1a01000 	mov	r1, r0
   12be8:	e59f000c 	ldr	r0, [pc, #12]	; 12bfc <gpio_set_pullup+0x84>
   12bec:	eb0003bb 	bl	13ae0 <gpio_panic>
   12bf0:	eaffffe4 	b	12b88 <gpio_set_pullup+0x10>
   12bf4:	20200094 	.word	0x20200094
   12bf8:	20200098 	.word	0x20200098
   12bfc:	000164dc 	.word	0x000164dc

00012c00 <gpio_set_function>:
   12c00:	e92d4070 	push	{r4, r5, r6, lr}
   12c04:	e1a04000 	mov	r4, r0
   12c08:	e1a05001 	mov	r5, r1
   12c0c:	e3500035 	cmp	r0, #53, 0	; 0x35
   12c10:	8a000012 	bhi	12c60 <gpio_set_function+0x60>
   12c14:	e3d53007 	bics	r3, r5, #7, 0
   12c18:	1a000014 	bne	12c70 <gpio_set_function+0x70>
   12c1c:	e59f305c 	ldr	r3, [pc, #92]	; 12c80 <gpio_set_function+0x80>
   12c20:	e0832493 	umull	r2, r3, r3, r4
   12c24:	e1a031a3 	lsr	r3, r3, #3
   12c28:	e1a06103 	lsl	r6, r3, #2
   12c2c:	e0833103 	add	r3, r3, r3, lsl #2
   12c30:	e0444083 	sub	r4, r4, r3, lsl #1
   12c34:	e2866202 	add	r6, r6, #536870912	; 0x20000000
   12c38:	e2866602 	add	r6, r6, #2097152	; 0x200000
   12c3c:	e1a00006 	mov	r0, r6
   12c40:	ebffd4f9 	bl	802c <GET32>
   12c44:	e0844084 	add	r4, r4, r4, lsl #1
   12c48:	e3a01007 	mov	r1, #7, 0
   12c4c:	e1c01411 	bic	r1, r0, r1, lsl r4
   12c50:	e1811415 	orr	r1, r1, r5, lsl r4
   12c54:	e1a00006 	mov	r0, r6
   12c58:	ebffd4f1 	bl	8024 <PUT32>
   12c5c:	e8bd8070 	pop	{r4, r5, r6, pc}
   12c60:	e1a01000 	mov	r1, r0
   12c64:	e59f0018 	ldr	r0, [pc, #24]	; 12c84 <gpio_set_function+0x84>
   12c68:	eb00039c 	bl	13ae0 <gpio_panic>
   12c6c:	eaffffe8 	b	12c14 <gpio_set_function+0x14>
   12c70:	e1a01005 	mov	r1, r5
   12c74:	e59f000c 	ldr	r0, [pc, #12]	; 12c88 <gpio_set_function+0x88>
   12c78:	eb000398 	bl	13ae0 <gpio_panic>
   12c7c:	eaffffe6 	b	12c1c <gpio_set_function+0x1c>
   12c80:	cccccccd 	.word	0xcccccccd
   12c84:	000164dc 	.word	0x000164dc
   12c88:	000164ec 	.word	0x000164ec

00012c8c <gpio_set_output>:
   12c8c:	e92d4010 	push	{r4, lr}
   12c90:	e3a01001 	mov	r1, #1, 0
   12c94:	ebffffd9 	bl	12c00 <gpio_set_function>
   12c98:	e8bd8010 	pop	{r4, pc}

00012c9c <gpio_set_input>:
   12c9c:	e92d4010 	push	{r4, lr}
   12ca0:	e3a01000 	mov	r1, #0, 0
   12ca4:	ebffffd5 	bl	12c00 <gpio_set_function>
   12ca8:	e8bd8010 	pop	{r4, pc}

00012cac <uart_init>:
   12cac:	e92d4010 	push	{r4, lr}
   12cb0:	eb000395 	bl	13b0c <dev_barrier>
   12cb4:	e3a01002 	mov	r1, #2, 0
   12cb8:	e3a0000e 	mov	r0, #14, 0
   12cbc:	ebffffcf 	bl	12c00 <gpio_set_function>
   12cc0:	e3a01002 	mov	r1, #2, 0
   12cc4:	e3a0000f 	mov	r0, #15, 0
   12cc8:	ebffffcc 	bl	12c00 <gpio_set_function>
   12ccc:	eb00038e 	bl	13b0c <dev_barrier>
   12cd0:	e59f4068 	ldr	r4, [pc, #104]	; 12d40 <uart_init+0x94>
   12cd4:	e1a00004 	mov	r0, r4
   12cd8:	ebffd4d3 	bl	802c <GET32>
   12cdc:	e3801001 	orr	r1, r0, #1, 0
   12ce0:	e1a00004 	mov	r0, r4
   12ce4:	ebffd4ce 	bl	8024 <PUT32>
   12ce8:	eb000387 	bl	13b0c <dev_barrier>
   12cec:	e284405c 	add	r4, r4, #92, 0	; 0x5c
   12cf0:	e3a01000 	mov	r1, #0, 0
   12cf4:	e1a00004 	mov	r0, r4
   12cf8:	ebffd4c9 	bl	8024 <PUT32>
   12cfc:	e3a01000 	mov	r1, #0, 0
   12d00:	e59f003c 	ldr	r0, [pc, #60]	; 12d44 <uart_init+0x98>
   12d04:	ebffd4c6 	bl	8024 <PUT32>
   12d08:	e3a01006 	mov	r1, #6, 0
   12d0c:	e59f0034 	ldr	r0, [pc, #52]	; 12d48 <uart_init+0x9c>
   12d10:	ebffd4c3 	bl	8024 <PUT32>
   12d14:	e3a01003 	mov	r1, #3, 0
   12d18:	e59f002c 	ldr	r0, [pc, #44]	; 12d4c <uart_init+0xa0>
   12d1c:	ebffd4c0 	bl	8024 <PUT32>
   12d20:	e3a01021 	mov	r1, #33, 0	; 0x21
   12d24:	e59f0024 	ldr	r0, [pc, #36]	; 12d50 <uart_init+0xa4>
   12d28:	ebffd4bd 	bl	8024 <PUT32>
   12d2c:	e3a01003 	mov	r1, #3, 0
   12d30:	e1a00004 	mov	r0, r4
   12d34:	ebffd4ba 	bl	8024 <PUT32>
   12d38:	eb000373 	bl	13b0c <dev_barrier>
   12d3c:	e8bd8010 	pop	{r4, pc}
   12d40:	20215004 	.word	0x20215004
   12d44:	20215044 	.word	0x20215044
   12d48:	20215048 	.word	0x20215048
   12d4c:	2021504c 	.word	0x2021504c
   12d50:	20215068 	.word	0x20215068

00012d54 <uart_has_data>:
   12d54:	e92d4010 	push	{r4, lr}
   12d58:	e59f0008 	ldr	r0, [pc, #8]	; 12d68 <uart_has_data+0x14>
   12d5c:	ebffd4b2 	bl	802c <GET32>
   12d60:	e2000001 	and	r0, r0, #1, 0
   12d64:	e8bd8010 	pop	{r4, pc}
   12d68:	20215064 	.word	0x20215064

00012d6c <uart_get8>:
   12d6c:	e92d4010 	push	{r4, lr}
   12d70:	eb000365 	bl	13b0c <dev_barrier>
   12d74:	ebfffff6 	bl	12d54 <uart_has_data>
   12d78:	e3500000 	cmp	r0, #0, 0
   12d7c:	0afffffc 	beq	12d74 <uart_get8+0x8>
   12d80:	e59f0010 	ldr	r0, [pc, #16]	; 12d98 <uart_get8+0x2c>
   12d84:	ebffd4a8 	bl	802c <GET32>
   12d88:	e6ef4070 	uxtb	r4, r0
   12d8c:	eb00035e 	bl	13b0c <dev_barrier>
   12d90:	e1a00004 	mov	r0, r4
   12d94:	e8bd8010 	pop	{r4, pc}
   12d98:	20215040 	.word	0x20215040

00012d9c <uart_can_put8>:
   12d9c:	e92d4010 	push	{r4, lr}
   12da0:	e59f0010 	ldr	r0, [pc, #16]	; 12db8 <uart_can_put8+0x1c>
   12da4:	ebffd4a0 	bl	802c <GET32>
   12da8:	e3100002 	tst	r0, #2, 0
   12dac:	13a00001 	movne	r0, #1, 0
   12db0:	03a00000 	moveq	r0, #0, 0
   12db4:	e8bd8010 	pop	{r4, pc}
   12db8:	20215064 	.word	0x20215064

00012dbc <uart_put8>:
   12dbc:	e92d4010 	push	{r4, lr}
   12dc0:	e1a04000 	mov	r4, r0
   12dc4:	eb000350 	bl	13b0c <dev_barrier>
   12dc8:	ebfffff3 	bl	12d9c <uart_can_put8>
   12dcc:	e3500000 	cmp	r0, #0, 0
   12dd0:	0afffffc 	beq	12dc8 <uart_put8+0xc>
   12dd4:	e1a01004 	mov	r1, r4
   12dd8:	e59f000c 	ldr	r0, [pc, #12]	; 12dec <uart_put8+0x30>
   12ddc:	ebffd490 	bl	8024 <PUT32>
   12de0:	eb000349 	bl	13b0c <dev_barrier>
   12de4:	e3a00001 	mov	r0, #1, 0
   12de8:	e8bd8010 	pop	{r4, pc}
   12dec:	20215040 	.word	0x20215040

00012df0 <uart_get8_async>:
   12df0:	e92d4010 	push	{r4, lr}
   12df4:	eb000344 	bl	13b0c <dev_barrier>
   12df8:	ebffffd5 	bl	12d54 <uart_has_data>
   12dfc:	e3500000 	cmp	r0, #0, 0
   12e00:	0a000002 	beq	12e10 <uart_get8_async+0x20>
   12e04:	eb000340 	bl	13b0c <dev_barrier>
   12e08:	ebffffd7 	bl	12d6c <uart_get8>
   12e0c:	e8bd8010 	pop	{r4, pc}
   12e10:	e3e00000 	mvn	r0, #0, 0
   12e14:	e8bd8010 	pop	{r4, pc}

00012e18 <uart_tx_is_empty>:
   12e18:	e92d4010 	push	{r4, lr}
   12e1c:	eb00033a 	bl	13b0c <dev_barrier>
   12e20:	e59f0010 	ldr	r0, [pc, #16]	; 12e38 <uart_tx_is_empty+0x20>
   12e24:	ebffd480 	bl	802c <GET32>
   12e28:	e2004c02 	and	r4, r0, #512	; 0x200
   12e2c:	eb000336 	bl	13b0c <dev_barrier>
   12e30:	e1a00004 	mov	r0, r4
   12e34:	e8bd8010 	pop	{r4, pc}
   12e38:	20215064 	.word	0x20215064

00012e3c <uart_flush_tx>:
   12e3c:	e92d4010 	push	{r4, lr}
   12e40:	ebfffff4 	bl	12e18 <uart_tx_is_empty>
   12e44:	e3500000 	cmp	r0, #0, 0
   12e48:	18bd8010 	popne	{r4, pc}
   12e4c:	eb000343 	bl	13b60 <rpi_wait>
   12e50:	eafffffa 	b	12e40 <uart_flush_tx+0x4>

00012e54 <uart_disable>:
   12e54:	e92d4010 	push	{r4, lr}
   12e58:	eb00032b 	bl	13b0c <dev_barrier>
   12e5c:	ebfffff6 	bl	12e3c <uart_flush_tx>
   12e60:	e3a01000 	mov	r1, #0, 0
   12e64:	e59f0028 	ldr	r0, [pc, #40]	; 12e94 <uart_disable+0x40>
   12e68:	ebffd46d 	bl	8024 <PUT32>
   12e6c:	eb000326 	bl	13b0c <dev_barrier>
   12e70:	e59f4020 	ldr	r4, [pc, #32]	; 12e98 <uart_disable+0x44>
   12e74:	e1a00004 	mov	r0, r4
   12e78:	ebffd46b 	bl	802c <GET32>
   12e7c:	e1e01f80 	mvn	r1, r0, lsl #31
   12e80:	e1e01fa1 	mvn	r1, r1, lsr #31
   12e84:	e1a00004 	mov	r0, r4
   12e88:	ebffd465 	bl	8024 <PUT32>
   12e8c:	eb00031e 	bl	13b0c <dev_barrier>
   12e90:	e8bd8010 	pop	{r4, pc}
   12e94:	20215060 	.word	0x20215060
   12e98:	20215004 	.word	0x20215004

00012e9c <gpio_has_interrupt>:
   12e9c:	e92d4010 	push	{r4, lr}
   12ea0:	eb000319 	bl	13b0c <dev_barrier>
   12ea4:	e59f0014 	ldr	r0, [pc, #20]	; 12ec0 <gpio_has_interrupt+0x24>
   12ea8:	ebffd45f 	bl	802c <GET32>
   12eac:	e1a048a0 	lsr	r4, r0, #17
   12eb0:	e2044001 	and	r4, r4, #1, 0
   12eb4:	eb000314 	bl	13b0c <dev_barrier>
   12eb8:	e1a00004 	mov	r0, r4
   12ebc:	e8bd8010 	pop	{r4, pc}
   12ec0:	2000b208 	.word	0x2000b208

00012ec4 <gpio_int_rising_edge>:
   12ec4:	e92d4030 	push	{r4, r5, lr}
   12ec8:	e24dd00c 	sub	sp, sp, #12, 0
   12ecc:	e1a04000 	mov	r4, r0
   12ed0:	e350001f 	cmp	r0, #31, 0
   12ed4:	8a000010 	bhi	12f1c <gpio_int_rising_edge+0x58>
   12ed8:	eb00030b 	bl	13b0c <dev_barrier>
   12edc:	e204401f 	and	r4, r4, #31, 0
   12ee0:	e3a00001 	mov	r0, #1, 0
   12ee4:	e1a04410 	lsl	r4, r0, r4
   12ee8:	e59f5048 	ldr	r5, [pc, #72]	; 12f38 <gpio_int_rising_edge+0x74>
   12eec:	e1a00005 	mov	r0, r5
   12ef0:	ebffd44d 	bl	802c <GET32>
   12ef4:	e1841000 	orr	r1, r4, r0
   12ef8:	e1a00005 	mov	r0, r5
   12efc:	ebffd448 	bl	8024 <PUT32>
   12f00:	eb000301 	bl	13b0c <dev_barrier>
   12f04:	e3a01802 	mov	r1, #131072	; 0x20000
   12f08:	e59f002c 	ldr	r0, [pc, #44]	; 12f3c <gpio_int_rising_edge+0x78>
   12f0c:	ebffd444 	bl	8024 <PUT32>
   12f10:	eb0002fd 	bl	13b0c <dev_barrier>
   12f14:	e28dd00c 	add	sp, sp, #12, 0
   12f18:	e8bd8030 	pop	{r4, r5, pc}
   12f1c:	e58d0000 	str	r0, [sp]
   12f20:	e3a03031 	mov	r3, #49, 0	; 0x31
   12f24:	e59f2014 	ldr	r2, [pc, #20]	; 12f40 <gpio_int_rising_edge+0x7c>
   12f28:	e59f1014 	ldr	r1, [pc, #20]	; 12f44 <gpio_int_rising_edge+0x80>
   12f2c:	e59f0014 	ldr	r0, [pc, #20]	; 12f48 <gpio_int_rising_edge+0x84>
   12f30:	eb00017e 	bl	13530 <printk>
   12f34:	eb0002c2 	bl	13a44 <clean_reboot>
   12f38:	2020004c 	.word	0x2020004c
   12f3c:	2000b214 	.word	0x2000b214
   12f40:	00016534 	.word	0x00016534
   12f44:	00016500 	.word	0x00016500
   12f48:	00016510 	.word	0x00016510

00012f4c <gpio_int_falling_edge>:
   12f4c:	e92d4030 	push	{r4, r5, lr}
   12f50:	e24dd00c 	sub	sp, sp, #12, 0
   12f54:	e1a04000 	mov	r4, r0
   12f58:	e350001f 	cmp	r0, #31, 0
   12f5c:	8a000010 	bhi	12fa4 <gpio_int_falling_edge+0x58>
   12f60:	eb0002e9 	bl	13b0c <dev_barrier>
   12f64:	e204401f 	and	r4, r4, #31, 0
   12f68:	e3a00001 	mov	r0, #1, 0
   12f6c:	e1a04410 	lsl	r4, r0, r4
   12f70:	e59f5048 	ldr	r5, [pc, #72]	; 12fc0 <gpio_int_falling_edge+0x74>
   12f74:	e1a00005 	mov	r0, r5
   12f78:	ebffd42b 	bl	802c <GET32>
   12f7c:	e1841000 	orr	r1, r4, r0
   12f80:	e1a00005 	mov	r0, r5
   12f84:	ebffd426 	bl	8024 <PUT32>
   12f88:	eb0002df 	bl	13b0c <dev_barrier>
   12f8c:	e3a01802 	mov	r1, #131072	; 0x20000
   12f90:	e59f002c 	ldr	r0, [pc, #44]	; 12fc4 <gpio_int_falling_edge+0x78>
   12f94:	ebffd422 	bl	8024 <PUT32>
   12f98:	eb0002db 	bl	13b0c <dev_barrier>
   12f9c:	e28dd00c 	add	sp, sp, #12, 0
   12fa0:	e8bd8030 	pop	{r4, r5, pc}
   12fa4:	e58d0000 	str	r0, [sp]
   12fa8:	e3a03042 	mov	r3, #66, 0	; 0x42
   12fac:	e59f2014 	ldr	r2, [pc, #20]	; 12fc8 <gpio_int_falling_edge+0x7c>
   12fb0:	e59f1014 	ldr	r1, [pc, #20]	; 12fcc <gpio_int_falling_edge+0x80>
   12fb4:	e59f0014 	ldr	r0, [pc, #20]	; 12fd0 <gpio_int_falling_edge+0x84>
   12fb8:	eb00015c 	bl	13530 <printk>
   12fbc:	eb0002a0 	bl	13a44 <clean_reboot>
   12fc0:	20200058 	.word	0x20200058
   12fc4:	2000b214 	.word	0x2000b214
   12fc8:	0001654c 	.word	0x0001654c
   12fcc:	00016500 	.word	0x00016500
   12fd0:	00016510 	.word	0x00016510

00012fd4 <gpio_event_detected>:
   12fd4:	e92d4030 	push	{r4, r5, lr}
   12fd8:	e24dd00c 	sub	sp, sp, #12, 0
   12fdc:	e1a04000 	mov	r4, r0
   12fe0:	e350001f 	cmp	r0, #31, 0
   12fe4:	8a000009 	bhi	13010 <gpio_event_detected+0x3c>
   12fe8:	eb0002c7 	bl	13b0c <dev_barrier>
   12fec:	e59f0038 	ldr	r0, [pc, #56]	; 1302c <gpio_event_detected+0x58>
   12ff0:	ebffd40d 	bl	802c <GET32>
   12ff4:	e1a05000 	mov	r5, r0
   12ff8:	eb0002c3 	bl	13b0c <dev_barrier>
   12ffc:	e204401f 	and	r4, r4, #31, 0
   13000:	e1a04435 	lsr	r4, r5, r4
   13004:	e2040001 	and	r0, r4, #1, 0
   13008:	e28dd00c 	add	sp, sp, #12, 0
   1300c:	e8bd8030 	pop	{r4, r5, pc}
   13010:	e58d0000 	str	r0, [sp]
   13014:	e3a03050 	mov	r3, #80, 0	; 0x50
   13018:	e59f2010 	ldr	r2, [pc, #16]	; 13030 <gpio_event_detected+0x5c>
   1301c:	e59f1010 	ldr	r1, [pc, #16]	; 13034 <gpio_event_detected+0x60>
   13020:	e59f0010 	ldr	r0, [pc, #16]	; 13038 <gpio_event_detected+0x64>
   13024:	eb000141 	bl	13530 <printk>
   13028:	eb000285 	bl	13a44 <clean_reboot>
   1302c:	20200040 	.word	0x20200040
   13030:	00016564 	.word	0x00016564
   13034:	00016500 	.word	0x00016500
   13038:	00016510 	.word	0x00016510

0001303c <gpio_event_clear>:
   1303c:	e92d4010 	push	{r4, lr}
   13040:	e24dd008 	sub	sp, sp, #8, 0
   13044:	e1a04000 	mov	r4, r0
   13048:	e350001f 	cmp	r0, #31, 0
   1304c:	8a000007 	bhi	13070 <gpio_event_clear+0x34>
   13050:	eb0002ad 	bl	13b0c <dev_barrier>
   13054:	e3a01001 	mov	r1, #1, 0
   13058:	e1a01411 	lsl	r1, r1, r4
   1305c:	e59f0028 	ldr	r0, [pc, #40]	; 1308c <gpio_event_clear+0x50>
   13060:	ebffd3ef 	bl	8024 <PUT32>
   13064:	eb0002a8 	bl	13b0c <dev_barrier>
   13068:	e28dd008 	add	sp, sp, #8, 0
   1306c:	e8bd8010 	pop	{r4, pc}
   13070:	e58d0000 	str	r0, [sp]
   13074:	e3a0305a 	mov	r3, #90, 0	; 0x5a
   13078:	e59f2010 	ldr	r2, [pc, #16]	; 13090 <gpio_event_clear+0x54>
   1307c:	e59f1010 	ldr	r1, [pc, #16]	; 13094 <gpio_event_clear+0x58>
   13080:	e59f0010 	ldr	r0, [pc, #16]	; 13098 <gpio_event_clear+0x5c>
   13084:	eb000129 	bl	13530 <printk>
   13088:	eb00026d 	bl	13a44 <clean_reboot>
   1308c:	20200040 	.word	0x20200040
   13090:	00016578 	.word	0x00016578
   13094:	00016500 	.word	0x00016500
   13098:	00016510 	.word	0x00016510

0001309c <gpio_int_async_rising_edge>:
   1309c:	e92d4030 	push	{r4, r5, lr}
   130a0:	e24dd00c 	sub	sp, sp, #12, 0
   130a4:	e1a04000 	mov	r4, r0
   130a8:	e350001f 	cmp	r0, #31, 0
   130ac:	8a000010 	bhi	130f4 <gpio_int_async_rising_edge+0x58>
   130b0:	eb000295 	bl	13b0c <dev_barrier>
   130b4:	e204401f 	and	r4, r4, #31, 0
   130b8:	e3a00001 	mov	r0, #1, 0
   130bc:	e1a04410 	lsl	r4, r0, r4
   130c0:	e59f5048 	ldr	r5, [pc, #72]	; 13110 <gpio_int_async_rising_edge+0x74>
   130c4:	e1a00005 	mov	r0, r5
   130c8:	ebffd3d7 	bl	802c <GET32>
   130cc:	e1841000 	orr	r1, r4, r0
   130d0:	e1a00005 	mov	r0, r5
   130d4:	ebffd3d2 	bl	8024 <PUT32>
   130d8:	eb00028b 	bl	13b0c <dev_barrier>
   130dc:	e3a01802 	mov	r1, #131072	; 0x20000
   130e0:	e59f002c 	ldr	r0, [pc, #44]	; 13114 <gpio_int_async_rising_edge+0x78>
   130e4:	ebffd3ce 	bl	8024 <PUT32>
   130e8:	eb000287 	bl	13b0c <dev_barrier>
   130ec:	e28dd00c 	add	sp, sp, #12, 0
   130f0:	e8bd8030 	pop	{r4, r5, pc}
   130f4:	e58d0000 	str	r0, [sp]
   130f8:	e3a03067 	mov	r3, #103, 0	; 0x67
   130fc:	e59f2014 	ldr	r2, [pc, #20]	; 13118 <gpio_int_async_rising_edge+0x7c>
   13100:	e59f1014 	ldr	r1, [pc, #20]	; 1311c <gpio_int_async_rising_edge+0x80>
   13104:	e59f0014 	ldr	r0, [pc, #20]	; 13120 <gpio_int_async_rising_edge+0x84>
   13108:	eb000108 	bl	13530 <printk>
   1310c:	eb00024c 	bl	13a44 <clean_reboot>
   13110:	2020004c 	.word	0x2020004c
   13114:	2000b214 	.word	0x2000b214
   13118:	0001658c 	.word	0x0001658c
   1311c:	00016500 	.word	0x00016500
   13120:	00016510 	.word	0x00016510

00013124 <gpio_int_async_falling_edge>:
   13124:	e92d4030 	push	{r4, r5, lr}
   13128:	e24dd00c 	sub	sp, sp, #12, 0
   1312c:	e1a04000 	mov	r4, r0
   13130:	e350001f 	cmp	r0, #31, 0
   13134:	8a000010 	bhi	1317c <gpio_int_async_falling_edge+0x58>
   13138:	eb000273 	bl	13b0c <dev_barrier>
   1313c:	e204401f 	and	r4, r4, #31, 0
   13140:	e3a00001 	mov	r0, #1, 0
   13144:	e1a04410 	lsl	r4, r0, r4
   13148:	e59f5048 	ldr	r5, [pc, #72]	; 13198 <gpio_int_async_falling_edge+0x74>
   1314c:	e1a00005 	mov	r0, r5
   13150:	ebffd3b5 	bl	802c <GET32>
   13154:	e1841000 	orr	r1, r4, r0
   13158:	e1a00005 	mov	r0, r5
   1315c:	ebffd3b0 	bl	8024 <PUT32>
   13160:	eb000269 	bl	13b0c <dev_barrier>
   13164:	e3a01802 	mov	r1, #131072	; 0x20000
   13168:	e59f002c 	ldr	r0, [pc, #44]	; 1319c <gpio_int_async_falling_edge+0x78>
   1316c:	ebffd3ac 	bl	8024 <PUT32>
   13170:	eb000265 	bl	13b0c <dev_barrier>
   13174:	e28dd00c 	add	sp, sp, #12, 0
   13178:	e8bd8030 	pop	{r4, r5, pc}
   1317c:	e58d0000 	str	r0, [sp]
   13180:	e3a03071 	mov	r3, #113, 0	; 0x71
   13184:	e59f2014 	ldr	r2, [pc, #20]	; 131a0 <gpio_int_async_falling_edge+0x7c>
   13188:	e59f1014 	ldr	r1, [pc, #20]	; 131a4 <gpio_int_async_falling_edge+0x80>
   1318c:	e59f0014 	ldr	r0, [pc, #20]	; 131a8 <gpio_int_async_falling_edge+0x84>
   13190:	eb0000e6 	bl	13530 <printk>
   13194:	eb00022a 	bl	13a44 <clean_reboot>
   13198:	20200088 	.word	0x20200088
   1319c:	2000b214 	.word	0x2000b214
   131a0:	000165a8 	.word	0x000165a8
   131a4:	00016500 	.word	0x00016500
   131a8:	00016510 	.word	0x00016510

000131ac <gpio_fiq_async_rising_edge>:
   131ac:	e92d4030 	push	{r4, r5, lr}
   131b0:	e24dd00c 	sub	sp, sp, #12, 0
   131b4:	e1a04000 	mov	r4, r0
   131b8:	e350001f 	cmp	r0, #31, 0
   131bc:	8a000010 	bhi	13204 <gpio_fiq_async_rising_edge+0x58>
   131c0:	eb000251 	bl	13b0c <dev_barrier>
   131c4:	e204401f 	and	r4, r4, #31, 0
   131c8:	e3a00001 	mov	r0, #1, 0
   131cc:	e1a04410 	lsl	r4, r0, r4
   131d0:	e59f5048 	ldr	r5, [pc, #72]	; 13220 <gpio_fiq_async_rising_edge+0x74>
   131d4:	e1a00005 	mov	r0, r5
   131d8:	ebffd393 	bl	802c <GET32>
   131dc:	e1841000 	orr	r1, r4, r0
   131e0:	e1a00005 	mov	r0, r5
   131e4:	ebffd38e 	bl	8024 <PUT32>
   131e8:	eb000247 	bl	13b0c <dev_barrier>
   131ec:	e3a010b1 	mov	r1, #177, 0	; 0xb1
   131f0:	e59f002c 	ldr	r0, [pc, #44]	; 13224 <gpio_fiq_async_rising_edge+0x78>
   131f4:	ebffd38a 	bl	8024 <PUT32>
   131f8:	eb000243 	bl	13b0c <dev_barrier>
   131fc:	e28dd00c 	add	sp, sp, #12, 0
   13200:	e8bd8030 	pop	{r4, r5, pc}
   13204:	e58d0000 	str	r0, [sp]
   13208:	e3a0307d 	mov	r3, #125, 0	; 0x7d
   1320c:	e59f2014 	ldr	r2, [pc, #20]	; 13228 <gpio_fiq_async_rising_edge+0x7c>
   13210:	e59f1014 	ldr	r1, [pc, #20]	; 1322c <gpio_fiq_async_rising_edge+0x80>
   13214:	e59f0014 	ldr	r0, [pc, #20]	; 13230 <gpio_fiq_async_rising_edge+0x84>
   13218:	eb0000c4 	bl	13530 <printk>
   1321c:	eb000208 	bl	13a44 <clean_reboot>
   13220:	2020004c 	.word	0x2020004c
   13224:	2000b20c 	.word	0x2000b20c
   13228:	000165c4 	.word	0x000165c4
   1322c:	00016500 	.word	0x00016500
   13230:	00016510 	.word	0x00016510

00013234 <gpio_fiq_async_falling_edge>:
   13234:	e92d4030 	push	{r4, r5, lr}
   13238:	e24dd00c 	sub	sp, sp, #12, 0
   1323c:	e1a04000 	mov	r4, r0
   13240:	e350001f 	cmp	r0, #31, 0
   13244:	8a000010 	bhi	1328c <gpio_fiq_async_falling_edge+0x58>
   13248:	eb00022f 	bl	13b0c <dev_barrier>
   1324c:	e204401f 	and	r4, r4, #31, 0
   13250:	e3a00001 	mov	r0, #1, 0
   13254:	e1a04410 	lsl	r4, r0, r4
   13258:	e59f5048 	ldr	r5, [pc, #72]	; 132a8 <gpio_fiq_async_falling_edge+0x74>
   1325c:	e1a00005 	mov	r0, r5
   13260:	ebffd371 	bl	802c <GET32>
   13264:	e1841000 	orr	r1, r4, r0
   13268:	e1a00005 	mov	r0, r5
   1326c:	ebffd36c 	bl	8024 <PUT32>
   13270:	eb000225 	bl	13b0c <dev_barrier>
   13274:	e3a010b1 	mov	r1, #177, 0	; 0xb1
   13278:	e59f002c 	ldr	r0, [pc, #44]	; 132ac <gpio_fiq_async_falling_edge+0x78>
   1327c:	ebffd368 	bl	8024 <PUT32>
   13280:	eb000221 	bl	13b0c <dev_barrier>
   13284:	e28dd00c 	add	sp, sp, #12, 0
   13288:	e8bd8030 	pop	{r4, r5, pc}
   1328c:	e58d0000 	str	r0, [sp]
   13290:	e3a03088 	mov	r3, #136, 0	; 0x88
   13294:	e59f2014 	ldr	r2, [pc, #20]	; 132b0 <gpio_fiq_async_falling_edge+0x7c>
   13298:	e59f1014 	ldr	r1, [pc, #20]	; 132b4 <gpio_fiq_async_falling_edge+0x80>
   1329c:	e59f0014 	ldr	r0, [pc, #20]	; 132b8 <gpio_fiq_async_falling_edge+0x84>
   132a0:	eb0000a2 	bl	13530 <printk>
   132a4:	eb0001e6 	bl	13a44 <clean_reboot>
   132a8:	20200088 	.word	0x20200088
   132ac:	2000b20c 	.word	0x2000b20c
   132b0:	000165e0 	.word	0x000165e0
   132b4:	00016500 	.word	0x00016500
   132b8:	00016510 	.word	0x00016510

000132bc <memcmp>:
   132bc:	e52de004 	push	{lr}		; (str lr, [sp, #-4]!)
   132c0:	e1a0e000 	mov	lr, r0
   132c4:	e3a03000 	mov	r3, #0, 0
   132c8:	e1530002 	cmp	r3, r2
   132cc:	2a000005 	bcs	132e8 <memcmp+0x2c>
   132d0:	e7dec003 	ldrb	ip, [lr, r3]
   132d4:	e7d10003 	ldrb	r0, [r1, r3]
   132d8:	e05c0000 	subs	r0, ip, r0
   132dc:	149df004 	popne	{pc}		; (ldrne pc, [sp], #4)
   132e0:	e2833001 	add	r3, r3, #1, 0
   132e4:	eafffff7 	b	132c8 <memcmp+0xc>
   132e8:	e3a00000 	mov	r0, #0, 0
   132ec:	e49df004 	pop	{pc}		; (ldr pc, [sp], #4)

000132f0 <memcpy256>:
   132f0:	e92d40f0 	push	{r4, r5, r6, r7, lr}
   132f4:	e24dd00c 	sub	sp, sp, #12, 0
   132f8:	e212401f 	ands	r4, r2, #31, 0
   132fc:	01a06000 	moveq	r6, r0
   13300:	01a07001 	moveq	r7, r1
   13304:	01a052a2 	lsreq	r5, r2, #5
   13308:	0a00000f 	beq	1334c <memcpy256+0x5c>
   1330c:	e3a03020 	mov	r3, #32, 0
   13310:	e58d3004 	str	r3, [sp, #4]
   13314:	e58d2000 	str	r2, [sp]
   13318:	e3a0300f 	mov	r3, #15, 0
   1331c:	e59f2038 	ldr	r2, [pc, #56]	; 1335c <memcpy256+0x6c>
   13320:	e59f1038 	ldr	r1, [pc, #56]	; 13360 <memcpy256+0x70>
   13324:	e59f0038 	ldr	r0, [pc, #56]	; 13364 <memcpy256+0x74>
   13328:	eb000080 	bl	13530 <printk>
   1332c:	eb0001c4 	bl	13a44 <clean_reboot>
   13330:	e086c284 	add	ip, r6, r4, lsl #5
   13334:	e087e284 	add	lr, r7, r4, lsl #5
   13338:	e8be000f 	ldm	lr!, {r0, r1, r2, r3}
   1333c:	e8ac000f 	stmia	ip!, {r0, r1, r2, r3}
   13340:	e89e000f 	ldm	lr, {r0, r1, r2, r3}
   13344:	e88c000f 	stm	ip, {r0, r1, r2, r3}
   13348:	e2844001 	add	r4, r4, #1, 0
   1334c:	e1540005 	cmp	r4, r5
   13350:	3afffff6 	bcc	13330 <memcpy256+0x40>
   13354:	e28dd00c 	add	sp, sp, #12, 0
   13358:	e8bd80f0 	pop	{r4, r5, r6, r7, pc}
   1335c:	00016648 	.word	0x00016648
   13360:	000165fc 	.word	0x000165fc
   13364:	0001660c 	.word	0x0001660c

00013368 <memcpy>:
   13368:	e3100007 	tst	r0, #7, 0
   1336c:	1a00000f 	bne	133b0 <memcpy+0x48>
   13370:	e3110007 	tst	r1, #7, 0
   13374:	1a00000d 	bne	133b0 <memcpy+0x48>
   13378:	e2123007 	ands	r3, r2, #7, 0
   1337c:	1a00000b 	bne	133b0 <memcpy+0x48>
   13380:	e1a021a2 	lsr	r2, r2, #3
   13384:	e1530002 	cmp	r3, r2
   13388:	212fff1e 	bxcs	lr
   1338c:	e92d0030 	push	{r4, r5}
   13390:	e1a0c183 	lsl	ip, r3, #3
   13394:	e18140dc 	ldrd	r4, [r1, ip]
   13398:	e18040fc 	strd	r4, [r0, ip]
   1339c:	e2833001 	add	r3, r3, #1, 0
   133a0:	e1530002 	cmp	r3, r2
   133a4:	3afffff9 	bcc	13390 <memcpy+0x28>
   133a8:	e8bd0030 	pop	{r4, r5}
   133ac:	e12fff1e 	bx	lr
   133b0:	e2103003 	ands	r3, r0, #3, 0
   133b4:	1a000011 	bne	13400 <memcpy+0x98>
   133b8:	e211c003 	ands	ip, r1, #3, 0
   133bc:	1a00000c 	bne	133f4 <memcpy+0x8c>
   133c0:	e2123003 	ands	r3, r2, #3, 0
   133c4:	1a00000f 	bne	13408 <memcpy+0xa0>
   133c8:	e1a02122 	lsr	r2, r2, #2
   133cc:	ea000002 	b	133dc <memcpy+0x74>
   133d0:	e791c103 	ldr	ip, [r1, r3, lsl #2]
   133d4:	e780c103 	str	ip, [r0, r3, lsl #2]
   133d8:	e2833001 	add	r3, r3, #1, 0
   133dc:	e1530002 	cmp	r3, r2
   133e0:	3afffffa 	bcc	133d0 <memcpy+0x68>
   133e4:	e12fff1e 	bx	lr
   133e8:	e7d1c003 	ldrb	ip, [r1, r3]
   133ec:	e7c0c003 	strb	ip, [r0, r3]
   133f0:	e2833001 	add	r3, r3, #1, 0
   133f4:	e1530002 	cmp	r3, r2
   133f8:	3afffffa 	bcc	133e8 <memcpy+0x80>
   133fc:	e12fff1e 	bx	lr
   13400:	e3a03000 	mov	r3, #0, 0
   13404:	eafffffa 	b	133f4 <memcpy+0x8c>
   13408:	e1a0300c 	mov	r3, ip
   1340c:	eafffff8 	b	133f4 <memcpy+0x8c>

00013410 <memcpy_end>:
   13410:	e12fff1e 	bx	lr

00013414 <memiszero>:
   13414:	e3a03000 	mov	r3, #0, 0
   13418:	e1530001 	cmp	r3, r1
   1341c:	2a000004 	bcs	13434 <memiszero+0x20>
   13420:	e7d02003 	ldrb	r2, [r0, r3]
   13424:	e3520000 	cmp	r2, #0, 0
   13428:	1a000003 	bne	1343c <memiszero+0x28>
   1342c:	e2833001 	add	r3, r3, #1, 0
   13430:	eafffff8 	b	13418 <memiszero+0x4>
   13434:	e3a00001 	mov	r0, #1, 0
   13438:	e12fff1e 	bx	lr
   1343c:	e3a00000 	mov	r0, #0, 0
   13440:	e12fff1e 	bx	lr

00013444 <memset>:
   13444:	e3520000 	cmp	r2, #0, 0
   13448:	012fff1e 	bxeq	lr
   1344c:	e3510000 	cmp	r1, #0, 0
   13450:	1a000007 	bne	13474 <memset+0x30>
   13454:	e3100007 	tst	r0, #7, 0
   13458:	1a000001 	bne	13464 <memset+0x20>
   1345c:	e3120007 	tst	r2, #7, 0
   13460:	0a000011 	beq	134ac <memset+0x68>
   13464:	e3100003 	tst	r0, #3, 0
   13468:	1a000001 	bne	13474 <memset+0x30>
   1346c:	e3120003 	tst	r2, #3, 0
   13470:	0a000001 	beq	1347c <memset+0x38>
   13474:	e0802002 	add	r2, r0, r2
   13478:	ea000008 	b	134a0 <memset+0x5c>
   1347c:	e1a02122 	lsr	r2, r2, #2
   13480:	ea000001 	b	1348c <memset+0x48>
   13484:	e4801004 	str	r1, [r0], #4
   13488:	e1a02003 	mov	r2, r3
   1348c:	e2423001 	sub	r3, r2, #1, 0
   13490:	e3520000 	cmp	r2, #0, 0
   13494:	1afffffa 	bne	13484 <memset+0x40>
   13498:	e12fff1e 	bx	lr
   1349c:	e4c01001 	strb	r1, [r0], #1
   134a0:	e1500002 	cmp	r0, r2
   134a4:	3afffffc 	bcc	1349c <memset+0x58>
   134a8:	e12fff1e 	bx	lr
   134ac:	e1a021a2 	lsr	r2, r2, #3
   134b0:	e2423001 	sub	r3, r2, #1, 0
   134b4:	e3520000 	cmp	r2, #0, 0
   134b8:	012fff1e 	bxeq	lr
   134bc:	e92d0030 	push	{r4, r5}
   134c0:	e1a04001 	mov	r4, r1
   134c4:	e1a05fc1 	asr	r5, r1, #31
   134c8:	e0c040f8 	strd	r4, [r0], #8
   134cc:	e1a02003 	mov	r2, r3
   134d0:	e2433001 	sub	r3, r3, #1, 0
   134d4:	e3520000 	cmp	r2, #0, 0
   134d8:	1afffff8 	bne	134c0 <memset+0x7c>
   134dc:	e8bd0030 	pop	{r4, r5}
   134e0:	e12fff1e 	bx	lr

000134e4 <our_crc32_inc>:
   134e4:	e1e02002 	mvn	r2, r2
   134e8:	e241c001 	sub	ip, r1, #1, 0
   134ec:	e3510000 	cmp	r1, #0, 0
   134f0:	0a000007 	beq	13514 <our_crc32_inc+0x30>
   134f4:	e4d03001 	ldrb	r3, [r0], #1
   134f8:	e0233002 	eor	r3, r3, r2
   134fc:	e6ef3073 	uxtb	r3, r3
   13500:	e59f1014 	ldr	r1, [pc, #20]	; 1351c <our_crc32_inc+0x38>
   13504:	e7913103 	ldr	r3, [r1, r3, lsl #2]
   13508:	e0232422 	eor	r2, r3, r2, lsr #8
   1350c:	e1a0100c 	mov	r1, ip
   13510:	eafffff4 	b	134e8 <our_crc32_inc+0x4>
   13514:	e1e00002 	mvn	r0, r2
   13518:	e12fff1e 	bx	lr
   1351c:	00016654 	.word	0x00016654

00013520 <our_crc32>:
   13520:	e92d4010 	push	{r4, lr}
   13524:	e3a02000 	mov	r2, #0, 0
   13528:	ebffffed 	bl	134e4 <our_crc32_inc>
   1352c:	e8bd8010 	pop	{r4, pc}

00013530 <printk>:
   13530:	e92d000f 	push	{r0, r1, r2, r3}
   13534:	e52de004 	push	{lr}		; (str lr, [sp, #-4]!)
   13538:	e24dd00c 	sub	sp, sp, #12, 0
   1353c:	e28d1014 	add	r1, sp, #20, 0
   13540:	e58d1004 	str	r1, [sp, #4]
   13544:	e59d0010 	ldr	r0, [sp, #16]
   13548:	eb000047 	bl	1366c <vprintk>
   1354c:	e28dd00c 	add	sp, sp, #12, 0
   13550:	e49de004 	pop	{lr}		; (ldr lr, [sp], #4)
   13554:	e28dd010 	add	sp, sp, #16, 0
   13558:	e12fff1e 	bx	lr

0001355c <emit_val>:
   1355c:	e92d4010 	push	{r4, lr}
   13560:	e24dd030 	sub	sp, sp, #48, 0	; 0x30
   13564:	e350000a 	cmp	r0, #10, 0
   13568:	0a000014 	beq	135c0 <emit_val+0x64>
   1356c:	e3500010 	cmp	r0, #16, 0
   13570:	0a000022 	beq	13600 <emit_val+0xa4>
   13574:	e3500002 	cmp	r0, #2, 0
   13578:	0a000006 	beq	13598 <emit_val+0x3c>
   1357c:	e58d0000 	str	r0, [sp]
   13580:	e3a0301b 	mov	r3, #27, 0
   13584:	e59f20c0 	ldr	r2, [pc, #192]	; 1364c <emit_val+0xf0>
   13588:	e59f10c0 	ldr	r1, [pc, #192]	; 13650 <emit_val+0xf4>
   1358c:	e59f00c0 	ldr	r0, [pc, #192]	; 13654 <emit_val+0xf8>
   13590:	ebffffe6 	bl	13530 <printk>
   13594:	eb00012a 	bl	13a44 <clean_reboot>
   13598:	e28d400c 	add	r4, sp, #12, 0
   1359c:	e2012001 	and	r2, r1, #1, 0
   135a0:	e59f00b0 	ldr	r0, [pc, #176]	; 13658 <emit_val+0xfc>
   135a4:	e7d02002 	ldrb	r2, [r0, r2]
   135a8:	e5c42000 	strb	r2, [r4]
   135ac:	e2844001 	add	r4, r4, #1, 0
   135b0:	e3510001 	cmp	r1, #1, 0
   135b4:	e1a010a1 	lsr	r1, r1, #1
   135b8:	8afffff7 	bhi	1359c <emit_val+0x40>
   135bc:	ea00001d 	b	13638 <emit_val+0xdc>
   135c0:	e28d400c 	add	r4, sp, #12, 0
   135c4:	e59f3090 	ldr	r3, [pc, #144]	; 1365c <emit_val+0x100>
   135c8:	e0832193 	umull	r2, r3, r3, r1
   135cc:	e1a031a3 	lsr	r3, r3, #3
   135d0:	e1a00003 	mov	r0, r3
   135d4:	e0833103 	add	r3, r3, r3, lsl #2
   135d8:	e0413083 	sub	r3, r1, r3, lsl #1
   135dc:	e59fc07c 	ldr	ip, [pc, #124]	; 13660 <emit_val+0x104>
   135e0:	e7dcc003 	ldrb	ip, [ip, r3]
   135e4:	e5c4c000 	strb	ip, [r4]
   135e8:	e2844001 	add	r4, r4, #1, 0
   135ec:	e1a03001 	mov	r3, r1
   135f0:	e1a01000 	mov	r1, r0
   135f4:	e3530009 	cmp	r3, #9, 0
   135f8:	8afffff1 	bhi	135c4 <emit_val+0x68>
   135fc:	ea00000d 	b	13638 <emit_val+0xdc>
   13600:	e28d400c 	add	r4, sp, #12, 0
   13604:	e201200f 	and	r2, r1, #15, 0
   13608:	e59f0054 	ldr	r0, [pc, #84]	; 13664 <emit_val+0x108>
   1360c:	e7d02002 	ldrb	r2, [r0, r2]
   13610:	e5c42000 	strb	r2, [r4]
   13614:	e2844001 	add	r4, r4, #1, 0
   13618:	e351000f 	cmp	r1, #15, 0
   1361c:	e1a01221 	lsr	r1, r1, #4
   13620:	8afffff7 	bhi	13604 <emit_val+0xa8>
   13624:	ea000003 	b	13638 <emit_val+0xdc>
   13628:	e59f3038 	ldr	r3, [pc, #56]	; 13668 <emit_val+0x10c>
   1362c:	e5933000 	ldr	r3, [r3]
   13630:	e5740001 	ldrb	r0, [r4, #-1]!
   13634:	e12fff33 	blx	r3
   13638:	e28d300c 	add	r3, sp, #12, 0
   1363c:	e1540003 	cmp	r4, r3
   13640:	8afffff8 	bhi	13628 <emit_val+0xcc>
   13644:	e28dd030 	add	sp, sp, #48, 0	; 0x30
   13648:	e8bd8010 	pop	{r4, pc}
   1364c:	00016b0c 	.word	0x00016b0c
   13650:	00016a54 	.word	0x00016a54
   13654:	00016a64 	.word	0x00016a64
   13658:	00016a88 	.word	0x00016a88
   1365c:	cccccccd 	.word	0xcccccccd
   13660:	00016a8c 	.word	0x00016a8c
   13664:	00016a98 	.word	0x00016a98
   13668:	00017760 	.word	0x00017760

0001366c <vprintk>:
   1366c:	e92d4030 	push	{r4, r5, lr}
   13670:	e24dd014 	sub	sp, sp, #20, 0
   13674:	e1a04000 	mov	r4, r0
   13678:	e58d100c 	str	r1, [sp, #12]
   1367c:	ea000003 	b	13690 <vprintk+0x24>
   13680:	e59f32b0 	ldr	r3, [pc, #688]	; 13938 <vprintk+0x2cc>
   13684:	e5933000 	ldr	r3, [r3]
   13688:	e12fff33 	blx	r3
   1368c:	e2844001 	add	r4, r4, #1, 0
   13690:	e5d40000 	ldrb	r0, [r4]
   13694:	e3500000 	cmp	r0, #0, 0
   13698:	0a0000a4 	beq	13930 <vprintk+0x2c4>
   1369c:	e3500025 	cmp	r0, #37, 0	; 0x25
   136a0:	1afffff6 	bne	13680 <vprintk+0x14>
   136a4:	e2845001 	add	r5, r4, #1, 0
   136a8:	e5d42001 	ldrb	r2, [r4, #1]
   136ac:	e2423058 	sub	r3, r2, #88, 0	; 0x58
   136b0:	e3530020 	cmp	r3, #32, 0
   136b4:	979ff103 	ldrls	pc, [pc, r3, lsl #2]
   136b8:	ea000095 	b	13914 <vprintk+0x2a8>
   136bc:	00013878 	.word	0x00013878
   136c0:	00013914 	.word	0x00013914
   136c4:	00013914 	.word	0x00013914
   136c8:	00013914 	.word	0x00013914
   136cc:	00013914 	.word	0x00013914
   136d0:	00013914 	.word	0x00013914
   136d4:	00013914 	.word	0x00013914
   136d8:	00013914 	.word	0x00013914
   136dc:	00013914 	.word	0x00013914
   136e0:	00013914 	.word	0x00013914
   136e4:	00013740 	.word	0x00013740
   136e8:	00013780 	.word	0x00013780
   136ec:	00013898 	.word	0x00013898
   136f0:	00013914 	.word	0x00013914
   136f4:	00013914 	.word	0x00013914
   136f8:	00013914 	.word	0x00013914
   136fc:	00013914 	.word	0x00013914
   13700:	00013914 	.word	0x00013914
   13704:	00013914 	.word	0x00013914
   13708:	00013914 	.word	0x00013914
   1370c:	000137a4 	.word	0x000137a4
   13710:	00013914 	.word	0x00013914
   13714:	00013914 	.word	0x00013914
   13718:	00013914 	.word	0x00013914
   1371c:	0001385c 	.word	0x0001385c
   13720:	00013914 	.word	0x00013914
   13724:	00013914 	.word	0x00013914
   13728:	000138dc 	.word	0x000138dc
   1372c:	00013914 	.word	0x00013914
   13730:	00013760 	.word	0x00013760
   13734:	00013914 	.word	0x00013914
   13738:	00013914 	.word	0x00013914
   1373c:	0001385c 	.word	0x0001385c
   13740:	e59d300c 	ldr	r3, [sp, #12]
   13744:	e2832004 	add	r2, r3, #4, 0
   13748:	e58d200c 	str	r2, [sp, #12]
   1374c:	e5931000 	ldr	r1, [r3]
   13750:	e3a00002 	mov	r0, #2, 0
   13754:	ebffff80 	bl	1355c <emit_val>
   13758:	e1a04005 	mov	r4, r5
   1375c:	eaffffca 	b	1368c <vprintk+0x20>
   13760:	e59d300c 	ldr	r3, [sp, #12]
   13764:	e2832004 	add	r2, r3, #4, 0
   13768:	e58d200c 	str	r2, [sp, #12]
   1376c:	e5931000 	ldr	r1, [r3]
   13770:	e3a0000a 	mov	r0, #10, 0
   13774:	ebffff78 	bl	1355c <emit_val>
   13778:	e1a04005 	mov	r4, r5
   1377c:	eaffffc2 	b	1368c <vprintk+0x20>
   13780:	e59f31b0 	ldr	r3, [pc, #432]	; 13938 <vprintk+0x2cc>
   13784:	e5932000 	ldr	r2, [r3]
   13788:	e59d300c 	ldr	r3, [sp, #12]
   1378c:	e2831004 	add	r1, r3, #4, 0
   13790:	e58d100c 	str	r1, [sp, #12]
   13794:	e5930000 	ldr	r0, [r3]
   13798:	e12fff32 	blx	r2
   1379c:	e1a04005 	mov	r4, r5
   137a0:	eaffffb9 	b	1368c <vprintk+0x20>
   137a4:	e2842002 	add	r2, r4, #2, 0
   137a8:	e5d43002 	ldrb	r3, [r4, #2]
   137ac:	e353006c 	cmp	r3, #108, 0	; 0x6c
   137b0:	1a000018 	bne	13818 <vprintk+0x1ac>
   137b4:	e2845003 	add	r5, r4, #3, 0
   137b8:	e5d43003 	ldrb	r3, [r4, #3]
   137bc:	e3530078 	cmp	r3, #120, 0	; 0x78
   137c0:	1a00001b 	bne	13834 <vprintk+0x1c8>
   137c4:	e59f416c 	ldr	r4, [pc, #364]	; 13938 <vprintk+0x2cc>
   137c8:	e5943000 	ldr	r3, [r4]
   137cc:	e3a00030 	mov	r0, #48, 0	; 0x30
   137d0:	e12fff33 	blx	r3
   137d4:	e5943000 	ldr	r3, [r4]
   137d8:	e3a00078 	mov	r0, #120, 0	; 0x78
   137dc:	e12fff33 	blx	r3
   137e0:	e59d300c 	ldr	r3, [sp, #12]
   137e4:	e2833007 	add	r3, r3, #7, 0
   137e8:	e3c33007 	bic	r3, r3, #7, 0
   137ec:	e2832008 	add	r2, r3, #8, 0
   137f0:	e58d200c 	str	r2, [sp, #12]
   137f4:	e5934000 	ldr	r4, [r3]
   137f8:	e5931004 	ldr	r1, [r3, #4]
   137fc:	e3510000 	cmp	r1, #0, 0
   13800:	1a000012 	bne	13850 <vprintk+0x1e4>
   13804:	e1a01004 	mov	r1, r4
   13808:	e3a00010 	mov	r0, #16, 0
   1380c:	ebffff52 	bl	1355c <emit_val>
   13810:	e1a04005 	mov	r4, r5
   13814:	eaffff9c 	b	1368c <vprintk+0x20>
   13818:	e58d2000 	str	r2, [sp]
   1381c:	e3a0303b 	mov	r3, #59, 0	; 0x3b
   13820:	e59f2114 	ldr	r2, [pc, #276]	; 1393c <vprintk+0x2d0>
   13824:	e59f1114 	ldr	r1, [pc, #276]	; 13940 <vprintk+0x2d4>
   13828:	e59f0114 	ldr	r0, [pc, #276]	; 13944 <vprintk+0x2d8>
   1382c:	ebffff3f 	bl	13530 <printk>
   13830:	eb000083 	bl	13a44 <clean_reboot>
   13834:	e58d5000 	str	r5, [sp]
   13838:	e3a0303e 	mov	r3, #62, 0	; 0x3e
   1383c:	e59f20f8 	ldr	r2, [pc, #248]	; 1393c <vprintk+0x2d0>
   13840:	e59f10f8 	ldr	r1, [pc, #248]	; 13940 <vprintk+0x2d4>
   13844:	e59f00f8 	ldr	r0, [pc, #248]	; 13944 <vprintk+0x2d8>
   13848:	ebffff38 	bl	13530 <printk>
   1384c:	eb00007c 	bl	13a44 <clean_reboot>
   13850:	e3a00010 	mov	r0, #16, 0
   13854:	ebffff40 	bl	1355c <emit_val>
   13858:	eaffffe9 	b	13804 <vprintk+0x198>
   1385c:	e59f40d4 	ldr	r4, [pc, #212]	; 13938 <vprintk+0x2cc>
   13860:	e5943000 	ldr	r3, [r4]
   13864:	e3a00030 	mov	r0, #48, 0	; 0x30
   13868:	e12fff33 	blx	r3
   1386c:	e5943000 	ldr	r3, [r4]
   13870:	e3a00078 	mov	r0, #120, 0	; 0x78
   13874:	e12fff33 	blx	r3
   13878:	e59d300c 	ldr	r3, [sp, #12]
   1387c:	e2832004 	add	r2, r3, #4, 0
   13880:	e58d200c 	str	r2, [sp, #12]
   13884:	e5931000 	ldr	r1, [r3]
   13888:	e3a00010 	mov	r0, #16, 0
   1388c:	ebffff32 	bl	1355c <emit_val>
   13890:	e1a04005 	mov	r4, r5
   13894:	eaffff7c 	b	1368c <vprintk+0x20>
   13898:	e59d300c 	ldr	r3, [sp, #12]
   1389c:	e2832004 	add	r2, r3, #4, 0
   138a0:	e58d200c 	str	r2, [sp, #12]
   138a4:	e5934000 	ldr	r4, [r3]
   138a8:	e3540000 	cmp	r4, #0, 0
   138ac:	ba000004 	blt	138c4 <vprintk+0x258>
   138b0:	e1a01004 	mov	r1, r4
   138b4:	e3a0000a 	mov	r0, #10, 0
   138b8:	ebffff27 	bl	1355c <emit_val>
   138bc:	e1a04005 	mov	r4, r5
   138c0:	eaffff71 	b	1368c <vprintk+0x20>
   138c4:	e59f306c 	ldr	r3, [pc, #108]	; 13938 <vprintk+0x2cc>
   138c8:	e5933000 	ldr	r3, [r3]
   138cc:	e3a0002d 	mov	r0, #45, 0	; 0x2d
   138d0:	e12fff33 	blx	r3
   138d4:	e2644000 	rsb	r4, r4, #0, 0
   138d8:	eafffff4 	b	138b0 <vprintk+0x244>
   138dc:	e59d300c 	ldr	r3, [sp, #12]
   138e0:	e2832004 	add	r2, r3, #4, 0
   138e4:	e58d200c 	str	r2, [sp, #12]
   138e8:	e5934000 	ldr	r4, [r3]
   138ec:	e5d40000 	ldrb	r0, [r4]
   138f0:	e3500000 	cmp	r0, #0, 0
   138f4:	0a000004 	beq	1390c <vprintk+0x2a0>
   138f8:	e59f3038 	ldr	r3, [pc, #56]	; 13938 <vprintk+0x2cc>
   138fc:	e5933000 	ldr	r3, [r3]
   13900:	e12fff33 	blx	r3
   13904:	e2844001 	add	r4, r4, #1, 0
   13908:	eafffff7 	b	138ec <vprintk+0x280>
   1390c:	e1a04005 	mov	r4, r5
   13910:	eaffff5d 	b	1368c <vprintk+0x20>
   13914:	e58d2000 	str	r2, [sp]
   13918:	e3a03063 	mov	r3, #99, 0	; 0x63
   1391c:	e59f2018 	ldr	r2, [pc, #24]	; 1393c <vprintk+0x2d0>
   13920:	e59f1018 	ldr	r1, [pc, #24]	; 13940 <vprintk+0x2d4>
   13924:	e59f001c 	ldr	r0, [pc, #28]	; 13948 <vprintk+0x2dc>
   13928:	ebffff00 	bl	13530 <printk>
   1392c:	eb000044 	bl	13a44 <clean_reboot>
   13930:	e28dd014 	add	sp, sp, #20, 0
   13934:	e8bd8030 	pop	{r4, r5, pc}
   13938:	00017760 	.word	0x00017760
   1393c:	00016b18 	.word	0x00016b18
   13940:	00016a54 	.word	0x00016a54
   13944:	00016aac 	.word	0x00016aac
   13948:	00016ae4 	.word	0x00016ae4

0001394c <default_putchar>:
   1394c:	e92d4010 	push	{r4, lr}
   13950:	e1a04000 	mov	r4, r0
   13954:	e6ef0070 	uxtb	r0, r0
   13958:	ebfffd17 	bl	12dbc <uart_put8>
   1395c:	e1a00004 	mov	r0, r4
   13960:	e8bd8010 	pop	{r4, pc}

00013964 <rpi_putchar_set>:
   13964:	e59f300c 	ldr	r3, [pc, #12]	; 13978 <rpi_putchar_set+0x14>
   13968:	e5932000 	ldr	r2, [r3]
   1396c:	e5830000 	str	r0, [r3]
   13970:	e1a00002 	mov	r0, r2
   13974:	e12fff1e 	bx	lr
   13978:	00017760 	.word	0x00017760

0001397c <strcat>:
   1397c:	e1a02000 	mov	r2, r0
   13980:	e1a03002 	mov	r3, r2
   13984:	e2822001 	add	r2, r2, #1, 0
   13988:	e5d3c000 	ldrb	ip, [r3]
   1398c:	e35c0000 	cmp	ip, #0, 0
   13990:	1afffffa 	bne	13980 <strcat+0x4>
   13994:	e2433001 	sub	r3, r3, #1, 0
   13998:	e5d12000 	ldrb	r2, [r1]
   1399c:	e2811001 	add	r1, r1, #1, 0
   139a0:	e5e32001 	strb	r2, [r3, #1]!
   139a4:	e3520000 	cmp	r2, #0, 0
   139a8:	1afffffa 	bne	13998 <strcat+0x1c>
   139ac:	e12fff1e 	bx	lr

000139b0 <strcmp>:
   139b0:	e5d03000 	ldrb	r3, [r0]
   139b4:	e3530000 	cmp	r3, #0, 0
   139b8:	0a000004 	beq	139d0 <strcmp+0x20>
   139bc:	e5d12000 	ldrb	r2, [r1]
   139c0:	e1530002 	cmp	r3, r2
   139c4:	02800001 	addeq	r0, r0, #1, 0
   139c8:	02811001 	addeq	r1, r1, #1, 0
   139cc:	0afffff7 	beq	139b0 <strcmp>
   139d0:	e5d10000 	ldrb	r0, [r1]
   139d4:	e0430000 	sub	r0, r3, r0
   139d8:	e12fff1e 	bx	lr

000139dc <strcpy>:
   139dc:	e1a0c000 	mov	ip, r0
   139e0:	e5d12000 	ldrb	r2, [r1]
   139e4:	e2811001 	add	r1, r1, #1, 0
   139e8:	e5cc2000 	strb	r2, [ip]
   139ec:	e28cc001 	add	ip, ip, #1, 0
   139f0:	e3520000 	cmp	r2, #0, 0
   139f4:	1afffff9 	bne	139e0 <strcpy+0x4>
   139f8:	e12fff1e 	bx	lr

000139fc <strlen>:
   139fc:	e1a02000 	mov	r2, r0
   13a00:	e3a00000 	mov	r0, #0, 0
   13a04:	e7d23000 	ldrb	r3, [r2, r0]
   13a08:	e3530000 	cmp	r3, #0, 0
   13a0c:	012fff1e 	bxeq	lr
   13a10:	e2800001 	add	r0, r0, #1, 0
   13a14:	eafffffa 	b	13a04 <strlen+0x8>

00013a18 <strncmp>:
   13a18:	e3520000 	cmp	r2, #0, 0
   13a1c:	e2422001 	sub	r2, r2, #1, 0
   13a20:	0a000005 	beq	13a3c <strncmp+0x24>
   13a24:	e4d03001 	ldrb	r3, [r0], #1
   13a28:	e4d1c001 	ldrb	ip, [r1], #1
   13a2c:	e153000c 	cmp	r3, ip
   13a30:	0afffff8 	beq	13a18 <strncmp>
   13a34:	e043000c 	sub	r0, r3, ip
   13a38:	e12fff1e 	bx	lr
   13a3c:	e3a00000 	mov	r0, #0, 0
   13a40:	e12fff1e 	bx	lr

00013a44 <clean_reboot>:
   13a44:	e92d4010 	push	{r4, lr}
   13a48:	e59f0010 	ldr	r0, [pc, #16]	; 13a60 <clean_reboot+0x1c>
   13a4c:	eb000096 	bl	13cac <putk>
   13a50:	ebfffcf9 	bl	12e3c <uart_flush_tx>
   13a54:	e3a0000a 	mov	r0, #10, 0
   13a58:	eb000056 	bl	13bb8 <delay_ms>
   13a5c:	eb000030 	bl	13b24 <rpi_reboot>
   13a60:	00016b20 	.word	0x00016b20

00013a64 <program_end>:
   13a64:	e59f0000 	ldr	r0, [pc]	; 13a6c <program_end+0x8>
   13a68:	e12fff1e 	bx	lr
   13a6c:	00017cc8 	.word	0x00017cc8

00013a70 <_cstart>:
   13a70:	e92d4010 	push	{r4, lr}
   13a74:	e59f3024 	ldr	r3, [pc, #36]	; 13aa0 <_cstart+0x30>
   13a78:	e59f2024 	ldr	r2, [pc, #36]	; 13aa4 <_cstart+0x34>
   13a7c:	e1530002 	cmp	r3, r2
   13a80:	33a02000 	movcc	r2, #0, 0
   13a84:	34c32001 	strbcc	r2, [r3], #1
   13a88:	3afffffa 	bcc	13a78 <_cstart+0x8>
   13a8c:	ebfffc86 	bl	12cac <uart_init>
   13a90:	e3a03001 	mov	r3, #1, 0
   13a94:	ee0f3f1c 	mcr	15, 0, r3, cr15, cr12, {0}
   13a98:	ebffd1d8 	bl	8200 <notmain>
   13a9c:	ebffffe8 	bl	13a44 <clean_reboot>
   13aa0:	00017768 	.word	0x00017768
   13aa4:	00017cc8 	.word	0x00017cc8

00013aa8 <delay_cycles>:
   13aa8:	e2403001 	sub	r3, r0, #1, 0
   13aac:	e3500000 	cmp	r0, #0, 0
   13ab0:	012fff1e 	bxeq	lr
   13ab4:	e2811000 	add	r1, r1, #0, 0
   13ab8:	e1a00003 	mov	r0, r3
   13abc:	eafffff9 	b	13aa8 <delay_cycles>

00013ac0 <enable_interrupts>:
   13ac0:	e10f0000 	mrs	r0, CPSR
   13ac4:	e3c00080 	bic	r0, r0, #128, 0	; 0x80
   13ac8:	e121f000 	msr	CPSR_c, r0
   13acc:	e12fff1e 	bx	lr

00013ad0 <disable_interrupts>:
   13ad0:	e10f0000 	mrs	r0, CPSR
   13ad4:	e3800080 	orr	r0, r0, #128, 0	; 0x80
   13ad8:	e121f000 	msr	CPSR_c, r0
   13adc:	e12fff1e 	bx	lr

00013ae0 <gpio_panic>:
   13ae0:	e92d000f 	push	{r0, r1, r2, r3}
   13ae4:	e92d4010 	push	{r4, lr}
   13ae8:	e3a03005 	mov	r3, #5, 0
   13aec:	e59f200c 	ldr	r2, [pc, #12]	; 13b00 <gpio_panic+0x20>
   13af0:	e59f100c 	ldr	r1, [pc, #12]	; 13b04 <gpio_panic+0x24>
   13af4:	e59f000c 	ldr	r0, [pc, #12]	; 13b08 <gpio_panic+0x28>
   13af8:	ebfffe8c 	bl	13530 <printk>
   13afc:	ebffffd0 	bl	13a44 <clean_reboot>
   13b00:	00016b6c 	.word	0x00016b6c
   13b04:	00016b2c 	.word	0x00016b2c
   13b08:	00016b48 	.word	0x00016b48

00013b0c <dev_barrier>:
   13b0c:	ea000002 	b	13b1c <dsb>

00013b10 <dmb>:
   13b10:	e3a00000 	mov	r0, #0, 0
   13b14:	ee070fba 	mcr	15, 0, r0, cr7, cr10, {5}
   13b18:	e12fff1e 	bx	lr

00013b1c <dsb>:
   13b1c:	ee070f9a 	mcr	15, 0, r0, cr7, cr10, {4}
   13b20:	e12fff1e 	bx	lr

00013b24 <rpi_reboot>:
   13b24:	e92d4010 	push	{r4, lr}
   13b28:	ebfffcc3 	bl	12e3c <uart_flush_tx>
   13b2c:	e3a0000a 	mov	r0, #10, 0
   13b30:	eb000020 	bl	13bb8 <delay_ms>
   13b34:	e59f1014 	ldr	r1, [pc, #20]	; 13b50 <rpi_reboot+0x2c>
   13b38:	e59f0014 	ldr	r0, [pc, #20]	; 13b54 <rpi_reboot+0x30>
   13b3c:	ebffd138 	bl	8024 <PUT32>
   13b40:	e59f1010 	ldr	r1, [pc, #16]	; 13b58 <rpi_reboot+0x34>
   13b44:	e59f0010 	ldr	r0, [pc, #16]	; 13b5c <rpi_reboot+0x38>
   13b48:	ebffd135 	bl	8024 <PUT32>
   13b4c:	eafffffe 	b	13b4c <rpi_reboot+0x28>
   13b50:	5a000001 	.word	0x5a000001
   13b54:	20100024 	.word	0x20100024
   13b58:	5a000020 	.word	0x5a000020
   13b5c:	2010001c 	.word	0x2010001c

00013b60 <rpi_wait>:
   13b60:	e12fff1e 	bx	lr

00013b64 <timer_get_usec_raw>:
   13b64:	e92d4010 	push	{r4, lr}
   13b68:	e59f0004 	ldr	r0, [pc, #4]	; 13b74 <timer_get_usec_raw+0x10>
   13b6c:	ebffd12e 	bl	802c <GET32>
   13b70:	e8bd8010 	pop	{r4, pc}
   13b74:	20003004 	.word	0x20003004

00013b78 <timer_get_usec>:
   13b78:	e92d4010 	push	{r4, lr}
   13b7c:	ebffffe2 	bl	13b0c <dev_barrier>
   13b80:	ebfffff7 	bl	13b64 <timer_get_usec_raw>
   13b84:	e1a04000 	mov	r4, r0
   13b88:	ebffffdf 	bl	13b0c <dev_barrier>
   13b8c:	e1a00004 	mov	r0, r4
   13b90:	e8bd8010 	pop	{r4, pc}

00013b94 <delay_us>:
   13b94:	e92d4070 	push	{r4, r5, r6, lr}
   13b98:	e1a05000 	mov	r5, r0
   13b9c:	ebfffff5 	bl	13b78 <timer_get_usec>
   13ba0:	e1a04000 	mov	r4, r0
   13ba4:	ebfffff3 	bl	13b78 <timer_get_usec>
   13ba8:	e0400004 	sub	r0, r0, r4
   13bac:	e1500005 	cmp	r0, r5
   13bb0:	3afffffb 	bcc	13ba4 <delay_us+0x10>
   13bb4:	e8bd8070 	pop	{r4, r5, r6, pc}

00013bb8 <delay_ms>:
   13bb8:	e92d4010 	push	{r4, lr}
   13bbc:	e0603280 	rsb	r3, r0, r0, lsl #5
   13bc0:	e0800103 	add	r0, r0, r3, lsl #2
   13bc4:	e1a00180 	lsl	r0, r0, #3
   13bc8:	ebfffff1 	bl	13b94 <delay_us>
   13bcc:	e8bd8010 	pop	{r4, pc}

00013bd0 <delay_sec>:
   13bd0:	e92d4010 	push	{r4, lr}
   13bd4:	e0603280 	rsb	r3, r0, r0, lsl #5
   13bd8:	e0800103 	add	r0, r0, r3, lsl #2
   13bdc:	e1a00180 	lsl	r0, r0, #3
   13be0:	ebfffff4 	bl	13bb8 <delay_ms>
   13be4:	e8bd8010 	pop	{r4, pc}

00013be8 <unhandled_reset>:
   13be8:	e24ee004 	sub	lr, lr, #4, 0
   13bec:	e3a0d409 	mov	sp, #150994944	; 0x9000000
   13bf0:	e92d5fff 	push	{r0, r1, r2, r3, r4, r5, r6, r7, r8, r9, sl, fp, ip, lr}
   13bf4:	e1a0000e 	mov	r0, lr
   13bf8:	eb000074 	bl	13dd0 <reset_vector>
   13bfc:	e8bd5fff 	pop	{r0, r1, r2, r3, r4, r5, r6, r7, r8, r9, sl, fp, ip, lr}
   13c00:	e1b0f00e 	movs	pc, lr

00013c04 <unhandled_undefined_instruction>:
   13c04:	e24ee004 	sub	lr, lr, #4, 0
   13c08:	e3a0d409 	mov	sp, #150994944	; 0x9000000
   13c0c:	e92d5fff 	push	{r0, r1, r2, r3, r4, r5, r6, r7, r8, r9, sl, fp, ip, lr}
   13c10:	e1a0000e 	mov	r0, lr
   13c14:	eb000085 	bl	13e30 <undefined_instruction_vector>
   13c18:	e8bd5fff 	pop	{r0, r1, r2, r3, r4, r5, r6, r7, r8, r9, sl, fp, ip, lr}
   13c1c:	e1b0f00e 	movs	pc, lr

00013c20 <unhandled_prefetch_abort>:
   13c20:	e24ee004 	sub	lr, lr, #4, 0
   13c24:	e3a0d409 	mov	sp, #150994944	; 0x9000000
   13c28:	e92d5fff 	push	{r0, r1, r2, r3, r4, r5, r6, r7, r8, r9, sl, fp, ip, lr}
   13c2c:	e1a0000e 	mov	r0, lr
   13c30:	eb00005a 	bl	13da0 <prefetch_abort_vector>
   13c34:	e8bd5fff 	pop	{r0, r1, r2, r3, r4, r5, r6, r7, r8, r9, sl, fp, ip, lr}
   13c38:	e1b0f00e 	movs	pc, lr

00013c3c <unhandled_data_abort>:
   13c3c:	e24ee008 	sub	lr, lr, #8, 0
   13c40:	e3a0d409 	mov	sp, #150994944	; 0x9000000
   13c44:	e92d5fff 	push	{r0, r1, r2, r3, r4, r5, r6, r7, r8, r9, sl, fp, ip, lr}
   13c48:	e1a0000e 	mov	r0, lr
   13c4c:	eb000023 	bl	13ce0 <data_abort_vector>
   13c50:	e8bd5fff 	pop	{r0, r1, r2, r3, r4, r5, r6, r7, r8, r9, sl, fp, ip, lr}
   13c54:	e1b0f00e 	movs	pc, lr

00013c58 <unhandled_interrupt>:
   13c58:	e24ee004 	sub	lr, lr, #4, 0
   13c5c:	e3a0d409 	mov	sp, #150994944	; 0x9000000
   13c60:	e92d5fff 	push	{r0, r1, r2, r3, r4, r5, r6, r7, r8, r9, sl, fp, ip, lr}
   13c64:	e1a0000e 	mov	r0, lr
   13c68:	eb000040 	bl	13d70 <int_vector>
   13c6c:	e8bd5fff 	pop	{r0, r1, r2, r3, r4, r5, r6, r7, r8, r9, sl, fp, ip, lr}
   13c70:	e1b0f00e 	movs	pc, lr

00013c74 <unhandled_swi>:
   13c74:	e24ee004 	sub	lr, lr, #4, 0
   13c78:	e3a0d409 	mov	sp, #150994944	; 0x9000000
   13c7c:	e92d5fff 	push	{r0, r1, r2, r3, r4, r5, r6, r7, r8, r9, sl, fp, ip, lr}
   13c80:	e1a0000e 	mov	r0, lr
   13c84:	eb00005d 	bl	13e00 <syscall_vector>
   13c88:	e8bd5fff 	pop	{r0, r1, r2, r3, r4, r5, r6, r7, r8, r9, sl, fp, ip, lr}
   13c8c:	e1b0f00e 	movs	pc, lr

00013c90 <unhandled_fiq>:
   13c90:	e24ee004 	sub	lr, lr, #4, 0
   13c94:	e3a0d409 	mov	sp, #150994944	; 0x9000000
   13c98:	e92d5fff 	push	{r0, r1, r2, r3, r4, r5, r6, r7, r8, r9, sl, fp, ip, lr}
   13c9c:	e1a0000e 	mov	r0, lr
   13ca0:	eb000026 	bl	13d40 <fiq_vector>
   13ca4:	e8bd5fff 	pop	{r0, r1, r2, r3, r4, r5, r6, r7, r8, r9, sl, fp, ip, lr}
   13ca8:	e1b0f00e 	movs	pc, lr

00013cac <putk>:
   13cac:	e92d4010 	push	{r4, lr}
   13cb0:	e1a04000 	mov	r4, r0
   13cb4:	e5d40000 	ldrb	r0, [r4]
   13cb8:	e3500000 	cmp	r0, #0, 0
   13cbc:	0a000004 	beq	13cd4 <putk+0x28>
   13cc0:	e59f3014 	ldr	r3, [pc, #20]	; 13cdc <putk+0x30>
   13cc4:	e5933000 	ldr	r3, [r3]
   13cc8:	e12fff33 	blx	r3
   13ccc:	e2844001 	add	r4, r4, #1, 0
   13cd0:	eafffff7 	b	13cb4 <putk+0x8>
   13cd4:	e3a00001 	mov	r0, #1, 0
   13cd8:	e8bd8010 	pop	{r4, pc}
   13cdc:	00017760 	.word	0x00017760

00013ce0 <data_abort_vector>:
   13ce0:	e52de004 	push	{lr}		; (str lr, [sp, #-4]!)
   13ce4:	e24dd00c 	sub	sp, sp, #12, 0
   13ce8:	e58d0000 	str	r0, [sp]
   13cec:	e3a03003 	mov	r3, #3, 0
   13cf0:	e59f200c 	ldr	r2, [pc, #12]	; 13d04 <data_abort_vector+0x24>
   13cf4:	e59f100c 	ldr	r1, [pc, #12]	; 13d08 <data_abort_vector+0x28>
   13cf8:	e59f000c 	ldr	r0, [pc, #12]	; 13d0c <data_abort_vector+0x2c>
   13cfc:	ebfffe0b 	bl	13530 <printk>
   13d00:	ebffff4f 	bl	13a44 <clean_reboot>
   13d04:	00016bd4 	.word	0x00016bd4
   13d08:	00016b78 	.word	0x00016b78
   13d0c:	00016ba4 	.word	0x00016ba4

00013d10 <fast_interrupt_vector>:
   13d10:	e52de004 	push	{lr}		; (str lr, [sp, #-4]!)
   13d14:	e24dd00c 	sub	sp, sp, #12, 0
   13d18:	e58d0000 	str	r0, [sp]
   13d1c:	e3a03003 	mov	r3, #3, 0
   13d20:	e59f200c 	ldr	r2, [pc, #12]	; 13d34 <fast_interrupt_vector+0x24>
   13d24:	e59f100c 	ldr	r1, [pc, #12]	; 13d38 <fast_interrupt_vector+0x28>
   13d28:	e59f000c 	ldr	r0, [pc, #12]	; 13d3c <fast_interrupt_vector+0x2c>
   13d2c:	ebfffdff 	bl	13530 <printk>
   13d30:	ebffff43 	bl	13a44 <clean_reboot>
   13d34:	00016c40 	.word	0x00016c40
   13d38:	00016be8 	.word	0x00016be8
   13d3c:	00016c0c 	.word	0x00016c0c

00013d40 <fiq_vector>:
   13d40:	e52de004 	push	{lr}		; (str lr, [sp, #-4]!)
   13d44:	e24dd00c 	sub	sp, sp, #12, 0
   13d48:	e58d0000 	str	r0, [sp]
   13d4c:	e3a03006 	mov	r3, #6, 0
   13d50:	e59f200c 	ldr	r2, [pc, #12]	; 13d64 <fiq_vector+0x24>
   13d54:	e59f100c 	ldr	r1, [pc, #12]	; 13d68 <fiq_vector+0x28>
   13d58:	e59f000c 	ldr	r0, [pc, #12]	; 13d6c <fiq_vector+0x2c>
   13d5c:	ebfffdf3 	bl	13530 <printk>
   13d60:	ebffff37 	bl	13a44 <clean_reboot>
   13d64:	00016c58 	.word	0x00016c58
   13d68:	00016be8 	.word	0x00016be8
   13d6c:	00016c0c 	.word	0x00016c0c

00013d70 <int_vector>:
   13d70:	e52de004 	push	{lr}		; (str lr, [sp, #-4]!)
   13d74:	e24dd00c 	sub	sp, sp, #12, 0
   13d78:	e58d0000 	str	r0, [sp]
   13d7c:	e3a03003 	mov	r3, #3, 0
   13d80:	e59f200c 	ldr	r2, [pc, #12]	; 13d94 <int_vector+0x24>
   13d84:	e59f100c 	ldr	r1, [pc, #12]	; 13d98 <int_vector+0x28>
   13d88:	e59f000c 	ldr	r0, [pc, #12]	; 13d9c <int_vector+0x2c>
   13d8c:	ebfffde7 	bl	13530 <printk>
   13d90:	ebffff2b 	bl	13a44 <clean_reboot>
   13d94:	00016cb4 	.word	0x00016cb4
   13d98:	00016c64 	.word	0x00016c64
   13d9c:	00016c88 	.word	0x00016c88

00013da0 <prefetch_abort_vector>:
   13da0:	e52de004 	push	{lr}		; (str lr, [sp, #-4]!)
   13da4:	e24dd00c 	sub	sp, sp, #12, 0
   13da8:	e58d0000 	str	r0, [sp]
   13dac:	e3a03003 	mov	r3, #3, 0
   13db0:	e59f200c 	ldr	r2, [pc, #12]	; 13dc4 <prefetch_abort_vector+0x24>
   13db4:	e59f100c 	ldr	r1, [pc, #12]	; 13dc8 <prefetch_abort_vector+0x28>
   13db8:	e59f000c 	ldr	r0, [pc, #12]	; 13dcc <prefetch_abort_vector+0x2c>
   13dbc:	ebfffddb 	bl	13530 <printk>
   13dc0:	ebffff1f 	bl	13a44 <clean_reboot>
   13dc4:	00016d18 	.word	0x00016d18
   13dc8:	00016cc0 	.word	0x00016cc0
   13dcc:	00016ce8 	.word	0x00016ce8

00013dd0 <reset_vector>:
   13dd0:	e52de004 	push	{lr}		; (str lr, [sp, #-4]!)
   13dd4:	e24dd00c 	sub	sp, sp, #12, 0
   13dd8:	e58d0000 	str	r0, [sp]
   13ddc:	e3a03003 	mov	r3, #3, 0
   13de0:	e59f200c 	ldr	r2, [pc, #12]	; 13df4 <reset_vector+0x24>
   13de4:	e59f100c 	ldr	r1, [pc, #12]	; 13df8 <reset_vector+0x28>
   13de8:	e59f000c 	ldr	r0, [pc, #12]	; 13dfc <reset_vector+0x2c>
   13dec:	ebfffdcf 	bl	13530 <printk>
   13df0:	ebffff13 	bl	13a44 <clean_reboot>
   13df4:	00016d88 	.word	0x00016d88
   13df8:	00016d30 	.word	0x00016d30
   13dfc:	00016d54 	.word	0x00016d54

00013e00 <syscall_vector>:
   13e00:	e52de004 	push	{lr}		; (str lr, [sp, #-4]!)
   13e04:	e24dd00c 	sub	sp, sp, #12, 0
   13e08:	e58d0000 	str	r0, [sp]
   13e0c:	e3a03003 	mov	r3, #3, 0
   13e10:	e59f200c 	ldr	r2, [pc, #12]	; 13e24 <syscall_vector+0x24>
   13e14:	e59f100c 	ldr	r1, [pc, #12]	; 13e28 <syscall_vector+0x28>
   13e18:	e59f000c 	ldr	r0, [pc, #12]	; 13e2c <syscall_vector+0x2c>
   13e1c:	ebfffdc3 	bl	13530 <printk>
   13e20:	ebffff07 	bl	13a44 <clean_reboot>
   13e24:	00016dec 	.word	0x00016dec
   13e28:	00016d98 	.word	0x00016d98
   13e2c:	00016dbc 	.word	0x00016dbc

00013e30 <undefined_instruction_vector>:
   13e30:	e52de004 	push	{lr}		; (str lr, [sp, #-4]!)
   13e34:	e24dd00c 	sub	sp, sp, #12, 0
   13e38:	e5903000 	ldr	r3, [r0]
   13e3c:	e58d3004 	str	r3, [sp, #4]
   13e40:	e58d0000 	str	r0, [sp]
   13e44:	e3a03003 	mov	r3, #3, 0
   13e48:	e59f200c 	ldr	r2, [pc, #12]	; 13e5c <undefined_instruction_vector+0x2c>
   13e4c:	e59f100c 	ldr	r1, [pc, #12]	; 13e60 <undefined_instruction_vector+0x30>
   13e50:	e59f000c 	ldr	r0, [pc, #12]	; 13e64 <undefined_instruction_vector+0x34>
   13e54:	ebfffdb5 	bl	13530 <printk>
   13e58:	ebfffef9 	bl	13a44 <clean_reboot>
   13e5c:	00016e74 	.word	0x00016e74
   13e60:	00016dfc 	.word	0x00016dfc
   13e64:	00016e2c 	.word	0x00016e2c

00013e68 <__udivsi3>:
   13e68:	e2512001 	subs	r2, r1, #1, 0
   13e6c:	012fff1e 	bxeq	lr
   13e70:	3a000036 	bcc	13f50 <__udivsi3+0xe8>
   13e74:	e1500001 	cmp	r0, r1
   13e78:	9a000022 	bls	13f08 <__udivsi3+0xa0>
   13e7c:	e1110002 	tst	r1, r2
   13e80:	0a000023 	beq	13f14 <__udivsi3+0xac>
   13e84:	e311020e 	tst	r1, #-536870912	; 0xe0000000
   13e88:	01a01181 	lsleq	r1, r1, #3
   13e8c:	03a03008 	moveq	r3, #8, 0
   13e90:	13a03001 	movne	r3, #1, 0
   13e94:	e3510201 	cmp	r1, #268435456	; 0x10000000
   13e98:	31510000 	cmpcc	r1, r0
   13e9c:	31a01201 	lslcc	r1, r1, #4
   13ea0:	31a03203 	lslcc	r3, r3, #4
   13ea4:	3afffffa 	bcc	13e94 <__udivsi3+0x2c>
   13ea8:	e3510102 	cmp	r1, #-2147483648	; 0x80000000
   13eac:	31510000 	cmpcc	r1, r0
   13eb0:	31a01081 	lslcc	r1, r1, #1
   13eb4:	31a03083 	lslcc	r3, r3, #1
   13eb8:	3afffffa 	bcc	13ea8 <__udivsi3+0x40>
   13ebc:	e3a02000 	mov	r2, #0, 0
   13ec0:	e1500001 	cmp	r0, r1
   13ec4:	20400001 	subcs	r0, r0, r1
   13ec8:	21822003 	orrcs	r2, r2, r3
   13ecc:	e15000a1 	cmp	r0, r1, lsr #1
   13ed0:	204000a1 	subcs	r0, r0, r1, lsr #1
   13ed4:	218220a3 	orrcs	r2, r2, r3, lsr #1
   13ed8:	e1500121 	cmp	r0, r1, lsr #2
   13edc:	20400121 	subcs	r0, r0, r1, lsr #2
   13ee0:	21822123 	orrcs	r2, r2, r3, lsr #2
   13ee4:	e15001a1 	cmp	r0, r1, lsr #3
   13ee8:	204001a1 	subcs	r0, r0, r1, lsr #3
   13eec:	218221a3 	orrcs	r2, r2, r3, lsr #3
   13ef0:	e3500000 	cmp	r0, #0, 0
   13ef4:	11b03223 	lsrsne	r3, r3, #4
   13ef8:	11a01221 	lsrne	r1, r1, #4
   13efc:	1affffef 	bne	13ec0 <__udivsi3+0x58>
   13f00:	e1a00002 	mov	r0, r2
   13f04:	e12fff1e 	bx	lr
   13f08:	03a00001 	moveq	r0, #1, 0
   13f0c:	13a00000 	movne	r0, #0, 0
   13f10:	e12fff1e 	bx	lr
   13f14:	e3510801 	cmp	r1, #65536	; 0x10000
   13f18:	21a01821 	lsrcs	r1, r1, #16
   13f1c:	23a02010 	movcs	r2, #16, 0
   13f20:	33a02000 	movcc	r2, #0, 0
   13f24:	e3510c01 	cmp	r1, #256	; 0x100
   13f28:	21a01421 	lsrcs	r1, r1, #8
   13f2c:	22822008 	addcs	r2, r2, #8, 0
   13f30:	e3510010 	cmp	r1, #16, 0
   13f34:	21a01221 	lsrcs	r1, r1, #4
   13f38:	22822004 	addcs	r2, r2, #4, 0
   13f3c:	e3510004 	cmp	r1, #4, 0
   13f40:	82822003 	addhi	r2, r2, #3, 0
   13f44:	908220a1 	addls	r2, r2, r1, lsr #1
   13f48:	e1a00230 	lsr	r0, r0, r2
   13f4c:	e12fff1e 	bx	lr
   13f50:	e3500000 	cmp	r0, #0, 0
   13f54:	13e00000 	mvnne	r0, #0, 0
   13f58:	ea000007 	b	13f7c <__aeabi_idiv0>

00013f5c <__aeabi_uidivmod>:
   13f5c:	e3510000 	cmp	r1, #0, 0
   13f60:	0afffffa 	beq	13f50 <__udivsi3+0xe8>
   13f64:	e92d4003 	push	{r0, r1, lr}
   13f68:	ebffffbe 	bl	13e68 <__udivsi3>
   13f6c:	e8bd4006 	pop	{r1, r2, lr}
   13f70:	e0030092 	mul	r3, r2, r0
   13f74:	e0411003 	sub	r1, r1, r3
   13f78:	e12fff1e 	bx	lr

00013f7c <__aeabi_idiv0>:
   13f7c:	e12fff1e 	bx	lr
