
objs/l1/l2/l3//tamagotchi.elf:     file format elf32-littlearm


Disassembly of section .text:

00008000 <__code_start__>:
    8000:	e3a00013 	mov	r0, #19, 0
    8004:	e3800080 	orr	r0, r0, #128, 0	; 0x80
    8008:	e129f000 	msr	CPSR_fc, r0
    800c:	e3a01000 	mov	r1, #0, 0
    8010:	ee071f95 	mcr	15, 0, r1, cr7, cr5, {4}
    8014:	e3a0d302 	mov	sp, #134217728	; 0x8000000
    8018:	e3a0b000 	mov	fp, #0, 0
    801c:	eb002b4d 	bl	12d58 <_cstart>
    8020:	eb002b79 	bl	12e0c <rpi_reboot>

00008024 <PUT32>:
    8024:	e5801000 	str	r1, [r0]
    8028:	e12fff1e 	bx	lr

0000802c <GET32>:
    802c:	e5900000 	ldr	r0, [r0]
    8030:	e12fff1e 	bx	lr

00008034 <BRANCHTO>:
    8034:	e12fff10 	bx	r0

00008038 <custom_handler>:
    8038:	e92d4070 	push	{r4, r5, r6, lr}
    803c:	eb002b87 	bl	12e60 <timer_get_usec>
    8040:	e1a06000 	mov	r6, r0
    8044:	e3a04000 	mov	r4, #0, 0
    8048:	e59f3084 	ldr	r3, [pc, #132]	; 80d4 <custom_handler+0x9c>
    804c:	e5933014 	ldr	r3, [r3, #20]
    8050:	e1540003 	cmp	r4, r3
    8054:	2a00001c 	bcs	80cc <custom_handler+0x94>
    8058:	e59f3074 	ldr	r3, [pc, #116]	; 80d4 <custom_handler+0x9c>
    805c:	e7935104 	ldr	r5, [r3, r4, lsl #2]
    8060:	e1a00005 	mov	r0, r5
    8064:	eb002891 	bl	122b0 <gpio_event_detected>
    8068:	e3500000 	cmp	r0, #0, 0
    806c:	02844001 	addeq	r4, r4, #1, 0
    8070:	0afffff4 	beq	8048 <custom_handler+0x10>
    8074:	e59f305c 	ldr	r3, [pc, #92]	; 80d8 <custom_handler+0xa0>
    8078:	e5933000 	ldr	r3, [r3]
    807c:	e0463003 	sub	r3, r6, r3
    8080:	e59f2054 	ldr	r2, [pc, #84]	; 80dc <custom_handler+0xa4>
    8084:	e1530002 	cmp	r3, r2
    8088:	9a00000b 	bls	80bc <custom_handler+0x84>
    808c:	e59f3044 	ldr	r3, [pc, #68]	; 80d8 <custom_handler+0xa0>
    8090:	e5933004 	ldr	r3, [r3, #4]
    8094:	e3530000 	cmp	r3, #0, 0
    8098:	1a000007 	bne	80bc <custom_handler+0x84>
    809c:	e59f3034 	ldr	r3, [pc, #52]	; 80d8 <custom_handler+0xa0>
    80a0:	e5836000 	str	r6, [r3]
    80a4:	e59f2028 	ldr	r2, [pc, #40]	; 80d4 <custom_handler+0x9c>
    80a8:	e7921104 	ldr	r1, [r2, r4, lsl #2]
    80ac:	e5831008 	str	r1, [r3, #8]
    80b0:	e3a01001 	mov	r1, #1, 0
    80b4:	e5831004 	str	r1, [r3, #4]
    80b8:	e5821010 	str	r1, [r2, #16]
    80bc:	e1a00005 	mov	r0, r5
    80c0:	eb002894 	bl	12318 <gpio_event_clear>
    80c4:	e3a00001 	mov	r0, #1, 0
    80c8:	e8bd8070 	pop	{r4, r5, r6, pc}
    80cc:	e3a00000 	mov	r0, #0, 0
    80d0:	e8bd8070 	pop	{r4, r5, r6, pc}
    80d4:	0019e564 	.word	0x0019e564
    80d8:	0019ee50 	.word	0x0019ee50
    80dc:	0003d08f 	.word	0x0003d08f

000080e0 <notmain>:
    80e0:	e92d4ff0 	push	{r4, r5, r6, r7, r8, r9, sl, fp, lr}
    80e4:	e28db020 	add	fp, sp, #32, 0
    80e8:	e24dd03c 	sub	sp, sp, #60, 0	; 0x3c
    80ec:	eb000e9a 	bl	bb5c <init_tama_info>
    80f0:	eb000fc8 	bl	c018 <get_last_trade_time>
    80f4:	e1a01000 	mov	r1, r0
    80f8:	e59f0e5c 	ldr	r0, [pc, #3676]	; 8f5c <notmain+0xe7c>
    80fc:	eb0029c5 	bl	12818 <printk>
    8100:	e3a02005 	mov	r2, #5, 0
    8104:	e3a01003 	mov	r1, #3, 0
    8108:	e3a00002 	mov	r0, #2, 0
    810c:	eb000935 	bl	a5e8 <i2c_init>
    8110:	e1a04000 	mov	r4, r0
    8114:	eb000b32 	bl	ade4 <rtc_init>
    8118:	e1a00004 	mov	r0, r4
    811c:	eb00089d 	bl	a398 <random_init>
    8120:	eb00279b 	bl	11f94 <uart_init>
    8124:	e3a02040 	mov	r2, #64, 0	; 0x40
    8128:	e3a01000 	mov	r1, #0, 0
    812c:	e24b003c 	sub	r0, fp, #60, 0	; 0x3c
    8130:	eb0025ad 	bl	117ec <spi_n_init>
    8134:	eb000821 	bl	a1c0 <st7735_init>
    8138:	e59f0ea0 	ldr	r0, [pc, #3744]	; 8fe0 <notmain+0xf00>
    813c:	e59f2da8 	ldr	r2, [pc, #3496]	; 8eec <notmain+0xe0c>
    8140:	e5901014 	ldr	r1, [r0, #20]
    8144:	eb000bcd 	bl	b080 <keypad_init>
    8148:	eb000fb2 	bl	c018 <get_last_trade_time>
    814c:	e59f2e88 	ldr	r2, [pc, #3720]	; 8fdc <notmain+0xefc>
    8150:	e582000c 	str	r0, [r2, #12]
    8154:	e3500000 	cmp	r0, #0, 0
    8158:	0a000025 	beq	81f4 <notmain+0x114>
    815c:	e59f0d8c 	ldr	r0, [pc, #3468]	; 8ef0 <notmain+0xe10>
    8160:	eb002b4e 	bl	12ea0 <delay_ms>
    8164:	e24b003d 	sub	r0, fp, #61, 0	; 0x3d
    8168:	eb000dfb 	bl	b95c <kalshi_get_streak>
    816c:	e1a05000 	mov	r5, r0
    8170:	e55b303d 	ldrb	r3, [fp, #-61]	; 0xffffffc3
    8174:	e353004c 	cmp	r3, #76, 0	; 0x4c
    8178:	0a000022 	beq	8208 <notmain+0x128>
    817c:	e3a00000 	mov	r0, #0, 0
    8180:	e59f3e54 	ldr	r3, [pc, #3668]	; 8fdc <notmain+0xefc>
    8184:	e5830010 	str	r0, [r3, #16]
    8188:	eb0011b0 	bl	c850 <write_loss_streak>
    818c:	e55b303d 	ldrb	r3, [fp, #-61]	; 0xffffffc3
    8190:	e3530057 	cmp	r3, #87, 0	; 0x57
    8194:	0a000022 	beq	8224 <notmain+0x144>
    8198:	e59f3e3c 	ldr	r3, [pc, #3644]	; 8fdc <notmain+0xefc>
    819c:	e5933010 	ldr	r3, [r3, #16]
    81a0:	e3530002 	cmp	r3, #2, 0
    81a4:	859f3e34 	ldrhi	r3, [pc, #3636]	; 8fe0 <notmain+0xf00>
    81a8:	83a02001 	movhi	r2, #1, 0
    81ac:	85832010 	strhi	r2, [r3, #16]
    81b0:	e1a00004 	mov	r0, r4
    81b4:	eb000acc 	bl	acec <rtc_get_total_seconds>
    81b8:	e1a05000 	mov	r5, r0
    81bc:	e1a01000 	mov	r1, r0
    81c0:	e59f0d2c 	ldr	r0, [pc, #3372]	; 8ef4 <notmain+0xe14>
    81c4:	eb002993 	bl	12818 <printk>
    81c8:	e59f3e0c 	ldr	r3, [pc, #3596]	; 8fdc <notmain+0xefc>
    81cc:	e593300c 	ldr	r3, [r3, #12]
    81d0:	e3530000 	cmp	r3, #0, 0
    81d4:	0a00001f 	beq	8258 <notmain+0x178>
    81d8:	e0455003 	sub	r5, r5, r3
    81dc:	e59f3d94 	ldr	r3, [pc, #3476]	; 8f78 <notmain+0xe98>
    81e0:	e1550003 	cmp	r5, r3
    81e4:	259f3df4 	ldrcs	r3, [pc, #3572]	; 8fe0 <notmain+0xf00>
    81e8:	23a02001 	movcs	r2, #1, 0
    81ec:	25832010 	strcs	r2, [r3, #16]
    81f0:	ea000018 	b	8258 <notmain+0x178>
    81f4:	e1a00004 	mov	r0, r4
    81f8:	eb000abb 	bl	acec <rtc_get_total_seconds>
    81fc:	e59f3dd8 	ldr	r3, [pc, #3544]	; 8fdc <notmain+0xefc>
    8200:	e583000c 	str	r0, [r3, #12]
    8204:	eaffffd4 	b	815c <notmain+0x7c>
    8208:	e3a00001 	mov	r0, #1, 0
    820c:	e59f3dc8 	ldr	r3, [pc, #3528]	; 8fdc <notmain+0xefc>
    8210:	e5830010 	str	r0, [r3, #16]
    8214:	eb00118d 	bl	c850 <write_loss_streak>
    8218:	e3a00000 	mov	r0, #0, 0
    821c:	eb001184 	bl	c834 <write_win_streak>
    8220:	eaffffdc 	b	8198 <notmain+0xb8>
    8224:	e1a00005 	mov	r0, r5
    8228:	eb001181 	bl	c834 <write_win_streak>
    822c:	eaffffd9 	b	8198 <notmain+0xb8>
    8230:	e59f3da4 	ldr	r3, [pc, #3492]	; 8fdc <notmain+0xefc>
    8234:	e5933010 	ldr	r3, [r3, #16]
    8238:	e3530002 	cmp	r3, #2, 0
    823c:	9a000014 	bls	8294 <notmain+0x1b4>
    8240:	e59f3d94 	ldr	r3, [pc, #3476]	; 8fdc <notmain+0xefc>
    8244:	e3a0200b 	mov	r2, #11, 0
    8248:	e5c32014 	strb	r2, [r3, #20]
    824c:	e59f3d8c 	ldr	r3, [pc, #3468]	; 8fe0 <notmain+0xf00>
    8250:	e3a02001 	mov	r2, #1, 0
    8254:	e5832010 	str	r2, [r3, #16]
    8258:	e59f3d7c 	ldr	r3, [pc, #3452]	; 8fdc <notmain+0xefc>
    825c:	e5d33014 	ldrb	r3, [r3, #20]
    8260:	e353000b 	cmp	r3, #11, 0
    8264:	0a00000a 	beq	8294 <notmain+0x1b4>
    8268:	e1a00004 	mov	r0, r4
    826c:	eb000a9e 	bl	acec <rtc_get_total_seconds>
    8270:	e59f3d64 	ldr	r3, [pc, #3428]	; 8fdc <notmain+0xefc>
    8274:	e593300c 	ldr	r3, [r3, #12]
    8278:	e3530000 	cmp	r3, #0, 0
    827c:	0affffeb 	beq	8230 <notmain+0x150>
    8280:	e0400003 	sub	r0, r0, r3
    8284:	e59f3cec 	ldr	r3, [pc, #3308]	; 8f78 <notmain+0xe98>
    8288:	e1500003 	cmp	r0, r3
    828c:	2affffeb 	bcs	8240 <notmain+0x160>
    8290:	eaffffe6 	b	8230 <notmain+0x150>
    8294:	e59f3d40 	ldr	r3, [pc, #3392]	; 8fdc <notmain+0xefc>
    8298:	e5d33014 	ldrb	r3, [r3, #20]
    829c:	e3530000 	cmp	r3, #0, 0
    82a0:	1a0000bb 	bne	8594 <notmain+0x4b4>
    82a4:	e59f3d34 	ldr	r3, [pc, #3380]	; 8fe0 <notmain+0xf00>
    82a8:	e5933010 	ldr	r3, [r3, #16]
    82ac:	e3530000 	cmp	r3, #0, 0
    82b0:	1a000011 	bne	82fc <notmain+0x21c>
    82b4:	e59f3d20 	ldr	r3, [pc, #3360]	; 8fdc <notmain+0xefc>
    82b8:	e5933004 	ldr	r3, [r3, #4]
    82bc:	e3530000 	cmp	r3, #0, 0
    82c0:	0a00001c 	beq	8338 <notmain+0x258>
    82c4:	e59f3d10 	ldr	r3, [pc, #3344]	; 8fdc <notmain+0xefc>
    82c8:	e3a02000 	mov	r2, #0, 0
    82cc:	e5832004 	str	r2, [r3, #4]
    82d0:	e59f2d08 	ldr	r2, [pc, #3336]	; 8fe0 <notmain+0xf00>
    82d4:	e3a01001 	mov	r1, #1, 0
    82d8:	e5821010 	str	r1, [r2, #16]
    82dc:	e5933008 	ldr	r3, [r3, #8]
    82e0:	e3530011 	cmp	r3, #17, 0
    82e4:	0a000010 	beq	832c <notmain+0x24c>
    82e8:	e3530017 	cmp	r3, #23, 0
    82ec:	059f3ce8 	ldreq	r3, [pc, #3304]	; 8fdc <notmain+0xefc>
    82f0:	03a02007 	moveq	r2, #7, 0
    82f4:	05c32014 	strbeq	r2, [r3, #20]
    82f8:	eaffffd6 	b	8258 <notmain+0x178>
    82fc:	e3a0207f 	mov	r2, #127, 0	; 0x7f
    8300:	e58d2000 	str	r2, [sp]
    8304:	e3a03000 	mov	r3, #0, 0
    8308:	e1a01003 	mov	r1, r3
    830c:	e59f0c78 	ldr	r0, [pc, #3192]	; 8f8c <notmain+0xeac>
    8310:	eb0007de 	bl	a290 <st7735_fill_window>
    8314:	e3a03000 	mov	r3, #0, 0
    8318:	e59f2cc0 	ldr	r2, [pc, #3264]	; 8fe0 <notmain+0xf00>
    831c:	e5823010 	str	r3, [r2, #16]
    8320:	e59f2cb4 	ldr	r2, [pc, #3252]	; 8fdc <notmain+0xefc>
    8324:	e5823018 	str	r3, [r2, #24]
    8328:	eaffffe1 	b	82b4 <notmain+0x1d4>
    832c:	e59f3ca8 	ldr	r3, [pc, #3240]	; 8fdc <notmain+0xefc>
    8330:	e5c31014 	strb	r1, [r3, #20]
    8334:	eaffffc7 	b	8258 <notmain+0x178>
    8338:	eb002ac8 	bl	12e60 <timer_get_usec>
    833c:	e59f3c98 	ldr	r3, [pc, #3224]	; 8fdc <notmain+0xefc>
    8340:	e593301c 	ldr	r3, [r3, #28]
    8344:	e0403003 	sub	r3, r0, r3
    8348:	e59f2ba8 	ldr	r2, [pc, #2984]	; 8ef8 <notmain+0xe18>
    834c:	e1530002 	cmp	r3, r2
    8350:	3affffc0 	bcc	8258 <notmain+0x178>
    8354:	e59f3c80 	ldr	r3, [pc, #3200]	; 8fdc <notmain+0xefc>
    8358:	e583001c 	str	r0, [r3, #28]
    835c:	e3a01004 	mov	r1, #4, 0
    8360:	e3a00001 	mov	r0, #1, 0
    8364:	eb000832 	bl	a434 <random_gen>
    8368:	e3500001 	cmp	r0, #1, 0
    836c:	1affffb9 	bne	8258 <notmain+0x178>
    8370:	e3a0100a 	mov	r1, #10, 0
    8374:	eb00082e 	bl	a434 <random_gen>
    8378:	e3500003 	cmp	r0, #3, 0
    837c:	9a00001e 	bls	83fc <notmain+0x31c>
    8380:	e3500004 	cmp	r0, #4, 0
    8384:	9a000032 	bls	8454 <notmain+0x374>
    8388:	e3500007 	cmp	r0, #7, 0
    838c:	9a00004e 	bls	84cc <notmain+0x3ec>
    8390:	e3500009 	cmp	r0, #9, 0
    8394:	8affffaf 	bhi	8258 <notmain+0x178>
    8398:	e3a06000 	mov	r6, #0, 0
    839c:	e3a01002 	mov	r1, #2, 0
    83a0:	e3a00001 	mov	r0, #1, 0
    83a4:	eb000822 	bl	a434 <random_gen>
    83a8:	e1500006 	cmp	r0, r6
    83ac:	9a000074 	bls	8584 <notmain+0x4a4>
    83b0:	e3a0507f 	mov	r5, #127, 0	; 0x7f
    83b4:	e58d5000 	str	r5, [sp]
    83b8:	e3a03000 	mov	r3, #0, 0
    83bc:	e1a02005 	mov	r2, r5
    83c0:	e1a01003 	mov	r1, r3
    83c4:	e59f0b30 	ldr	r0, [pc, #2864]	; 8efc <notmain+0xe1c>
    83c8:	eb0007b0 	bl	a290 <st7735_fill_window>
    83cc:	e3a00028 	mov	r0, #40, 0	; 0x28
    83d0:	eb002ab2 	bl	12ea0 <delay_ms>
    83d4:	e58d5000 	str	r5, [sp]
    83d8:	e3a03000 	mov	r3, #0, 0
    83dc:	e1a02005 	mov	r2, r5
    83e0:	e1a01003 	mov	r1, r3
    83e4:	e59f0ba0 	ldr	r0, [pc, #2976]	; 8f8c <notmain+0xeac>
    83e8:	eb0007a8 	bl	a290 <st7735_fill_window>
    83ec:	e3a00046 	mov	r0, #70, 0	; 0x46
    83f0:	eb002aaa 	bl	12ea0 <delay_ms>
    83f4:	e2866001 	add	r6, r6, #1, 0
    83f8:	eaffffe7 	b	839c <notmain+0x2bc>
    83fc:	e59f6afc 	ldr	r6, [pc, #2812]	; 8f00 <notmain+0xe20>
    8400:	e3a0507f 	mov	r5, #127, 0	; 0x7f
    8404:	e58d5000 	str	r5, [sp]
    8408:	e3a03000 	mov	r3, #0, 0
    840c:	e1a02005 	mov	r2, r5
    8410:	e1a01003 	mov	r1, r3
    8414:	e1a00006 	mov	r0, r6
    8418:	eb00079c 	bl	a290 <st7735_fill_window>
    841c:	e3a0007d 	mov	r0, #125, 0	; 0x7d
    8420:	eb002a9e 	bl	12ea0 <delay_ms>
    8424:	e58d5000 	str	r5, [sp]
    8428:	e3a03000 	mov	r3, #0, 0
    842c:	e1a02005 	mov	r2, r5
    8430:	e1a01003 	mov	r1, r3
    8434:	e2860902 	add	r0, r6, #32768	; 0x8000
    8438:	eb000794 	bl	a290 <st7735_fill_window>
    843c:	e3a0007d 	mov	r0, #125, 0	; 0x7d
    8440:	eb002a96 	bl	12ea0 <delay_ms>
    8444:	e59f3b94 	ldr	r3, [pc, #2964]	; 8fe0 <notmain+0xf00>
    8448:	e3a02001 	mov	r2, #1, 0
    844c:	e5832010 	str	r2, [r3, #16]
    8450:	eaffff80 	b	8258 <notmain+0x178>
    8454:	e3a06000 	mov	r6, #0, 0
    8458:	e3a01005 	mov	r1, #5, 0
    845c:	e3a00001 	mov	r0, #1, 0
    8460:	eb0007f3 	bl	a434 <random_gen>
    8464:	e1500006 	cmp	r0, r6
    8468:	9a000013 	bls	84bc <notmain+0x3dc>
    846c:	e59f7a90 	ldr	r7, [pc, #2704]	; 8f04 <notmain+0xe24>
    8470:	e3a0507f 	mov	r5, #127, 0	; 0x7f
    8474:	e58d5000 	str	r5, [sp]
    8478:	e3a03000 	mov	r3, #0, 0
    847c:	e1a02005 	mov	r2, r5
    8480:	e1a01003 	mov	r1, r3
    8484:	e1a00007 	mov	r0, r7
    8488:	eb000780 	bl	a290 <st7735_fill_window>
    848c:	e3a0007d 	mov	r0, #125, 0	; 0x7d
    8490:	eb002a82 	bl	12ea0 <delay_ms>
    8494:	e58d5000 	str	r5, [sp]
    8498:	e3a03000 	mov	r3, #0, 0
    849c:	e1a02005 	mov	r2, r5
    84a0:	e1a01003 	mov	r1, r3
    84a4:	e2870902 	add	r0, r7, #32768	; 0x8000
    84a8:	eb000778 	bl	a290 <st7735_fill_window>
    84ac:	e3a0007d 	mov	r0, #125, 0	; 0x7d
    84b0:	eb002a7a 	bl	12ea0 <delay_ms>
    84b4:	e2866001 	add	r6, r6, #1, 0
    84b8:	eaffffe6 	b	8458 <notmain+0x378>
    84bc:	e59f3b1c 	ldr	r3, [pc, #2844]	; 8fe0 <notmain+0xf00>
    84c0:	e3a02001 	mov	r2, #1, 0
    84c4:	e5832010 	str	r2, [r3, #16]
    84c8:	eaffff62 	b	8258 <notmain+0x178>
    84cc:	e3a0207f 	mov	r2, #127, 0	; 0x7f
    84d0:	e58d2000 	str	r2, [sp]
    84d4:	e3a03000 	mov	r3, #0, 0
    84d8:	e1a01003 	mov	r1, r3
    84dc:	e59f0a24 	ldr	r0, [pc, #2596]	; 8f08 <notmain+0xe28>
    84e0:	eb00076a 	bl	a290 <st7735_fill_window>
    84e4:	e3a0007d 	mov	r0, #125, 0	; 0x7d
    84e8:	eb002a6c 	bl	12ea0 <delay_ms>
    84ec:	e3a06000 	mov	r6, #0, 0
    84f0:	ea000012 	b	8540 <notmain+0x460>
    84f4:	e59f7a10 	ldr	r7, [pc, #2576]	; 8f0c <notmain+0xe2c>
    84f8:	e3a0507f 	mov	r5, #127, 0	; 0x7f
    84fc:	e58d5000 	str	r5, [sp]
    8500:	e3a03000 	mov	r3, #0, 0
    8504:	e1a02005 	mov	r2, r5
    8508:	e1a01003 	mov	r1, r3
    850c:	e1a00007 	mov	r0, r7
    8510:	eb00075e 	bl	a290 <st7735_fill_window>
    8514:	e3a0007d 	mov	r0, #125, 0	; 0x7d
    8518:	eb002a60 	bl	12ea0 <delay_ms>
    851c:	e58d5000 	str	r5, [sp]
    8520:	e3a03000 	mov	r3, #0, 0
    8524:	e1a02005 	mov	r2, r5
    8528:	e1a01003 	mov	r1, r3
    852c:	e2870902 	add	r0, r7, #32768	; 0x8000
    8530:	eb000756 	bl	a290 <st7735_fill_window>
    8534:	e3a0007d 	mov	r0, #125, 0	; 0x7d
    8538:	eb002a58 	bl	12ea0 <delay_ms>
    853c:	e2866001 	add	r6, r6, #1, 0
    8540:	e3a01004 	mov	r1, #4, 0
    8544:	e3a00002 	mov	r0, #2, 0
    8548:	eb0007b9 	bl	a434 <random_gen>
    854c:	e1500006 	cmp	r0, r6
    8550:	8affffe7 	bhi	84f4 <notmain+0x414>
    8554:	e3a0207f 	mov	r2, #127, 0	; 0x7f
    8558:	e58d2000 	str	r2, [sp]
    855c:	e3a03000 	mov	r3, #0, 0
    8560:	e1a01003 	mov	r1, r3
    8564:	e59f099c 	ldr	r0, [pc, #2460]	; 8f08 <notmain+0xe28>
    8568:	eb000748 	bl	a290 <st7735_fill_window>
    856c:	e3a0007d 	mov	r0, #125, 0	; 0x7d
    8570:	eb002a4a 	bl	12ea0 <delay_ms>
    8574:	e59f3a64 	ldr	r3, [pc, #2660]	; 8fe0 <notmain+0xf00>
    8578:	e3a02001 	mov	r2, #1, 0
    857c:	e5832010 	str	r2, [r3, #16]
    8580:	eaffff34 	b	8258 <notmain+0x178>
    8584:	e59f3a54 	ldr	r3, [pc, #2644]	; 8fe0 <notmain+0xf00>
    8588:	e3a02001 	mov	r2, #1, 0
    858c:	e5832010 	str	r2, [r3, #16]
    8590:	eaffff30 	b	8258 <notmain+0x178>
    8594:	e3530001 	cmp	r3, #1, 0
    8598:	0a000051 	beq	86e4 <notmain+0x604>
    859c:	e3530002 	cmp	r3, #2, 0
    85a0:	0a0000c8 	beq	88c8 <notmain+0x7e8>
    85a4:	e3530003 	cmp	r3, #3, 0
    85a8:	0a0000fb 	beq	899c <notmain+0x8bc>
    85ac:	e3530004 	cmp	r3, #4, 0
    85b0:	0a000171 	beq	8b7c <notmain+0xa9c>
    85b4:	e3530005 	cmp	r3, #5, 0
    85b8:	0a000289 	beq	8fe4 <notmain+0xf04>
    85bc:	e3530006 	cmp	r3, #6, 0
    85c0:	0a00040d 	beq	95fc <notmain+0x151c>
    85c4:	e3530009 	cmp	r3, #9, 0
    85c8:	0a000515 	beq	9a24 <notmain+0x1944>
    85cc:	e3530007 	cmp	r3, #7, 0
    85d0:	0a00058f 	beq	9c14 <notmain+0x1b34>
    85d4:	e3530008 	cmp	r3, #8, 0
    85d8:	0a00059a 	beq	9c48 <notmain+0x1b68>
    85dc:	e353000b 	cmp	r3, #11, 0
    85e0:	0a000607 	beq	9e04 <notmain+0x1d24>
    85e4:	e353000a 	cmp	r3, #10, 0
    85e8:	1affff1a 	bne	8258 <notmain+0x178>
    85ec:	e59f39e8 	ldr	r3, [pc, #2536]	; 8fdc <notmain+0xefc>
    85f0:	e5933004 	ldr	r3, [r3, #4]
    85f4:	e3530000 	cmp	r3, #0, 0
    85f8:	1a00064f 	bne	9f3c <notmain+0x1e5c>
    85fc:	e59f39dc 	ldr	r3, [pc, #2524]	; 8fe0 <notmain+0xf00>
    8600:	e5933010 	ldr	r3, [r3, #16]
    8604:	e3530000 	cmp	r3, #0, 0
    8608:	0affff12 	beq	8258 <notmain+0x178>
    860c:	e3a05000 	mov	r5, #0, 0
    8610:	e59f39c8 	ldr	r3, [pc, #2504]	; 8fe0 <notmain+0xf00>
    8614:	e5835010 	str	r5, [r3, #16]
    8618:	e3a0207f 	mov	r2, #127, 0	; 0x7f
    861c:	e58d2000 	str	r2, [sp]
    8620:	e1a03005 	mov	r3, r5
    8624:	e1a01005 	mov	r1, r5
    8628:	e59f08e0 	ldr	r0, [pc, #2272]	; 8f10 <notmain+0xe30>
    862c:	eb000717 	bl	a290 <st7735_fill_window>
    8630:	eb000ee9 	bl	c1dc <get_hearts_readable>
    8634:	e59f6938 	ldr	r6, [pc, #2360]	; 8f74 <notmain+0xe94>
    8638:	e58d6000 	str	r6, [sp]
    863c:	e1a03005 	mov	r3, r5
    8640:	e3a02017 	mov	r2, #23, 0
    8644:	e3a01003 	mov	r1, #3, 0
    8648:	eb000688 	bl	a070 <draw_string>
    864c:	eb000f4c 	bl	c384 <get_balance_readable>
    8650:	e58d6000 	str	r6, [sp]
    8654:	e1a03005 	mov	r3, r5
    8658:	e3a02021 	mov	r2, #33, 0	; 0x21
    865c:	e3a01003 	mov	r1, #3, 0
    8660:	eb000682 	bl	a070 <draw_string>
    8664:	e1a00004 	mov	r0, r4
    8668:	eb000eeb 	bl	c21c <get_age_readable>
    866c:	e58d6000 	str	r6, [sp]
    8670:	e1a03005 	mov	r3, r5
    8674:	e3a0202b 	mov	r2, #43, 0	; 0x2b
    8678:	e3a01003 	mov	r1, #3, 0
    867c:	eb00067b 	bl	a070 <draw_string>
    8680:	eb000f26 	bl	c320 <get_num_trades_readable>
    8684:	e58d6000 	str	r6, [sp]
    8688:	e1a03005 	mov	r3, r5
    868c:	e3a02035 	mov	r2, #53, 0	; 0x35
    8690:	e3a01003 	mov	r1, #3, 0
    8694:	eb000675 	bl	a070 <draw_string>
    8698:	eb000f30 	bl	c360 <get_loss_streak_readable>
    869c:	e58d6000 	str	r6, [sp]
    86a0:	e1a03005 	mov	r3, r5
    86a4:	e3a0203f 	mov	r2, #63, 0	; 0x3f
    86a8:	e3a01003 	mov	r1, #3, 0
    86ac:	eb00066f 	bl	a070 <draw_string>
    86b0:	eb000f21 	bl	c33c <get_win_streak_readable>
    86b4:	e58d6000 	str	r6, [sp]
    86b8:	e1a03005 	mov	r3, r5
    86bc:	e3a02049 	mov	r2, #73, 0	; 0x49
    86c0:	e3a01003 	mov	r1, #3, 0
    86c4:	eb000669 	bl	a070 <draw_string>
    86c8:	eb000f02 	bl	c2d8 <get_level_readable>
    86cc:	e58d6000 	str	r6, [sp]
    86d0:	e1a03005 	mov	r3, r5
    86d4:	e3a02053 	mov	r2, #83, 0	; 0x53
    86d8:	e3a01003 	mov	r1, #3, 0
    86dc:	eb000663 	bl	a070 <draw_string>
    86e0:	eafffedc 	b	8258 <notmain+0x178>
    86e4:	e59f38f4 	ldr	r3, [pc, #2292]	; 8fe0 <notmain+0xf00>
    86e8:	e5933010 	ldr	r3, [r3, #16]
    86ec:	e3530000 	cmp	r3, #0, 0
    86f0:	1a000018 	bne	8758 <notmain+0x678>
    86f4:	e59f38e0 	ldr	r3, [pc, #2272]	; 8fdc <notmain+0xefc>
    86f8:	e5933004 	ldr	r3, [r3, #4]
    86fc:	e3530000 	cmp	r3, #0, 0
    8700:	0afffed4 	beq	8258 <notmain+0x178>
    8704:	e59f38d0 	ldr	r3, [pc, #2256]	; 8fdc <notmain+0xefc>
    8708:	e3a02000 	mov	r2, #0, 0
    870c:	e5832004 	str	r2, [r3, #4]
    8710:	e59f28c8 	ldr	r2, [pc, #2248]	; 8fe0 <notmain+0xf00>
    8714:	e3a01001 	mov	r1, #1, 0
    8718:	e5821010 	str	r1, [r2, #16]
    871c:	e5933008 	ldr	r3, [r3, #8]
    8720:	e3530011 	cmp	r3, #17, 0
    8724:	0a000018 	beq	878c <notmain+0x6ac>
    8728:	e3530013 	cmp	r3, #19, 0
    872c:	0a000020 	beq	87b4 <notmain+0x6d4>
    8730:	e3530015 	cmp	r3, #21, 0
    8734:	0a00005e 	beq	88b4 <notmain+0x7d4>
    8738:	e3530017 	cmp	r3, #23, 0
    873c:	1afffec5 	bne	8258 <notmain+0x178>
    8740:	e59f3894 	ldr	r3, [pc, #2196]	; 8fdc <notmain+0xefc>
    8744:	e3a02007 	mov	r2, #7, 0
    8748:	e5c32014 	strb	r2, [r3, #20]
    874c:	e3a02000 	mov	r2, #0, 0
    8750:	e5832020 	str	r2, [r3, #32]
    8754:	eafffebf 	b	8258 <notmain+0x178>
    8758:	e59f387c 	ldr	r3, [pc, #2172]	; 8fdc <notmain+0xefc>
    875c:	e593c020 	ldr	ip, [r3, #32]
    8760:	e3a0207f 	mov	r2, #127, 0	; 0x7f
    8764:	e58d2000 	str	r2, [sp]
    8768:	e3a03000 	mov	r3, #0, 0
    876c:	e1a01003 	mov	r1, r3
    8770:	e59f079c 	ldr	r0, [pc, #1948]	; 8f14 <notmain+0xe34>
    8774:	e080078c 	add	r0, r0, ip, lsl #15
    8778:	eb0006c4 	bl	a290 <st7735_fill_window>
    877c:	e59f385c 	ldr	r3, [pc, #2140]	; 8fe0 <notmain+0xf00>
    8780:	e3a02000 	mov	r2, #0, 0
    8784:	e5832010 	str	r2, [r3, #16]
    8788:	eaffffd9 	b	86f4 <notmain+0x614>
    878c:	e59f3848 	ldr	r3, [pc, #2120]	; 8fdc <notmain+0xefc>
    8790:	e5933020 	ldr	r3, [r3, #32]
    8794:	e3530006 	cmp	r3, #6, 0
    8798:	8a000003 	bhi	87ac <notmain+0x6cc>
    879c:	e0833001 	add	r3, r3, r1
    87a0:	e59f2834 	ldr	r2, [pc, #2100]	; 8fdc <notmain+0xefc>
    87a4:	e5823020 	str	r3, [r2, #32]
    87a8:	eafffeaa 	b	8258 <notmain+0x178>
    87ac:	e3a03000 	mov	r3, #0, 0
    87b0:	eafffffa 	b	87a0 <notmain+0x6c0>
    87b4:	e59f2820 	ldr	r2, [pc, #2080]	; 8fdc <notmain+0xefc>
    87b8:	e5922020 	ldr	r2, [r2, #32]
    87bc:	e3520000 	cmp	r2, #0, 0
    87c0:	0a000013 	beq	8814 <notmain+0x734>
    87c4:	e3520001 	cmp	r2, #1, 0
    87c8:	0a000018 	beq	8830 <notmain+0x750>
    87cc:	e3520002 	cmp	r2, #2, 0
    87d0:	0a00001d 	beq	884c <notmain+0x76c>
    87d4:	e3520003 	cmp	r2, #3, 0
    87d8:	0a00001f 	beq	885c <notmain+0x77c>
    87dc:	e3520004 	cmp	r2, #4, 0
    87e0:	0a000023 	beq	8874 <notmain+0x794>
    87e4:	e3520005 	cmp	r2, #5, 0
    87e8:	0a000025 	beq	8884 <notmain+0x7a4>
    87ec:	e3520006 	cmp	r2, #6, 0
    87f0:	0a000029 	beq	889c <notmain+0x7bc>
    87f4:	e3520007 	cmp	r2, #7, 0
    87f8:	1affffcc 	bne	8730 <notmain+0x650>
    87fc:	e59f37d8 	ldr	r3, [pc, #2008]	; 8fdc <notmain+0xefc>
    8800:	e3a02008 	mov	r2, #8, 0
    8804:	e5c32014 	strb	r2, [r3, #20]
    8808:	e3a02000 	mov	r2, #0, 0
    880c:	e5832020 	str	r2, [r3, #32]
    8810:	eafffe90 	b	8258 <notmain+0x178>
    8814:	e59f37c0 	ldr	r3, [pc, #1984]	; 8fdc <notmain+0xefc>
    8818:	e3a02002 	mov	r2, #2, 0
    881c:	e5c32014 	strb	r2, [r3, #20]
    8820:	e3a02000 	mov	r2, #0, 0
    8824:	e5832024 	str	r2, [r3, #36]	; 0x24
    8828:	e5832020 	str	r2, [r3, #32]
    882c:	eafffe89 	b	8258 <notmain+0x178>
    8830:	e59f37a4 	ldr	r3, [pc, #1956]	; 8fdc <notmain+0xefc>
    8834:	e3a02006 	mov	r2, #6, 0
    8838:	e5c32014 	strb	r2, [r3, #20]
    883c:	e3a02000 	mov	r2, #0, 0
    8840:	e5832028 	str	r2, [r3, #40]	; 0x28
    8844:	e5832020 	str	r2, [r3, #32]
    8848:	eafffe82 	b	8258 <notmain+0x178>
    884c:	e59f3788 	ldr	r3, [pc, #1928]	; 8fdc <notmain+0xefc>
    8850:	e3a02000 	mov	r2, #0, 0
    8854:	e5832020 	str	r2, [r3, #32]
    8858:	eafffe7e 	b	8258 <notmain+0x178>
    885c:	e59f3778 	ldr	r3, [pc, #1912]	; 8fdc <notmain+0xefc>
    8860:	e3a02009 	mov	r2, #9, 0
    8864:	e5c32014 	strb	r2, [r3, #20]
    8868:	e3a02000 	mov	r2, #0, 0
    886c:	e5832020 	str	r2, [r3, #32]
    8870:	eafffe78 	b	8258 <notmain+0x178>
    8874:	e59f3760 	ldr	r3, [pc, #1888]	; 8fdc <notmain+0xefc>
    8878:	e3a02000 	mov	r2, #0, 0
    887c:	e5832020 	str	r2, [r3, #32]
    8880:	eafffe74 	b	8258 <notmain+0x178>
    8884:	e59f3750 	ldr	r3, [pc, #1872]	; 8fdc <notmain+0xefc>
    8888:	e3a0200a 	mov	r2, #10, 0
    888c:	e5c32014 	strb	r2, [r3, #20]
    8890:	e3a02000 	mov	r2, #0, 0
    8894:	e5832020 	str	r2, [r3, #32]
    8898:	eafffe6e 	b	8258 <notmain+0x178>
    889c:	e59f3738 	ldr	r3, [pc, #1848]	; 8fdc <notmain+0xefc>
    88a0:	e3a02007 	mov	r2, #7, 0
    88a4:	e5c32014 	strb	r2, [r3, #20]
    88a8:	e3a02000 	mov	r2, #0, 0
    88ac:	e5832020 	str	r2, [r3, #32]
    88b0:	eafffe68 	b	8258 <notmain+0x178>
    88b4:	e59f3720 	ldr	r3, [pc, #1824]	; 8fdc <notmain+0xefc>
    88b8:	e3a02000 	mov	r2, #0, 0
    88bc:	e5c32014 	strb	r2, [r3, #20]
    88c0:	e5832020 	str	r2, [r3, #32]
    88c4:	eafffe63 	b	8258 <notmain+0x178>
    88c8:	e59f3710 	ldr	r3, [pc, #1808]	; 8fe0 <notmain+0xf00>
    88cc:	e5933010 	ldr	r3, [r3, #16]
    88d0:	e3530000 	cmp	r3, #0, 0
    88d4:	1a000013 	bne	8928 <notmain+0x848>
    88d8:	e59f36fc 	ldr	r3, [pc, #1788]	; 8fdc <notmain+0xefc>
    88dc:	e5933004 	ldr	r3, [r3, #4]
    88e0:	e3530000 	cmp	r3, #0, 0
    88e4:	0afffe5b 	beq	8258 <notmain+0x178>
    88e8:	e59f36ec 	ldr	r3, [pc, #1772]	; 8fdc <notmain+0xefc>
    88ec:	e3a02000 	mov	r2, #0, 0
    88f0:	e5832004 	str	r2, [r3, #4]
    88f4:	e59f26e4 	ldr	r2, [pc, #1764]	; 8fe0 <notmain+0xf00>
    88f8:	e3a01001 	mov	r1, #1, 0
    88fc:	e5821010 	str	r1, [r2, #16]
    8900:	e5933008 	ldr	r3, [r3, #8]
    8904:	e3530011 	cmp	r3, #17, 0
    8908:	0a000013 	beq	895c <notmain+0x87c>
    890c:	e3530013 	cmp	r3, #19, 0
    8910:	0a000017 	beq	8974 <notmain+0x894>
    8914:	e3530015 	cmp	r3, #21, 0
    8918:	059f36bc 	ldreq	r3, [pc, #1724]	; 8fdc <notmain+0xefc>
    891c:	03a02000 	moveq	r2, #0, 0
    8920:	05c32014 	strbeq	r2, [r3, #20]
    8924:	eafffe4b 	b	8258 <notmain+0x178>
    8928:	e59f36ac 	ldr	r3, [pc, #1708]	; 8fdc <notmain+0xefc>
    892c:	e593c024 	ldr	ip, [r3, #36]	; 0x24
    8930:	e3a0207f 	mov	r2, #127, 0	; 0x7f
    8934:	e58d2000 	str	r2, [sp]
    8938:	e3a03000 	mov	r3, #0, 0
    893c:	e1a01003 	mov	r1, r3
    8940:	e59f0600 	ldr	r0, [pc, #1536]	; 8f48 <notmain+0xe68>
    8944:	e080078c 	add	r0, r0, ip, lsl #15
    8948:	eb000650 	bl	a290 <st7735_fill_window>
    894c:	e59f368c 	ldr	r3, [pc, #1676]	; 8fe0 <notmain+0xf00>
    8950:	e3a02000 	mov	r2, #0, 0
    8954:	e5832010 	str	r2, [r3, #16]
    8958:	eaffffde 	b	88d8 <notmain+0x7f8>
    895c:	e59f2678 	ldr	r2, [pc, #1656]	; 8fdc <notmain+0xefc>
    8960:	e5923024 	ldr	r3, [r2, #36]	; 0x24
    8964:	e16f3f13 	clz	r3, r3
    8968:	e1a032a3 	lsr	r3, r3, #5
    896c:	e5823024 	str	r3, [r2, #36]	; 0x24
    8970:	eafffe38 	b	8258 <notmain+0x178>
    8974:	e59f3660 	ldr	r3, [pc, #1632]	; 8fdc <notmain+0xefc>
    8978:	e3a02003 	mov	r2, #3, 0
    897c:	e5c32014 	strb	r2, [r3, #20]
    8980:	e3a0207f 	mov	r2, #127, 0	; 0x7f
    8984:	e58d2000 	str	r2, [sp]
    8988:	e3a03000 	mov	r3, #0, 0
    898c:	e1a01003 	mov	r1, r3
    8990:	e59f05a8 	ldr	r0, [pc, #1448]	; 8f40 <notmain+0xe60>
    8994:	eb00063d 	bl	a290 <st7735_fill_window>
    8998:	eafffe2e 	b	8258 <notmain+0x178>
    899c:	e59f363c 	ldr	r3, [pc, #1596]	; 8fe0 <notmain+0xf00>
    89a0:	e5933010 	ldr	r3, [r3, #16]
    89a4:	e3530000 	cmp	r3, #0, 0
    89a8:	1a000019 	bne	8a14 <notmain+0x934>
    89ac:	e59f3628 	ldr	r3, [pc, #1576]	; 8fdc <notmain+0xefc>
    89b0:	e5933004 	ldr	r3, [r3, #4]
    89b4:	e3530000 	cmp	r3, #0, 0
    89b8:	0afffe26 	beq	8258 <notmain+0x178>
    89bc:	e59f3618 	ldr	r3, [pc, #1560]	; 8fdc <notmain+0xefc>
    89c0:	e3a02000 	mov	r2, #0, 0
    89c4:	e5832004 	str	r2, [r3, #4]
    89c8:	e59f2610 	ldr	r2, [pc, #1552]	; 8fe0 <notmain+0xf00>
    89cc:	e3a01001 	mov	r1, #1, 0
    89d0:	e5821010 	str	r1, [r2, #16]
    89d4:	e5933008 	ldr	r3, [r3, #8]
    89d8:	e3530011 	cmp	r3, #17, 0
    89dc:	0a00004c 	beq	8b14 <notmain+0xa34>
    89e0:	e3530013 	cmp	r3, #19, 0
    89e4:	0a000058 	beq	8b4c <notmain+0xa6c>
    89e8:	e3530015 	cmp	r3, #21, 0
    89ec:	0a00005d 	beq	8b68 <notmain+0xa88>
    89f0:	e3530017 	cmp	r3, #23, 0
    89f4:	1afffe17 	bne	8258 <notmain+0x178>
    89f8:	e59f35dc 	ldr	r3, [pc, #1500]	; 8fdc <notmain+0xefc>
    89fc:	e3a02007 	mov	r2, #7, 0
    8a00:	e5c32014 	strb	r2, [r3, #20]
    8a04:	e3a02000 	mov	r2, #0, 0
    8a08:	e5832038 	str	r2, [r3, #56]	; 0x38
    8a0c:	e5832030 	str	r2, [r3, #48]	; 0x30
    8a10:	eafffe10 	b	8258 <notmain+0x178>
    8a14:	e3a06000 	mov	r6, #0, 0
    8a18:	e59f35c0 	ldr	r3, [pc, #1472]	; 8fe0 <notmain+0xf00>
    8a1c:	e5836010 	str	r6, [r3, #16]
    8a20:	eb000a59 	bl	b38c <kalshi_get_balance>
    8a24:	e1a01000 	mov	r1, r0
    8a28:	e59f04e8 	ldr	r0, [pc, #1256]	; 8f18 <notmain+0xe38>
    8a2c:	eb002779 	bl	12818 <printk>
    8a30:	eb000a4f 	bl	b374 <kalshi_load_holdings>
    8a34:	e1a01000 	mov	r1, r0
    8a38:	e59f359c 	ldr	r3, [pc, #1436]	; 8fdc <notmain+0xefc>
    8a3c:	e583002c 	str	r0, [r3, #44]	; 0x2c
    8a40:	e59f04d4 	ldr	r0, [pc, #1236]	; 8f1c <notmain+0xe3c>
    8a44:	eb002773 	bl	12818 <printk>
    8a48:	ea00000a 	b	8a78 <notmain+0x998>
    8a4c:	e0852105 	add	r2, r5, r5, lsl #2
    8a50:	e1a02082 	lsl	r2, r2, #1
    8a54:	e2822017 	add	r2, r2, #23, 0
    8a58:	e3a03000 	mov	r3, #0, 0
    8a5c:	e58d3000 	str	r3, [sp]
    8a60:	e3a030ff 	mov	r3, #255, 0	; 0xff
    8a64:	e6ef2072 	uxtb	r2, r2
    8a68:	e3a01003 	mov	r1, #3, 0
    8a6c:	e24b0050 	sub	r0, fp, #80, 0	; 0x50
    8a70:	eb00057e 	bl	a070 <draw_string>
    8a74:	e2866001 	add	r6, r6, #1, 0
    8a78:	e1a07006 	mov	r7, r6
    8a7c:	e59f3558 	ldr	r3, [pc, #1368]	; 8fdc <notmain+0xefc>
    8a80:	e593302c 	ldr	r3, [r3, #44]	; 0x2c
    8a84:	e1560003 	cmp	r6, r3
    8a88:	2affffc7 	bcs	89ac <notmain+0x8cc>
    8a8c:	e3560006 	cmp	r6, #6, 0
    8a90:	caffffc5 	bgt	89ac <notmain+0x8cc>
    8a94:	e6ef5076 	uxtb	r5, r6
    8a98:	e2853031 	add	r3, r5, #49, 0	; 0x31
    8a9c:	e54b3050 	strb	r3, [fp, #-80]	; 0xffffffb0
    8aa0:	e3a0302e 	mov	r3, #46, 0	; 0x2e
    8aa4:	e54b304f 	strb	r3, [fp, #-79]	; 0xffffffb1
    8aa8:	e3a03020 	mov	r3, #32, 0
    8aac:	e54b304e 	strb	r3, [fp, #-78]	; 0xffffffb2
    8ab0:	e24b204d 	sub	r2, fp, #77, 0	; 0x4d
    8ab4:	e3a01001 	mov	r1, #1, 0
    8ab8:	e1a00007 	mov	r0, r7
    8abc:	eb000a3e 	bl	b3bc <kalshi_get_ticker>
    8ac0:	e24b2047 	sub	r2, fp, #71, 0	; 0x47
    8ac4:	e3a01002 	mov	r1, #2, 0
    8ac8:	e1a00007 	mov	r0, r7
    8acc:	eb000a3a 	bl	b3bc <kalshi_get_ticker>
    8ad0:	e3a03000 	mov	r3, #0, 0
    8ad4:	e54b3042 	strb	r3, [fp, #-66]	; 0xffffffbe
    8ad8:	e59f34fc 	ldr	r3, [pc, #1276]	; 8fdc <notmain+0xefc>
    8adc:	e5933030 	ldr	r3, [r3, #48]	; 0x30
    8ae0:	e1530007 	cmp	r3, r7
    8ae4:	0affffd8 	beq	8a4c <notmain+0x96c>
    8ae8:	e0852105 	add	r2, r5, r5, lsl #2
    8aec:	e1a02082 	lsl	r2, r2, #1
    8af0:	e2822017 	add	r2, r2, #23, 0
    8af4:	e59f3478 	ldr	r3, [pc, #1144]	; 8f74 <notmain+0xe94>
    8af8:	e58d3000 	str	r3, [sp]
    8afc:	e3a03000 	mov	r3, #0, 0
    8b00:	e6ef2072 	uxtb	r2, r2
    8b04:	e3a01003 	mov	r1, #3, 0
    8b08:	e24b0050 	sub	r0, fp, #80, 0	; 0x50
    8b0c:	eb000557 	bl	a070 <draw_string>
    8b10:	eaffffd7 	b	8a74 <notmain+0x994>
    8b14:	e59f24c0 	ldr	r2, [pc, #1216]	; 8fdc <notmain+0xefc>
    8b18:	e592302c 	ldr	r3, [r2, #44]	; 0x2c
    8b1c:	e3530007 	cmp	r3, #7, 0
    8b20:	23a03007 	movcs	r3, #7, 0
    8b24:	e2433001 	sub	r3, r3, #1, 0
    8b28:	e5922030 	ldr	r2, [r2, #48]	; 0x30
    8b2c:	e1530002 	cmp	r3, r2
    8b30:	9a000003 	bls	8b44 <notmain+0xa64>
    8b34:	e0822001 	add	r2, r2, r1
    8b38:	e59f349c 	ldr	r3, [pc, #1180]	; 8fdc <notmain+0xefc>
    8b3c:	e5832030 	str	r2, [r3, #48]	; 0x30
    8b40:	eafffdc4 	b	8258 <notmain+0x178>
    8b44:	e3a02000 	mov	r2, #0, 0
    8b48:	eafffffa 	b	8b38 <notmain+0xa58>
    8b4c:	e59f3488 	ldr	r3, [pc, #1160]	; 8fdc <notmain+0xefc>
    8b50:	e3a02004 	mov	r2, #4, 0
    8b54:	e5c32014 	strb	r2, [r3, #20]
    8b58:	e3a02000 	mov	r2, #0, 0
    8b5c:	e5832034 	str	r2, [r3, #52]	; 0x34
    8b60:	e5832038 	str	r2, [r3, #56]	; 0x38
    8b64:	eafffdbb 	b	8258 <notmain+0x178>
    8b68:	e59f346c 	ldr	r3, [pc, #1132]	; 8fdc <notmain+0xefc>
    8b6c:	e3a02000 	mov	r2, #0, 0
    8b70:	e5c32014 	strb	r2, [r3, #20]
    8b74:	e5832030 	str	r2, [r3, #48]	; 0x30
    8b78:	eafffdb6 	b	8258 <notmain+0x178>
    8b7c:	e59f345c 	ldr	r3, [pc, #1116]	; 8fe0 <notmain+0xf00>
    8b80:	e5933010 	ldr	r3, [r3, #16]
    8b84:	e3530000 	cmp	r3, #0, 0
    8b88:	0a000067 	beq	8d2c <notmain+0xc4c>
    8b8c:	e1a0800d 	mov	r8, sp
    8b90:	e59f3444 	ldr	r3, [pc, #1092]	; 8fdc <notmain+0xefc>
    8b94:	e5933018 	ldr	r3, [r3, #24]
    8b98:	e3530000 	cmp	r3, #0, 0
    8b9c:	0a00007b 	beq	8d90 <notmain+0xcb0>
    8ba0:	e59f0380 	ldr	r0, [pc, #896]	; 8f28 <notmain+0xe48>
    8ba4:	e3a03013 	mov	r3, #19, 0
    8ba8:	e58d3000 	str	r3, [sp]
    8bac:	e3a03000 	mov	r3, #0, 0
    8bb0:	e3a0207f 	mov	r2, #127, 0	; 0x7f
    8bb4:	e1a01003 	mov	r1, r3
    8bb8:	eb0005b4 	bl	a290 <st7735_fill_window>
    8bbc:	e59f3418 	ldr	r3, [pc, #1048]	; 8fdc <notmain+0xefc>
    8bc0:	e5933018 	ldr	r3, [r3, #24]
    8bc4:	e3530000 	cmp	r3, #0, 0
    8bc8:	0a000072 	beq	8d98 <notmain+0xcb8>
    8bcc:	e59f034c 	ldr	r0, [pc, #844]	; 8f20 <notmain+0xe40>
    8bd0:	e3a0207f 	mov	r2, #127, 0	; 0x7f
    8bd4:	e58d2000 	str	r2, [sp]
    8bd8:	e3a03059 	mov	r3, #89, 0	; 0x59
    8bdc:	e3a01000 	mov	r1, #0, 0
    8be0:	eb0005aa 	bl	a290 <st7735_fill_window>
    8be4:	e59f33f4 	ldr	r3, [pc, #1012]	; 8fe0 <notmain+0xf00>
    8be8:	e3a02000 	mov	r2, #0, 0
    8bec:	e5832010 	str	r2, [r3, #16]
    8bf0:	e59f33e4 	ldr	r3, [pc, #996]	; 8fdc <notmain+0xefc>
    8bf4:	e5930030 	ldr	r0, [r3, #48]	; 0x30
    8bf8:	eb000a0f 	bl	b43c <kalshi_get_name_length>
    8bfc:	e350003c 	cmp	r0, #60, 0	; 0x3c
    8c00:	9a000066 	bls	8da0 <notmain+0xcc0>
    8c04:	e3a0603c 	mov	r6, #60, 0	; 0x3c
    8c08:	e2863008 	add	r3, r6, #8, 0
    8c0c:	e3c33007 	bic	r3, r3, #7, 0
    8c10:	e04dd003 	sub	sp, sp, r3
    8c14:	e28da008 	add	sl, sp, #8, 0
    8c18:	e1a0900a 	mov	r9, sl
    8c1c:	e59f33b8 	ldr	r3, [pc, #952]	; 8fdc <notmain+0xefc>
    8c20:	e5935034 	ldr	r5, [r3, #52]	; 0x34
    8c24:	e3550000 	cmp	r5, #0, 0
    8c28:	0a000061 	beq	8db4 <notmain+0xcd4>
    8c2c:	e59f63a8 	ldr	r6, [pc, #936]	; 8fdc <notmain+0xefc>
    8c30:	e5960030 	ldr	r0, [r6, #48]	; 0x30
    8c34:	eb000a23 	bl	b4c8 <kalshi_get_yes>
    8c38:	e59f5348 	ldr	r5, [pc, #840]	; 8f88 <notmain+0xea8>
    8c3c:	e0832095 	umull	r2, r3, r5, r0
    8c40:	e1a031a3 	lsr	r3, r3, #3
    8c44:	e2832030 	add	r2, r3, #48, 0	; 0x30
    8c48:	e54b2050 	strb	r2, [fp, #-80]	; 0xffffffb0
    8c4c:	e0833103 	add	r3, r3, r3, lsl #2
    8c50:	e0403083 	sub	r3, r0, r3, lsl #1
    8c54:	e2833030 	add	r3, r3, #48, 0	; 0x30
    8c58:	e54b304f 	strb	r3, [fp, #-79]	; 0xffffffb1
    8c5c:	e3a03025 	mov	r3, #37, 0	; 0x25
    8c60:	e54b304e 	strb	r3, [fp, #-78]	; 0xffffffb2
    8c64:	e3a07000 	mov	r7, #0, 0
    8c68:	e54b704d 	strb	r7, [fp, #-77]	; 0xffffffb3
    8c6c:	e59f9300 	ldr	r9, [pc, #768]	; 8f74 <notmain+0xe94>
    8c70:	e58d9000 	str	r9, [sp]
    8c74:	e1a03007 	mov	r3, r7
    8c78:	e3a0204f 	mov	r2, #79, 0	; 0x4f
    8c7c:	e3a0101b 	mov	r1, #27, 0
    8c80:	e24b0050 	sub	r0, fp, #80, 0	; 0x50
    8c84:	eb0004f9 	bl	a070 <draw_string>
    8c88:	e5960030 	ldr	r0, [r6, #48]	; 0x30
    8c8c:	eb000a19 	bl	b4f8 <kalshi_get_no>
    8c90:	e0832095 	umull	r2, r3, r5, r0
    8c94:	e1a031a3 	lsr	r3, r3, #3
    8c98:	e2832030 	add	r2, r3, #48, 0	; 0x30
    8c9c:	e54b2050 	strb	r2, [fp, #-80]	; 0xffffffb0
    8ca0:	e0833103 	add	r3, r3, r3, lsl #2
    8ca4:	e0403083 	sub	r3, r0, r3, lsl #1
    8ca8:	e2833030 	add	r3, r3, #48, 0	; 0x30
    8cac:	e54b304f 	strb	r3, [fp, #-79]	; 0xffffffb1
    8cb0:	e58d9000 	str	r9, [sp]
    8cb4:	e1a03007 	mov	r3, r7
    8cb8:	e3a0204f 	mov	r2, #79, 0	; 0x4f
    8cbc:	e3a01053 	mov	r1, #83, 0	; 0x53
    8cc0:	e24b0050 	sub	r0, fp, #80, 0	; 0x50
    8cc4:	eb0004e9 	bl	a070 <draw_string>
    8cc8:	e5962038 	ldr	r2, [r6, #56]	; 0x38
    8ccc:	e1520007 	cmp	r2, r7
    8cd0:	1a00006e 	bne	8e90 <notmain+0xdb0>
    8cd4:	e3a030ff 	mov	r3, #255, 0	; 0xff
    8cd8:	e3520000 	cmp	r2, #0, 0
    8cdc:	159f2290 	ldrne	r2, [pc, #656]	; 8f74 <notmain+0xe94>
    8ce0:	e58d2000 	str	r2, [sp]
    8ce4:	e3a02045 	mov	r2, #69, 0	; 0x45
    8ce8:	e3a0101b 	mov	r1, #27, 0
    8cec:	e59f026c 	ldr	r0, [pc, #620]	; 8f60 <notmain+0xe80>
    8cf0:	eb0004de 	bl	a070 <draw_string>
    8cf4:	e59f32e0 	ldr	r3, [pc, #736]	; 8fdc <notmain+0xefc>
    8cf8:	e5932038 	ldr	r2, [r3, #56]	; 0x38
    8cfc:	e3520000 	cmp	r2, #0, 0
    8d00:	0a000064 	beq	8e98 <notmain+0xdb8>
    8d04:	e3a030ff 	mov	r3, #255, 0	; 0xff
    8d08:	e3520000 	cmp	r2, #0, 0
    8d0c:	0a000063 	beq	8ea0 <notmain+0xdc0>
    8d10:	e3a02000 	mov	r2, #0, 0
    8d14:	e58d2000 	str	r2, [sp]
    8d18:	e3a02045 	mov	r2, #69, 0	; 0x45
    8d1c:	e3a01053 	mov	r1, #83, 0	; 0x53
    8d20:	e59f023c 	ldr	r0, [pc, #572]	; 8f64 <notmain+0xe84>
    8d24:	eb0004d1 	bl	a070 <draw_string>
    8d28:	e1a0d008 	mov	sp, r8
    8d2c:	e59f32a8 	ldr	r3, [pc, #680]	; 8fdc <notmain+0xefc>
    8d30:	e5933004 	ldr	r3, [r3, #4]
    8d34:	e3530000 	cmp	r3, #0, 0
    8d38:	0afffd46 	beq	8258 <notmain+0x178>
    8d3c:	e59f3298 	ldr	r3, [pc, #664]	; 8fdc <notmain+0xefc>
    8d40:	e3a02000 	mov	r2, #0, 0
    8d44:	e5832004 	str	r2, [r3, #4]
    8d48:	e59f2290 	ldr	r2, [pc, #656]	; 8fe0 <notmain+0xf00>
    8d4c:	e3a01001 	mov	r1, #1, 0
    8d50:	e5821010 	str	r1, [r2, #16]
    8d54:	e5933008 	ldr	r3, [r3, #8]
    8d58:	e3530011 	cmp	r3, #17, 0
    8d5c:	0a000051 	beq	8ea8 <notmain+0xdc8>
    8d60:	e3530013 	cmp	r3, #19, 0
    8d64:	0a000055 	beq	8ec0 <notmain+0xde0>
    8d68:	e3530015 	cmp	r3, #21, 0
    8d6c:	0a000059 	beq	8ed8 <notmain+0xdf8>
    8d70:	e3530017 	cmp	r3, #23, 0
    8d74:	1afffd37 	bne	8258 <notmain+0x178>
    8d78:	e59f325c 	ldr	r3, [pc, #604]	; 8fdc <notmain+0xefc>
    8d7c:	e3a02007 	mov	r2, #7, 0
    8d80:	e5c32014 	strb	r2, [r3, #20]
    8d84:	e3a02000 	mov	r2, #0, 0
    8d88:	e5832030 	str	r2, [r3, #48]	; 0x30
    8d8c:	eafffd31 	b	8258 <notmain+0x178>
    8d90:	e59f01a8 	ldr	r0, [pc, #424]	; 8f40 <notmain+0xe60>
    8d94:	eaffff82 	b	8ba4 <notmain+0xac4>
    8d98:	e59f0184 	ldr	r0, [pc, #388]	; 8f24 <notmain+0xe44>
    8d9c:	eaffff8b 	b	8bd0 <notmain+0xaf0>
    8da0:	e59f3234 	ldr	r3, [pc, #564]	; 8fdc <notmain+0xefc>
    8da4:	e5930030 	ldr	r0, [r3, #48]	; 0x30
    8da8:	eb0009a3 	bl	b43c <kalshi_get_name_length>
    8dac:	e1a06000 	mov	r6, r0
    8db0:	eaffff94 	b	8c08 <notmain+0xb28>
    8db4:	e5933018 	ldr	r3, [r3, #24]
    8db8:	e3530000 	cmp	r3, #0, 0
    8dbc:	0a000007 	beq	8de0 <notmain+0xd00>
    8dc0:	e59f0160 	ldr	r0, [pc, #352]	; 8f28 <notmain+0xe48>
    8dc4:	e3a0207f 	mov	r2, #127, 0	; 0x7f
    8dc8:	e58d2000 	str	r2, [sp]
    8dcc:	e3a03000 	mov	r3, #0, 0
    8dd0:	e1a01003 	mov	r1, r3
    8dd4:	eb00052d 	bl	a290 <st7735_fill_window>
    8dd8:	e3a01001 	mov	r1, #1, 0
    8ddc:	ea000008 	b	8e04 <notmain+0xd24>
    8de0:	e59f0158 	ldr	r0, [pc, #344]	; 8f40 <notmain+0xe60>
    8de4:	eafffff6 	b	8dc4 <notmain+0xce4>
    8de8:	e2817001 	add	r7, r1, #1, 0
    8dec:	e0892005 	add	r2, r9, r5
    8df0:	e59f31e4 	ldr	r3, [pc, #484]	; 8fdc <notmain+0xefc>
    8df4:	e5930030 	ldr	r0, [r3, #48]	; 0x30
    8df8:	eb00097f 	bl	b3fc <kalshi_get_name>
    8dfc:	e2855008 	add	r5, r5, #8, 0
    8e00:	e1a01007 	mov	r1, r7
    8e04:	e1550006 	cmp	r5, r6
    8e08:	3afffff6 	bcc	8de8 <notmain+0xd08>
    8e0c:	e3a05000 	mov	r5, #0, 0
    8e10:	e7ca5006 	strb	r5, [sl, r6]
    8e14:	ea000014 	b	8e6c <notmain+0xd8c>
    8e18:	e0467001 	sub	r7, r6, r1
    8e1c:	e357000f 	cmp	r7, #15, 0
    8e20:	23a0700f 	movcs	r7, #15, 0
    8e24:	e1a02007 	mov	r2, r7
    8e28:	e0891001 	add	r1, r9, r1
    8e2c:	e24b0050 	sub	r0, fp, #80, 0	; 0x50
    8e30:	eb002606 	bl	12650 <memcpy>
    8e34:	e24b3024 	sub	r3, fp, #36, 0	; 0x24
    8e38:	e0837007 	add	r7, r3, r7
    8e3c:	e3a03000 	mov	r3, #0, 0
    8e40:	e547302c 	strb	r3, [r7, #-44]	; 0xffffffd4
    8e44:	e0852105 	add	r2, r5, r5, lsl #2
    8e48:	e1a02082 	lsl	r2, r2, #1
    8e4c:	e282201b 	add	r2, r2, #27, 0
    8e50:	e59f111c 	ldr	r1, [pc, #284]	; 8f74 <notmain+0xe94>
    8e54:	e58d1000 	str	r1, [sp]
    8e58:	e6ef2072 	uxtb	r2, r2
    8e5c:	e3a01003 	mov	r1, #3, 0
    8e60:	e24b0050 	sub	r0, fp, #80, 0	; 0x50
    8e64:	eb000481 	bl	a070 <draw_string>
    8e68:	e2855001 	add	r5, r5, #1, 0
    8e6c:	e0651205 	rsb	r1, r5, r5, lsl #4
    8e70:	e1510006 	cmp	r1, r6
    8e74:	2a000001 	bcs	8e80 <notmain+0xda0>
    8e78:	e3550003 	cmp	r5, #3, 0
    8e7c:	daffffe5 	ble	8e18 <notmain+0xd38>
    8e80:	e59f3154 	ldr	r3, [pc, #340]	; 8fdc <notmain+0xefc>
    8e84:	e3a02001 	mov	r2, #1, 0
    8e88:	e5832034 	str	r2, [r3, #52]	; 0x34
    8e8c:	eaffff66 	b	8c2c <notmain+0xb4c>
    8e90:	e3a03000 	mov	r3, #0, 0
    8e94:	eaffff8f 	b	8cd8 <notmain+0xbf8>
    8e98:	e3a03000 	mov	r3, #0, 0
    8e9c:	eaffff99 	b	8d08 <notmain+0xc28>
    8ea0:	e59f20cc 	ldr	r2, [pc, #204]	; 8f74 <notmain+0xe94>
    8ea4:	eaffff9a 	b	8d14 <notmain+0xc34>
    8ea8:	e59f212c 	ldr	r2, [pc, #300]	; 8fdc <notmain+0xefc>
    8eac:	e5923038 	ldr	r3, [r2, #56]	; 0x38
    8eb0:	e16f3f13 	clz	r3, r3
    8eb4:	e1a032a3 	lsr	r3, r3, #5
    8eb8:	e5823038 	str	r3, [r2, #56]	; 0x38
    8ebc:	eafffce5 	b	8258 <notmain+0x178>
    8ec0:	e59f3114 	ldr	r3, [pc, #276]	; 8fdc <notmain+0xefc>
    8ec4:	e3a02005 	mov	r2, #5, 0
    8ec8:	e5c32014 	strb	r2, [r3, #20]
    8ecc:	e3a02000 	mov	r2, #0, 0
    8ed0:	e583203c 	str	r2, [r3, #60]	; 0x3c
    8ed4:	eafffcdf 	b	8258 <notmain+0x178>
    8ed8:	e59f30fc 	ldr	r3, [pc, #252]	; 8fdc <notmain+0xefc>
    8edc:	e3a02000 	mov	r2, #0, 0
    8ee0:	e5c32014 	strb	r2, [r3, #20]
    8ee4:	e5832030 	str	r2, [r3, #48]	; 0x30
    8ee8:	eafffcda 	b	8258 <notmain+0x178>
    8eec:	00008038 	.word	0x00008038
    8ef0:	00001388 	.word	0x00001388
    8ef4:	000133d4 	.word	0x000133d4
    8ef8:	000b71b0 	.word	0x000b71b0
    8efc:	0006b4b0 	.word	0x0006b4b0
    8f00:	001634b0 	.word	0x001634b0
    8f04:	001734b0 	.word	0x001734b0
    8f08:	0013b4b0 	.word	0x0013b4b0
    8f0c:	001434b0 	.word	0x001434b0
    8f10:	000134b0 	.word	0x000134b0
    8f14:	000fb4b0 	.word	0x000fb4b0
    8f18:	000133e4 	.word	0x000133e4
    8f1c:	000133f0 	.word	0x000133f0
    8f20:	00048db0 	.word	0x00048db0
    8f24:	00088db0 	.word	0x00088db0
    8f28:	000434b0 	.word	0x000434b0
    8f2c:	00013408 	.word	0x00013408
    8f30:	51eb851f 	.word	0x51eb851f
    8f34:	0019bee8 	.word	0x0019bee8
    8f38:	00013428 	.word	0x00013428
    8f3c:	0001342c 	.word	0x0001342c
    8f40:	000834b0 	.word	0x000834b0
    8f44:	00013418 	.word	0x00013418
    8f48:	000734b0 	.word	0x000734b0
    8f4c:	000009c4 	.word	0x000009c4
    8f50:	000003e7 	.word	0x000003e7
    8f54:	000133c4 	.word	0x000133c4
    8f58:	000133c0 	.word	0x000133c0
    8f5c:	000133c8 	.word	0x000133c8
    8f60:	00013400 	.word	0x00013400
    8f64:	00013404 	.word	0x00013404
    8f68:	00013430 	.word	0x00013430
    8f6c:	00013434 	.word	0x00013434
    8f70:	0004b4b0 	.word	0x0004b4b0
    8f74:	00000dce 	.word	0x00000dce
    8f78:	00015180 	.word	0x00015180
    8f7c:	0002b4b0 	.word	0x0002b4b0
    8f80:	91a2b3c5 	.word	0x91a2b3c5
    8f84:	88888889 	.word	0x88888889
    8f88:	cccccccd 	.word	0xcccccccd
    8f8c:	0015b4b0 	.word	0x0015b4b0
    8f90:	000cb4b0 	.word	0x000cb4b0
    8f94:	000d34b0 	.word	0x000d34b0
    8f98:	000e34b0 	.word	0x000e34b0
    8f9c:	000db4b0 	.word	0x000db4b0
    8fa0:	0019c920 	.word	0x0019c920
    8fa4:	00013468 	.word	0x00013468
    8fa8:	00013474 	.word	0x00013474
    8fac:	00013480 	.word	0x00013480
    8fb0:	0001348c 	.word	0x0001348c
    8fb4:	00013494 	.word	0x00013494
    8fb8:	0019d394 	.word	0x0019d394
    8fbc:	0001349c 	.word	0x0001349c
    8fc0:	000134a4 	.word	0x000134a4
    8fc4:	000134a8 	.word	0x000134a8
    8fc8:	0001b4b0 	.word	0x0001b4b0
    8fcc:	0000ffff 	.word	0x0000ffff
    8fd0:	00013438 	.word	0x00013438
    8fd4:	00013448 	.word	0x00013448
    8fd8:	00013458 	.word	0x00013458
    8fdc:	0019ee50 	.word	0x0019ee50
    8fe0:	0019e564 	.word	0x0019e564
    8fe4:	e51f300c 	ldr	r3, [pc, #-12]	; 8fe0 <notmain+0xf00>
    8fe8:	e5933010 	ldr	r3, [r3, #16]
    8fec:	e3530000 	cmp	r3, #0, 0
    8ff0:	0a0000d2 	beq	9340 <notmain+0x1260>
    8ff4:	e51f3020 	ldr	r3, [pc, #-32]	; 8fdc <notmain+0xefc>
    8ff8:	e5933018 	ldr	r3, [r3, #24]
    8ffc:	e3530000 	cmp	r3, #0, 0
    9000:	0a0000e4 	beq	9398 <notmain+0x12b8>
    9004:	e51f00e4 	ldr	r0, [pc, #-228]	; 8f28 <notmain+0xe48>
    9008:	e3a0207f 	mov	r2, #127, 0	; 0x7f
    900c:	e58d2000 	str	r2, [sp]
    9010:	e3a03000 	mov	r3, #0, 0
    9014:	e1a01003 	mov	r1, r3
    9018:	eb00049c 	bl	a290 <st7735_fill_window>
    901c:	e51f3044 	ldr	r3, [pc, #-68]	; 8fe0 <notmain+0xf00>
    9020:	e3a02000 	mov	r2, #0, 0
    9024:	e5832010 	str	r2, [r3, #16]
    9028:	e51f3054 	ldr	r3, [pc, #-84]	; 8fdc <notmain+0xefc>
    902c:	e5933024 	ldr	r3, [r3, #36]	; 0x24
    9030:	e1530002 	cmp	r3, r2
    9034:	1a0000d9 	bne	93a0 <notmain+0x12c0>
    9038:	e51f30cc 	ldr	r3, [pc, #-204]	; 8f74 <notmain+0xe94>
    903c:	e58d3000 	str	r3, [sp]
    9040:	e1a03002 	mov	r3, r2
    9044:	e3a0201f 	mov	r2, #31, 0
    9048:	e3a01003 	mov	r1, #3, 0
    904c:	e51f0128 	ldr	r0, [pc, #-296]	; 8f2c <notmain+0xe4c>
    9050:	eb000406 	bl	a070 <draw_string>
    9054:	e51f3080 	ldr	r3, [pc, #-128]	; 8fdc <notmain+0xefc>
    9058:	e5930030 	ldr	r0, [r3, #48]	; 0x30
    905c:	e5933038 	ldr	r3, [r3, #56]	; 0x38
    9060:	e3530000 	cmp	r3, #0, 0
    9064:	1a0000d5 	bne	93c0 <notmain+0x12e0>
    9068:	e51f111c 	ldr	r1, [pc, #-284]	; 8f54 <notmain+0xe74>
    906c:	eb000950 	bl	b5b4 <kalshi_get_ask>
    9070:	e1a05000 	mov	r5, r0
    9074:	e51f30a0 	ldr	r3, [pc, #-160]	; 8fdc <notmain+0xefc>
    9078:	e5930030 	ldr	r0, [r3, #48]	; 0x30
    907c:	e5933038 	ldr	r3, [r3, #56]	; 0x38
    9080:	e3530000 	cmp	r3, #0, 0
    9084:	1a0000cf 	bne	93c8 <notmain+0x12e8>
    9088:	e51f113c 	ldr	r1, [pc, #-316]	; 8f54 <notmain+0xe74>
    908c:	eb000956 	bl	b5ec <kalshi_get_bid>
    9090:	e1a0a000 	mov	sl, r0
    9094:	e51f30c0 	ldr	r3, [pc, #-192]	; 8fdc <notmain+0xefc>
    9098:	e5933024 	ldr	r3, [r3, #36]	; 0x24
    909c:	e3530000 	cmp	r3, #0, 0
    90a0:	01a0a005 	moveq	sl, r5
    90a4:	e3a03063 	mov	r3, #99, 0	; 0x63
    90a8:	e54b304d 	strb	r3, [fp, #-77]	; 0xffffffb3
    90ac:	e3a06000 	mov	r6, #0, 0
    90b0:	e54b604c 	strb	r6, [fp, #-76]	; 0xffffffb4
    90b4:	e51f918c 	ldr	r9, [pc, #-396]	; 8f30 <notmain+0xe50>
    90b8:	e0823a99 	umull	r3, r2, r9, sl
    90bc:	e1a022a2 	lsr	r2, r2, #5
    90c0:	e51f5140 	ldr	r5, [pc, #-320]	; 8f88 <notmain+0xea8>
    90c4:	e0831295 	umull	r1, r3, r5, r2
    90c8:	e1a031a3 	lsr	r3, r3, #3
    90cc:	e0833103 	add	r3, r3, r3, lsl #2
    90d0:	e0423083 	sub	r3, r2, r3, lsl #1
    90d4:	e2833030 	add	r3, r3, #48, 0	; 0x30
    90d8:	e54b3050 	strb	r3, [fp, #-80]	; 0xffffffb0
    90dc:	e0832a95 	umull	r2, r3, r5, sl
    90e0:	e1a031a3 	lsr	r3, r3, #3
    90e4:	e0821395 	umull	r1, r2, r5, r3
    90e8:	e1a021a2 	lsr	r2, r2, #3
    90ec:	e0822102 	add	r2, r2, r2, lsl #2
    90f0:	e0432082 	sub	r2, r3, r2, lsl #1
    90f4:	e2822030 	add	r2, r2, #48, 0	; 0x30
    90f8:	e54b204f 	strb	r2, [fp, #-79]	; 0xffffffb1
    90fc:	e0833103 	add	r3, r3, r3, lsl #2
    9100:	e04a3083 	sub	r3, sl, r3, lsl #1
    9104:	e2833030 	add	r3, r3, #48, 0	; 0x30
    9108:	e54b304e 	strb	r3, [fp, #-78]	; 0xffffffb2
    910c:	e51f71a0 	ldr	r7, [pc, #-416]	; 8f74 <notmain+0xe94>
    9110:	e58d7000 	str	r7, [sp]
    9114:	e1a03006 	mov	r3, r6
    9118:	e3a0202c 	mov	r2, #44, 0	; 0x2c
    911c:	e3a0101f 	mov	r1, #31, 0
    9120:	e24b0050 	sub	r0, fp, #80, 0	; 0x50
    9124:	eb0003d1 	bl	a070 <draw_string>
    9128:	e08a810a 	add	r8, sl, sl, lsl #2
    912c:	e0823899 	umull	r3, r2, r9, r8
    9130:	e1a022a2 	lsr	r2, r2, #5
    9134:	e0831295 	umull	r1, r3, r5, r2
    9138:	e1a031a3 	lsr	r3, r3, #3
    913c:	e0833103 	add	r3, r3, r3, lsl #2
    9140:	e0423083 	sub	r3, r2, r3, lsl #1
    9144:	e2833030 	add	r3, r3, #48, 0	; 0x30
    9148:	e54b3050 	strb	r3, [fp, #-80]	; 0xffffffb0
    914c:	e0832895 	umull	r2, r3, r5, r8
    9150:	e1a031a3 	lsr	r3, r3, #3
    9154:	e0821395 	umull	r1, r2, r5, r3
    9158:	e1a021a2 	lsr	r2, r2, #3
    915c:	e0822102 	add	r2, r2, r2, lsl #2
    9160:	e0432082 	sub	r2, r3, r2, lsl #1
    9164:	e2822030 	add	r2, r2, #48, 0	; 0x30
    9168:	e54b204f 	strb	r2, [fp, #-79]	; 0xffffffb1
    916c:	e0833103 	add	r3, r3, r3, lsl #2
    9170:	e0483083 	sub	r3, r8, r3, lsl #1
    9174:	e2833030 	add	r3, r3, #48, 0	; 0x30
    9178:	e54b304e 	strb	r3, [fp, #-78]	; 0xffffffb2
    917c:	e58d7000 	str	r7, [sp]
    9180:	e1a03006 	mov	r3, r6
    9184:	e3a0202c 	mov	r2, #44, 0	; 0x2c
    9188:	e3a01047 	mov	r1, #71, 0	; 0x47
    918c:	e24b0050 	sub	r0, fp, #80, 0	; 0x50
    9190:	eb0003b6 	bl	a070 <draw_string>
    9194:	e1a08088 	lsl	r8, r8, #1
    9198:	e0823899 	umull	r3, r2, r9, r8
    919c:	e1a022a2 	lsr	r2, r2, #5
    91a0:	e0831295 	umull	r1, r3, r5, r2
    91a4:	e1a031a3 	lsr	r3, r3, #3
    91a8:	e0833103 	add	r3, r3, r3, lsl #2
    91ac:	e0423083 	sub	r3, r2, r3, lsl #1
    91b0:	e2833030 	add	r3, r3, #48, 0	; 0x30
    91b4:	e54b3050 	strb	r3, [fp, #-80]	; 0xffffffb0
    91b8:	e0823895 	umull	r3, r2, r5, r8
    91bc:	e1a021a2 	lsr	r2, r2, #3
    91c0:	e0831295 	umull	r1, r3, r5, r2
    91c4:	e1a031a3 	lsr	r3, r3, #3
    91c8:	e0833103 	add	r3, r3, r3, lsl #2
    91cc:	e0423083 	sub	r3, r2, r3, lsl #1
    91d0:	e2833030 	add	r3, r3, #48, 0	; 0x30
    91d4:	e54b304f 	strb	r3, [fp, #-79]	; 0xffffffb1
    91d8:	e0822102 	add	r2, r2, r2, lsl #2
    91dc:	e0482082 	sub	r2, r8, r2, lsl #1
    91e0:	e2823030 	add	r3, r2, #48, 0	; 0x30
    91e4:	e54b304e 	strb	r3, [fp, #-78]	; 0xffffffb2
    91e8:	e58d7000 	str	r7, [sp]
    91ec:	e1a03006 	mov	r3, r6
    91f0:	e3a02045 	mov	r2, #69, 0	; 0x45
    91f4:	e3a0101f 	mov	r1, #31, 0
    91f8:	e24b0050 	sub	r0, fp, #80, 0	; 0x50
    91fc:	eb00039b 	bl	a070 <draw_string>
    9200:	e51f822c 	ldr	r8, [pc, #-556]	; 8fdc <notmain+0xefc>
    9204:	e5980030 	ldr	r0, [r8, #48]	; 0x30
    9208:	eb0008c6 	bl	b528 <kalshi_get_contracts>
    920c:	e00a0a90 	mul	sl, r0, sl
    9210:	e0823a99 	umull	r3, r2, r9, sl
    9214:	e1a022a2 	lsr	r2, r2, #5
    9218:	e0831295 	umull	r1, r3, r5, r2
    921c:	e1a031a3 	lsr	r3, r3, #3
    9220:	e0833103 	add	r3, r3, r3, lsl #2
    9224:	e0423083 	sub	r3, r2, r3, lsl #1
    9228:	e2833030 	add	r3, r3, #48, 0	; 0x30
    922c:	e54b3050 	strb	r3, [fp, #-80]	; 0xffffffb0
    9230:	e0823a95 	umull	r3, r2, r5, sl
    9234:	e1a021a2 	lsr	r2, r2, #3
    9238:	e0831295 	umull	r1, r3, r5, r2
    923c:	e1a031a3 	lsr	r3, r3, #3
    9240:	e0833103 	add	r3, r3, r3, lsl #2
    9244:	e0423083 	sub	r3, r2, r3, lsl #1
    9248:	e2833030 	add	r3, r3, #48, 0	; 0x30
    924c:	e54b304f 	strb	r3, [fp, #-79]	; 0xffffffb1
    9250:	e0822102 	add	r2, r2, r2, lsl #2
    9254:	e04a2082 	sub	r2, sl, r2, lsl #1
    9258:	e2823030 	add	r3, r2, #48, 0	; 0x30
    925c:	e54b304e 	strb	r3, [fp, #-78]	; 0xffffffb2
    9260:	e58d7000 	str	r7, [sp]
    9264:	e1a03006 	mov	r3, r6
    9268:	e3a02045 	mov	r2, #69, 0	; 0x45
    926c:	e3a01047 	mov	r1, #71, 0	; 0x47
    9270:	e24b0050 	sub	r0, fp, #80, 0	; 0x50
    9274:	eb00037d 	bl	a070 <draw_string>
    9278:	e598203c 	ldr	r2, [r8, #60]	; 0x3c
    927c:	e1520006 	cmp	r2, r6
    9280:	1a000052 	bne	93d0 <notmain+0x12f0>
    9284:	e3a030ff 	mov	r3, #255, 0	; 0xff
    9288:	e3520000 	cmp	r2, #0, 0
    928c:	151f2320 	ldrne	r2, [pc, #-800]	; 8f74 <notmain+0xe94>
    9290:	e58d2000 	str	r2, [sp]
    9294:	e3a02036 	mov	r2, #54, 0	; 0x36
    9298:	e3a0102b 	mov	r1, #43, 0	; 0x2b
    929c:	e51f02ec 	ldr	r0, [pc, #-748]	; 8fb8 <notmain+0xed8>
    92a0:	eb000372 	bl	a070 <draw_string>
    92a4:	e51f32d0 	ldr	r3, [pc, #-720]	; 8fdc <notmain+0xefc>
    92a8:	e593203c 	ldr	r2, [r3, #60]	; 0x3c
    92ac:	e3520001 	cmp	r2, #1, 0
    92b0:	0a000048 	beq	93d8 <notmain+0x12f8>
    92b4:	e3a03000 	mov	r3, #0, 0
    92b8:	e3520001 	cmp	r2, #1, 0
    92bc:	0a000047 	beq	93e0 <notmain+0x1300>
    92c0:	e51f2354 	ldr	r2, [pc, #-852]	; 8f74 <notmain+0xe94>
    92c4:	e58d2000 	str	r2, [sp]
    92c8:	e3a02036 	mov	r2, #54, 0	; 0x36
    92cc:	e3a01053 	mov	r1, #83, 0	; 0x53
    92d0:	e51f03a4 	ldr	r0, [pc, #-932]	; 8f34 <notmain+0xe54>
    92d4:	eb000365 	bl	a070 <draw_string>
    92d8:	e51f3304 	ldr	r3, [pc, #-772]	; 8fdc <notmain+0xefc>
    92dc:	e593203c 	ldr	r2, [r3, #60]	; 0x3c
    92e0:	e3520002 	cmp	r2, #2, 0
    92e4:	0a00003f 	beq	93e8 <notmain+0x1308>
    92e8:	e3a03000 	mov	r3, #0, 0
    92ec:	e3520002 	cmp	r2, #2, 0
    92f0:	0a00003e 	beq	93f0 <notmain+0x1310>
    92f4:	e51f2388 	ldr	r2, [pc, #-904]	; 8f74 <notmain+0xe94>
    92f8:	e58d2000 	str	r2, [sp]
    92fc:	e3a0204f 	mov	r2, #79, 0	; 0x4f
    9300:	e3a01023 	mov	r1, #35, 0	; 0x23
    9304:	e51f03d4 	ldr	r0, [pc, #-980]	; 8f38 <notmain+0xe58>
    9308:	eb000358 	bl	a070 <draw_string>
    930c:	e51f3338 	ldr	r3, [pc, #-824]	; 8fdc <notmain+0xefc>
    9310:	e593203c 	ldr	r2, [r3, #60]	; 0x3c
    9314:	e3520003 	cmp	r2, #3, 0
    9318:	0a000036 	beq	93f8 <notmain+0x1318>
    931c:	e3a03000 	mov	r3, #0, 0
    9320:	e3520003 	cmp	r2, #3, 0
    9324:	0a000035 	beq	9400 <notmain+0x1320>
    9328:	e51f23bc 	ldr	r2, [pc, #-956]	; 8f74 <notmain+0xe94>
    932c:	e58d2000 	str	r2, [sp]
    9330:	e3a0204f 	mov	r2, #79, 0	; 0x4f
    9334:	e3a0104b 	mov	r1, #75, 0	; 0x4b
    9338:	e51f0404 	ldr	r0, [pc, #-1028]	; 8f3c <notmain+0xe5c>
    933c:	eb00034b 	bl	a070 <draw_string>
    9340:	e51f336c 	ldr	r3, [pc, #-876]	; 8fdc <notmain+0xefc>
    9344:	e5933004 	ldr	r3, [r3, #4]
    9348:	e3530000 	cmp	r3, #0, 0
    934c:	0afffbc1 	beq	8258 <notmain+0x178>
    9350:	e51f337c 	ldr	r3, [pc, #-892]	; 8fdc <notmain+0xefc>
    9354:	e3a02000 	mov	r2, #0, 0
    9358:	e5832004 	str	r2, [r3, #4]
    935c:	e51f2384 	ldr	r2, [pc, #-900]	; 8fe0 <notmain+0xf00>
    9360:	e3a01001 	mov	r1, #1, 0
    9364:	e5821010 	str	r1, [r2, #16]
    9368:	e5933008 	ldr	r3, [r3, #8]
    936c:	e3530011 	cmp	r3, #17, 0
    9370:	0a000024 	beq	9408 <notmain+0x1328>
    9374:	e3530013 	cmp	r3, #19, 0
    9378:	0a000028 	beq	9420 <notmain+0x1340>
    937c:	e3530015 	cmp	r3, #21, 0
    9380:	0a000099 	beq	95ec <notmain+0x150c>
    9384:	e3530017 	cmp	r3, #23, 0
    9388:	051f33b4 	ldreq	r3, [pc, #-948]	; 8fdc <notmain+0xefc>
    938c:	03a02007 	moveq	r2, #7, 0
    9390:	05c32014 	strbeq	r2, [r3, #20]
    9394:	eafffbaf 	b	8258 <notmain+0x178>
    9398:	e51f0460 	ldr	r0, [pc, #-1120]	; 8f40 <notmain+0xe60>
    939c:	eaffff19 	b	9008 <notmain+0xf28>
    93a0:	e51f3434 	ldr	r3, [pc, #-1076]	; 8f74 <notmain+0xe94>
    93a4:	e58d3000 	str	r3, [sp]
    93a8:	e3a03000 	mov	r3, #0, 0
    93ac:	e3a0201f 	mov	r2, #31, 0
    93b0:	e3a01003 	mov	r1, #3, 0
    93b4:	e51f0478 	ldr	r0, [pc, #-1144]	; 8f44 <notmain+0xe64>
    93b8:	eb00032c 	bl	a070 <draw_string>
    93bc:	eaffff24 	b	9054 <notmain+0xf74>
    93c0:	e51f1470 	ldr	r1, [pc, #-1136]	; 8f58 <notmain+0xe78>
    93c4:	eaffff28 	b	906c <notmain+0xf8c>
    93c8:	e51f1478 	ldr	r1, [pc, #-1144]	; 8f58 <notmain+0xe78>
    93cc:	eaffff2e 	b	908c <notmain+0xfac>
    93d0:	e3a03000 	mov	r3, #0, 0
    93d4:	eaffffab 	b	9288 <notmain+0x11a8>
    93d8:	e3a030ff 	mov	r3, #255, 0	; 0xff
    93dc:	eaffffb5 	b	92b8 <notmain+0x11d8>
    93e0:	e3a02000 	mov	r2, #0, 0
    93e4:	eaffffb6 	b	92c4 <notmain+0x11e4>
    93e8:	e3a030ff 	mov	r3, #255, 0	; 0xff
    93ec:	eaffffbe 	b	92ec <notmain+0x120c>
    93f0:	e3a02000 	mov	r2, #0, 0
    93f4:	eaffffbf 	b	92f8 <notmain+0x1218>
    93f8:	e3a030ff 	mov	r3, #255, 0	; 0xff
    93fc:	eaffffc7 	b	9320 <notmain+0x1240>
    9400:	e3a02000 	mov	r2, #0, 0
    9404:	eaffffc8 	b	932c <notmain+0x124c>
    9408:	e51f2434 	ldr	r2, [pc, #-1076]	; 8fdc <notmain+0xefc>
    940c:	e592303c 	ldr	r3, [r2, #60]	; 0x3c
    9410:	e0833001 	add	r3, r3, r1
    9414:	e2033003 	and	r3, r3, #3, 0
    9418:	e582303c 	str	r3, [r2, #60]	; 0x3c
    941c:	eafffb8d 	b	8258 <notmain+0x178>
    9420:	e51f344c 	ldr	r3, [pc, #-1100]	; 8fdc <notmain+0xefc>
    9424:	e593303c 	ldr	r3, [r3, #60]	; 0x3c
    9428:	e3530001 	cmp	r3, #1, 0
    942c:	0a000005 	beq	9448 <notmain+0x1368>
    9430:	e3530002 	cmp	r3, #2, 0
    9434:	0a000048 	beq	955c <notmain+0x147c>
    9438:	e3530003 	cmp	r3, #3, 0
    943c:	0a000048 	beq	9564 <notmain+0x1484>
    9440:	e3a02001 	mov	r2, #1, 0
    9444:	ea000000 	b	944c <notmain+0x136c>
    9448:	e3a02005 	mov	r2, #5, 0
    944c:	e51f3478 	ldr	r3, [pc, #-1144]	; 8fdc <notmain+0xefc>
    9450:	e5933024 	ldr	r3, [r3, #36]	; 0x24
    9454:	e3530000 	cmp	r3, #0, 0
    9458:	1a000045 	bne	9574 <notmain+0x1494>
    945c:	e51f3488 	ldr	r3, [pc, #-1160]	; 8fdc <notmain+0xefc>
    9460:	e5930030 	ldr	r0, [r3, #48]	; 0x30
    9464:	e5933038 	ldr	r3, [r3, #56]	; 0x38
    9468:	e3530000 	cmp	r3, #0, 0
    946c:	1a00003e 	bne	956c <notmain+0x148c>
    9470:	e51f1524 	ldr	r1, [pc, #-1316]	; 8f54 <notmain+0xe74>
    9474:	eb00086a 	bl	b624 <kalshi_buy>
    9478:	e1a05000 	mov	r5, r0
    947c:	e51f0538 	ldr	r0, [pc, #-1336]	; 8f4c <notmain+0xe6c>
    9480:	eb002686 	bl	12ea0 <delay_ms>
    9484:	e3550000 	cmp	r5, #0, 0
    9488:	1a000044 	bne	95a0 <notmain+0x14c0>
    948c:	e3550000 	cmp	r5, #0, 0
    9490:	0a00004d 	beq	95cc <notmain+0x14ec>
    9494:	e3a00003 	mov	r0, #3, 0
    9498:	e3a0207f 	mov	r2, #127, 0	; 0x7f
    949c:	e58d2000 	str	r2, [sp]
    94a0:	e3a03000 	mov	r3, #0, 0
    94a4:	e1a01003 	mov	r1, r3
    94a8:	e51fc568 	ldr	ip, [pc, #-1384]	; 8f48 <notmain+0xe68>
    94ac:	e08c0780 	add	r0, ip, r0, lsl #15
    94b0:	eb000376 	bl	a290 <st7735_fill_window>
    94b4:	e3a0003e 	mov	r0, #62, 0	; 0x3e
    94b8:	eb002678 	bl	12ea0 <delay_ms>
    94bc:	e3550000 	cmp	r5, #0, 0
    94c0:	0a000043 	beq	95d4 <notmain+0x14f4>
    94c4:	e3a00004 	mov	r0, #4, 0
    94c8:	e3a0207f 	mov	r2, #127, 0	; 0x7f
    94cc:	e58d2000 	str	r2, [sp]
    94d0:	e3a03000 	mov	r3, #0, 0
    94d4:	e1a01003 	mov	r1, r3
    94d8:	e51fc598 	ldr	ip, [pc, #-1432]	; 8f48 <notmain+0xe68>
    94dc:	e08c0780 	add	r0, ip, r0, lsl #15
    94e0:	eb00036a 	bl	a290 <st7735_fill_window>
    94e4:	e3a0003e 	mov	r0, #62, 0	; 0x3e
    94e8:	eb00266c 	bl	12ea0 <delay_ms>
    94ec:	e3550000 	cmp	r5, #0, 0
    94f0:	0a000039 	beq	95dc <notmain+0x14fc>
    94f4:	e3a00005 	mov	r0, #5, 0
    94f8:	e3a0207f 	mov	r2, #127, 0	; 0x7f
    94fc:	e58d2000 	str	r2, [sp]
    9500:	e3a03000 	mov	r3, #0, 0
    9504:	e1a01003 	mov	r1, r3
    9508:	e51fc5c8 	ldr	ip, [pc, #-1480]	; 8f48 <notmain+0xe68>
    950c:	e08c0780 	add	r0, ip, r0, lsl #15
    9510:	eb00035e 	bl	a290 <st7735_fill_window>
    9514:	e3a0003e 	mov	r0, #62, 0	; 0x3e
    9518:	eb002660 	bl	12ea0 <delay_ms>
    951c:	e3550000 	cmp	r5, #0, 0
    9520:	0a00002f 	beq	95e4 <notmain+0x1504>
    9524:	e3a00006 	mov	r0, #6, 0
    9528:	e3a0207f 	mov	r2, #127, 0	; 0x7f
    952c:	e58d2000 	str	r2, [sp]
    9530:	e3a03000 	mov	r3, #0, 0
    9534:	e1a01003 	mov	r1, r3
    9538:	e51fc5f8 	ldr	ip, [pc, #-1528]	; 8f48 <notmain+0xe68>
    953c:	e08c0780 	add	r0, ip, r0, lsl #15
    9540:	eb000352 	bl	a290 <st7735_fill_window>
    9544:	e51f0600 	ldr	r0, [pc, #-1536]	; 8f4c <notmain+0xe6c>
    9548:	eb002654 	bl	12ea0 <delay_ms>
    954c:	e51f3578 	ldr	r3, [pc, #-1400]	; 8fdc <notmain+0xefc>
    9550:	e3a02000 	mov	r2, #0, 0
    9554:	e5c32014 	strb	r2, [r3, #20]
    9558:	eafffb3e 	b	8258 <notmain+0x178>
    955c:	e3a0200a 	mov	r2, #10, 0
    9560:	eaffffb9 	b	944c <notmain+0x136c>
    9564:	e51f261c 	ldr	r2, [pc, #-1564]	; 8f50 <notmain+0xe70>
    9568:	eaffffb7 	b	944c <notmain+0x136c>
    956c:	e51f161c 	ldr	r1, [pc, #-1564]	; 8f58 <notmain+0xe78>
    9570:	eaffffbf 	b	9474 <notmain+0x1394>
    9574:	e51f35a0 	ldr	r3, [pc, #-1440]	; 8fdc <notmain+0xefc>
    9578:	e5930030 	ldr	r0, [r3, #48]	; 0x30
    957c:	e5933038 	ldr	r3, [r3, #56]	; 0x38
    9580:	e3530000 	cmp	r3, #0, 0
    9584:	1a000003 	bne	9598 <notmain+0x14b8>
    9588:	e51f163c 	ldr	r1, [pc, #-1596]	; 8f54 <notmain+0xe74>
    958c:	eb00087f 	bl	b790 <kalshi_sell>
    9590:	e1a05000 	mov	r5, r0
    9594:	eaffffb8 	b	947c <notmain+0x139c>
    9598:	e51f1648 	ldr	r1, [pc, #-1608]	; 8f58 <notmain+0xe78>
    959c:	eafffffa 	b	958c <notmain+0x14ac>
    95a0:	e1a00004 	mov	r0, r4
    95a4:	eb0005d0 	bl	acec <rtc_get_total_seconds>
    95a8:	e51f35d4 	ldr	r3, [pc, #-1492]	; 8fdc <notmain+0xefc>
    95ac:	e583000c 	str	r0, [r3, #12]
    95b0:	e1a00004 	mov	r0, r4
    95b4:	eb000c34 	bl	c68c <write_last_trade>
    95b8:	eb000a96 	bl	c018 <get_last_trade_time>
    95bc:	e1a01000 	mov	r1, r0
    95c0:	e51f066c 	ldr	r0, [pc, #-1644]	; 8f5c <notmain+0xe7c>
    95c4:	eb002493 	bl	12818 <printk>
    95c8:	eaffffaf 	b	948c <notmain+0x13ac>
    95cc:	e3a00007 	mov	r0, #7, 0
    95d0:	eaffffb0 	b	9498 <notmain+0x13b8>
    95d4:	e3a00008 	mov	r0, #8, 0
    95d8:	eaffffba 	b	94c8 <notmain+0x13e8>
    95dc:	e3a00009 	mov	r0, #9, 0
    95e0:	eaffffc4 	b	94f8 <notmain+0x1418>
    95e4:	e3a0000a 	mov	r0, #10, 0
    95e8:	eaffffce 	b	9528 <notmain+0x1448>
    95ec:	e51f3618 	ldr	r3, [pc, #-1560]	; 8fdc <notmain+0xefc>
    95f0:	e3a02000 	mov	r2, #0, 0
    95f4:	e5c32014 	strb	r2, [r3, #20]
    95f8:	eafffb16 	b	8258 <notmain+0x178>
    95fc:	e51f3624 	ldr	r3, [pc, #-1572]	; 8fe0 <notmain+0xf00>
    9600:	e5933010 	ldr	r3, [r3, #16]
    9604:	e3530000 	cmp	r3, #0, 0
    9608:	0a000066 	beq	97a8 <notmain+0x16c8>
    960c:	e51f3638 	ldr	r3, [pc, #-1592]	; 8fdc <notmain+0xefc>
    9610:	e5935028 	ldr	r5, [r3, #40]	; 0x28
    9614:	e3550000 	cmp	r5, #0, 0
    9618:	0a00007d 	beq	9814 <notmain+0x1734>
    961c:	e51f3648 	ldr	r3, [pc, #-1608]	; 8fdc <notmain+0xefc>
    9620:	e5933028 	ldr	r3, [r3, #40]	; 0x28
    9624:	e3530001 	cmp	r3, #1, 0
    9628:	0a0000bc 	beq	9920 <notmain+0x1840>
    962c:	e3a00001 	mov	r0, #1, 0
    9630:	e1a00780 	lsl	r0, r0, #15
    9634:	e2800c4f 	add	r0, r0, #20224	; 0x4f00
    9638:	e3a0207f 	mov	r2, #127, 0	; 0x7f
    963c:	e58d2000 	str	r2, [sp]
    9640:	e3a0304f 	mov	r3, #79, 0	; 0x4f
    9644:	e3a01000 	mov	r1, #0, 0
    9648:	e51fc6e0 	ldr	ip, [pc, #-1760]	; 8f70 <notmain+0xe90>
    964c:	e08c0000 	add	r0, ip, r0
    9650:	eb00030e 	bl	a290 <st7735_fill_window>
    9654:	e51f367c 	ldr	r3, [pc, #-1660]	; 8fe0 <notmain+0xf00>
    9658:	e3a02000 	mov	r2, #0, 0
    965c:	e5832010 	str	r2, [r3, #16]
    9660:	e51f368c 	ldr	r3, [pc, #-1676]	; 8fdc <notmain+0xefc>
    9664:	e5932028 	ldr	r2, [r3, #40]	; 0x28
    9668:	e3520001 	cmp	r2, #1, 0
    966c:	0a0000ad 	beq	9928 <notmain+0x1848>
    9670:	e3a03000 	mov	r3, #0, 0
    9674:	e3520001 	cmp	r2, #1, 0
    9678:	0a0000ac 	beq	9930 <notmain+0x1850>
    967c:	e51f2710 	ldr	r2, [pc, #-1808]	; 8f74 <notmain+0xe94>
    9680:	e58d2000 	str	r2, [sp]
    9684:	e3a0204f 	mov	r2, #79, 0	; 0x4f
    9688:	e3a0101b 	mov	r1, #27, 0
    968c:	e51f0734 	ldr	r0, [pc, #-1844]	; 8f60 <notmain+0xe80>
    9690:	eb000276 	bl	a070 <draw_string>
    9694:	e51f36c0 	ldr	r3, [pc, #-1728]	; 8fdc <notmain+0xefc>
    9698:	e5932028 	ldr	r2, [r3, #40]	; 0x28
    969c:	e3520002 	cmp	r2, #2, 0
    96a0:	0a0000a4 	beq	9938 <notmain+0x1858>
    96a4:	e3a03000 	mov	r3, #0, 0
    96a8:	e3520002 	cmp	r2, #2, 0
    96ac:	0a0000a3 	beq	9940 <notmain+0x1860>
    96b0:	e51f2744 	ldr	r2, [pc, #-1860]	; 8f74 <notmain+0xe94>
    96b4:	e58d2000 	str	r2, [sp]
    96b8:	e3a0204f 	mov	r2, #79, 0	; 0x4f
    96bc:	e3a01053 	mov	r1, #83, 0	; 0x53
    96c0:	e51f0764 	ldr	r0, [pc, #-1892]	; 8f64 <notmain+0xe84>
    96c4:	eb000269 	bl	a070 <draw_string>
    96c8:	e51f775c 	ldr	r7, [pc, #-1884]	; 8f74 <notmain+0xe94>
    96cc:	e58d7000 	str	r7, [sp]
    96d0:	e3a03000 	mov	r3, #0, 0
    96d4:	e3a02061 	mov	r2, #97, 0	; 0x61
    96d8:	e3a01003 	mov	r1, #3, 0
    96dc:	e51f077c 	ldr	r0, [pc, #-1916]	; 8f68 <notmain+0xe88>
    96e0:	eb000262 	bl	a070 <draw_string>
    96e4:	e51f8710 	ldr	r8, [pc, #-1808]	; 8fdc <notmain+0xefc>
    96e8:	e5981044 	ldr	r1, [r8, #68]	; 0x44
    96ec:	e51f576c 	ldr	r5, [pc, #-1900]	; 8f88 <notmain+0xea8>
    96f0:	e0823195 	umull	r3, r2, r5, r1
    96f4:	e1a021a2 	lsr	r2, r2, #3
    96f8:	e0830295 	umull	r0, r3, r5, r2
    96fc:	e1a031a3 	lsr	r3, r3, #3
    9700:	e0833103 	add	r3, r3, r3, lsl #2
    9704:	e0423083 	sub	r3, r2, r3, lsl #1
    9708:	e2833030 	add	r3, r3, #48, 0	; 0x30
    970c:	e54b3054 	strb	r3, [fp, #-84]	; 0xffffffac
    9710:	e0822102 	add	r2, r2, r2, lsl #2
    9714:	e0412082 	sub	r2, r1, r2, lsl #1
    9718:	e2823030 	add	r3, r2, #48, 0	; 0x30
    971c:	e54b3053 	strb	r3, [fp, #-83]	; 0xffffffad
    9720:	e3a06000 	mov	r6, #0, 0
    9724:	e54b6052 	strb	r6, [fp, #-82]	; 0xffffffae
    9728:	e58d7000 	str	r7, [sp]
    972c:	e1a03006 	mov	r3, r6
    9730:	e3a02061 	mov	r2, #97, 0	; 0x61
    9734:	e3a0101b 	mov	r1, #27, 0
    9738:	e24b0054 	sub	r0, fp, #84, 0	; 0x54
    973c:	eb00024b 	bl	a070 <draw_string>
    9740:	e58d7000 	str	r7, [sp]
    9744:	e1a03006 	mov	r3, r6
    9748:	e3a02061 	mov	r2, #97, 0	; 0x61
    974c:	e3a0105b 	mov	r1, #91, 0	; 0x5b
    9750:	e51f07ec 	ldr	r0, [pc, #-2028]	; 8f6c <notmain+0xe8c>
    9754:	eb000245 	bl	a070 <draw_string>
    9758:	e5981048 	ldr	r1, [r8, #72]	; 0x48
    975c:	e0823195 	umull	r3, r2, r5, r1
    9760:	e1a021a2 	lsr	r2, r2, #3
    9764:	e0830295 	umull	r0, r3, r5, r2
    9768:	e1a031a3 	lsr	r3, r3, #3
    976c:	e0833103 	add	r3, r3, r3, lsl #2
    9770:	e0423083 	sub	r3, r2, r3, lsl #1
    9774:	e2833030 	add	r3, r3, #48, 0	; 0x30
    9778:	e54b3050 	strb	r3, [fp, #-80]	; 0xffffffb0
    977c:	e0822102 	add	r2, r2, r2, lsl #2
    9780:	e0412082 	sub	r2, r1, r2, lsl #1
    9784:	e2823030 	add	r3, r2, #48, 0	; 0x30
    9788:	e54b304f 	strb	r3, [fp, #-79]	; 0xffffffb1
    978c:	e54b604e 	strb	r6, [fp, #-78]	; 0xffffffb2
    9790:	e58d7000 	str	r7, [sp]
    9794:	e1a03006 	mov	r3, r6
    9798:	e3a02061 	mov	r2, #97, 0	; 0x61
    979c:	e3a0106b 	mov	r1, #107, 0	; 0x6b
    97a0:	e24b0050 	sub	r0, fp, #80, 0	; 0x50
    97a4:	eb000231 	bl	a070 <draw_string>
    97a8:	e51f37d4 	ldr	r3, [pc, #-2004]	; 8fdc <notmain+0xefc>
    97ac:	e5933004 	ldr	r3, [r3, #4]
    97b0:	e3530000 	cmp	r3, #0, 0
    97b4:	0afffaa7 	beq	8258 <notmain+0x178>
    97b8:	e51f37e4 	ldr	r3, [pc, #-2020]	; 8fdc <notmain+0xefc>
    97bc:	e3a02000 	mov	r2, #0, 0
    97c0:	e5832004 	str	r2, [r3, #4]
    97c4:	e51f27ec 	ldr	r2, [pc, #-2028]	; 8fe0 <notmain+0xf00>
    97c8:	e3a01001 	mov	r1, #1, 0
    97cc:	e5821010 	str	r1, [r2, #16]
    97d0:	e5933008 	ldr	r3, [r3, #8]
    97d4:	e3530011 	cmp	r3, #17, 0
    97d8:	0a00005a 	beq	9948 <notmain+0x1868>
    97dc:	e3530013 	cmp	r3, #19, 0
    97e0:	0a000065 	beq	997c <notmain+0x189c>
    97e4:	e3530015 	cmp	r3, #21, 0
    97e8:	0a000086 	beq	9a08 <notmain+0x1928>
    97ec:	e3530017 	cmp	r3, #23, 0
    97f0:	1afffa98 	bne	8258 <notmain+0x178>
    97f4:	e51f3820 	ldr	r3, [pc, #-2080]	; 8fdc <notmain+0xefc>
    97f8:	e3a02007 	mov	r2, #7, 0
    97fc:	e5c32014 	strb	r2, [r3, #20]
    9800:	e3a02000 	mov	r2, #0, 0
    9804:	e5832028 	str	r2, [r3, #40]	; 0x28
    9808:	e5832048 	str	r2, [r3, #72]	; 0x48
    980c:	e5832030 	str	r2, [r3, #48]	; 0x30
    9810:	eafffa90 	b	8258 <notmain+0x178>
    9814:	e1a0900d 	mov	r9, sp
    9818:	eb000849 	bl	b944 <kalshi_pick_random>
    981c:	e51f3848 	ldr	r3, [pc, #-2120]	; 8fdc <notmain+0xefc>
    9820:	e5830040 	str	r0, [r3, #64]	; 0x40
    9824:	e3a02001 	mov	r2, #1, 0
    9828:	e5832028 	str	r2, [r3, #40]	; 0x28
    982c:	e3a0207f 	mov	r2, #127, 0	; 0x7f
    9830:	e58d2000 	str	r2, [sp]
    9834:	e3a03000 	mov	r3, #0, 0
    9838:	e1a01003 	mov	r1, r3
    983c:	e51f08d4 	ldr	r0, [pc, #-2260]	; 8f70 <notmain+0xe90>
    9840:	eb000292 	bl	a290 <st7735_fill_window>
    9844:	e3a00007 	mov	r0, #7, 0
    9848:	eb0006fb 	bl	b43c <kalshi_get_name_length>
    984c:	e350003c 	cmp	r0, #60, 0	; 0x3c
    9850:	9a00000f 	bls	9894 <notmain+0x17b4>
    9854:	e3a0703c 	mov	r7, #60, 0	; 0x3c
    9858:	e2873008 	add	r3, r7, #8, 0
    985c:	e3c33007 	bic	r3, r3, #7, 0
    9860:	e04dd003 	sub	sp, sp, r3
    9864:	e28da008 	add	sl, sp, #8, 0
    9868:	e1a0800a 	mov	r8, sl
    986c:	e3a01001 	mov	r1, #1, 0
    9870:	e1550007 	cmp	r5, r7
    9874:	2a00000a 	bcs	98a4 <notmain+0x17c4>
    9878:	e2816001 	add	r6, r1, #1, 0
    987c:	e0882005 	add	r2, r8, r5
    9880:	e3a00007 	mov	r0, #7, 0
    9884:	eb0006dc 	bl	b3fc <kalshi_get_name>
    9888:	e2855008 	add	r5, r5, #8, 0
    988c:	e1a01006 	mov	r1, r6
    9890:	eafffff6 	b	9870 <notmain+0x1790>
    9894:	e3a00007 	mov	r0, #7, 0
    9898:	eb0006e7 	bl	b43c <kalshi_get_name_length>
    989c:	e1a07000 	mov	r7, r0
    98a0:	eaffffec 	b	9858 <notmain+0x1778>
    98a4:	e3a05000 	mov	r5, #0, 0
    98a8:	e7ca5007 	strb	r5, [sl, r7]
    98ac:	ea000014 	b	9904 <notmain+0x1824>
    98b0:	e0476001 	sub	r6, r7, r1
    98b4:	e356000f 	cmp	r6, #15, 0
    98b8:	23a0600f 	movcs	r6, #15, 0
    98bc:	e1a02006 	mov	r2, r6
    98c0:	e0881001 	add	r1, r8, r1
    98c4:	e24b0050 	sub	r0, fp, #80, 0	; 0x50
    98c8:	eb002360 	bl	12650 <memcpy>
    98cc:	e24b3024 	sub	r3, fp, #36, 0	; 0x24
    98d0:	e0836006 	add	r6, r3, r6
    98d4:	e3a03000 	mov	r3, #0, 0
    98d8:	e546302c 	strb	r3, [r6, #-44]	; 0xffffffd4
    98dc:	e0852105 	add	r2, r5, r5, lsl #2
    98e0:	e1a02082 	lsl	r2, r2, #1
    98e4:	e282201b 	add	r2, r2, #27, 0
    98e8:	e51f197c 	ldr	r1, [pc, #-2428]	; 8f74 <notmain+0xe94>
    98ec:	e58d1000 	str	r1, [sp]
    98f0:	e6ef2072 	uxtb	r2, r2
    98f4:	e3a01003 	mov	r1, #3, 0
    98f8:	e24b0050 	sub	r0, fp, #80, 0	; 0x50
    98fc:	eb0001db 	bl	a070 <draw_string>
    9900:	e2855001 	add	r5, r5, #1, 0
    9904:	e0651205 	rsb	r1, r5, r5, lsl #4
    9908:	e1510007 	cmp	r1, r7
    990c:	2a000001 	bcs	9918 <notmain+0x1838>
    9910:	e3550003 	cmp	r5, #3, 0
    9914:	daffffe5 	ble	98b0 <notmain+0x17d0>
    9918:	e1a0d009 	mov	sp, r9
    991c:	eaffff3e 	b	961c <notmain+0x153c>
    9920:	e3a00002 	mov	r0, #2, 0
    9924:	eaffff41 	b	9630 <notmain+0x1550>
    9928:	e3a030ff 	mov	r3, #255, 0	; 0xff
    992c:	eaffff50 	b	9674 <notmain+0x1594>
    9930:	e3a02000 	mov	r2, #0, 0
    9934:	eaffff51 	b	9680 <notmain+0x15a0>
    9938:	e3a030ff 	mov	r3, #255, 0	; 0xff
    993c:	eaffff59 	b	96a8 <notmain+0x15c8>
    9940:	e3a02000 	mov	r2, #0, 0
    9944:	eaffff5a 	b	96b4 <notmain+0x15d4>
    9948:	e51f3974 	ldr	r3, [pc, #-2420]	; 8fdc <notmain+0xefc>
    994c:	e5933028 	ldr	r3, [r3, #40]	; 0x28
    9950:	e3530000 	cmp	r3, #0, 0
    9954:	0a000004 	beq	996c <notmain+0x188c>
    9958:	e1530001 	cmp	r3, r1
    995c:	13a03001 	movne	r3, #1, 0
    9960:	1a000002 	bne	9970 <notmain+0x1890>
    9964:	e3a03002 	mov	r3, #2, 0
    9968:	ea000000 	b	9970 <notmain+0x1890>
    996c:	e3a03001 	mov	r3, #1, 0
    9970:	e51f299c 	ldr	r2, [pc, #-2460]	; 8fdc <notmain+0xefc>
    9974:	e5823028 	str	r3, [r2, #40]	; 0x28
    9978:	eafffa36 	b	8258 <notmain+0x178>
    997c:	e51f39a8 	ldr	r3, [pc, #-2472]	; 8fdc <notmain+0xefc>
    9980:	e5933028 	ldr	r3, [r3, #40]	; 0x28
    9984:	e3530000 	cmp	r3, #0, 0
    9988:	0a000009 	beq	99b4 <notmain+0x18d4>
    998c:	e3530001 	cmp	r3, #1, 0
    9990:	0a00000e 	beq	99d0 <notmain+0x18f0>
    9994:	e3530002 	cmp	r3, #2, 0
    9998:	0a000015 	beq	99f4 <notmain+0x1914>
    999c:	e51f39c8 	ldr	r3, [pc, #-2504]	; 8fdc <notmain+0xefc>
    99a0:	e3a02000 	mov	r2, #0, 0
    99a4:	e5832048 	str	r2, [r3, #72]	; 0x48
    99a8:	e51f39d4 	ldr	r3, [pc, #-2516]	; 8fdc <notmain+0xefc>
    99ac:	e3a02000 	mov	r2, #0, 0
    99b0:	e5832028 	str	r2, [r3, #40]	; 0x28
    99b4:	e51f29e0 	ldr	r2, [pc, #-2528]	; 8fdc <notmain+0xefc>
    99b8:	e5923044 	ldr	r3, [r2, #68]	; 0x44
    99bc:	e5921048 	ldr	r1, [r2, #72]	; 0x48
    99c0:	e1530001 	cmp	r3, r1
    99c4:	31a03001 	movcc	r3, r1
    99c8:	e5823044 	str	r3, [r2, #68]	; 0x44
    99cc:	eafffa21 	b	8258 <notmain+0x178>
    99d0:	e51f29fc 	ldr	r2, [pc, #-2556]	; 8fdc <notmain+0xefc>
    99d4:	e5922040 	ldr	r2, [r2, #64]	; 0x40
    99d8:	e3520031 	cmp	r2, #49, 0	; 0x31
    99dc:	9affffec 	bls	9994 <notmain+0x18b4>
    99e0:	e51f2a0c 	ldr	r2, [pc, #-2572]	; 8fdc <notmain+0xefc>
    99e4:	e5923048 	ldr	r3, [r2, #72]	; 0x48
    99e8:	e2833001 	add	r3, r3, #1, 0
    99ec:	e5823048 	str	r3, [r2, #72]	; 0x48
    99f0:	eaffffec 	b	99a8 <notmain+0x18c8>
    99f4:	e51f3a20 	ldr	r3, [pc, #-2592]	; 8fdc <notmain+0xefc>
    99f8:	e5933040 	ldr	r3, [r3, #64]	; 0x40
    99fc:	e3530031 	cmp	r3, #49, 0	; 0x31
    9a00:	8affffe5 	bhi	999c <notmain+0x18bc>
    9a04:	eafffff5 	b	99e0 <notmain+0x1900>
    9a08:	e51f3a34 	ldr	r3, [pc, #-2612]	; 8fdc <notmain+0xefc>
    9a0c:	e3a02000 	mov	r2, #0, 0
    9a10:	e5c32014 	strb	r2, [r3, #20]
    9a14:	e5832028 	str	r2, [r3, #40]	; 0x28
    9a18:	e5832048 	str	r2, [r3, #72]	; 0x48
    9a1c:	e5832030 	str	r2, [r3, #48]	; 0x30
    9a20:	eafffa0c 	b	8258 <notmain+0x178>
    9a24:	e51f3a4c 	ldr	r3, [pc, #-2636]	; 8fe0 <notmain+0xf00>
    9a28:	e5933010 	ldr	r3, [r3, #16]
    9a2c:	e3530000 	cmp	r3, #0, 0
    9a30:	1a000031 	bne	9afc <notmain+0x1a1c>
    9a34:	e1a00004 	mov	r0, r4
    9a38:	eb0004ab 	bl	acec <rtc_get_total_seconds>
    9a3c:	e51f3a68 	ldr	r3, [pc, #-2664]	; 8fdc <notmain+0xefc>
    9a40:	e593300c 	ldr	r3, [r3, #12]
    9a44:	e0401003 	sub	r1, r0, r3
    9a48:	e51f2ad8 	ldr	r2, [pc, #-2776]	; 8f78 <notmain+0xe98>
    9a4c:	e1510002 	cmp	r1, r2
    9a50:	3a000038 	bcc	9b38 <notmain+0x1a58>
    9a54:	e3a03030 	mov	r3, #48, 0	; 0x30
    9a58:	e54b3050 	strb	r3, [fp, #-80]	; 0xffffffb0
    9a5c:	e54b304f 	strb	r3, [fp, #-79]	; 0xffffffb1
    9a60:	e3a02068 	mov	r2, #104, 0	; 0x68
    9a64:	e54b204e 	strb	r2, [fp, #-78]	; 0xffffffb2
    9a68:	e54b304d 	strb	r3, [fp, #-77]	; 0xffffffb3
    9a6c:	e54b304c 	strb	r3, [fp, #-76]	; 0xffffffb4
    9a70:	e3a0206d 	mov	r2, #109, 0	; 0x6d
    9a74:	e54b204b 	strb	r2, [fp, #-75]	; 0xffffffb5
    9a78:	e54b304a 	strb	r3, [fp, #-74]	; 0xffffffb6
    9a7c:	e54b3049 	strb	r3, [fp, #-73]	; 0xffffffb7
    9a80:	e3a03073 	mov	r3, #115, 0	; 0x73
    9a84:	e54b3048 	strb	r3, [fp, #-72]	; 0xffffffb8
    9a88:	e3a03000 	mov	r3, #0, 0
    9a8c:	e54b3047 	strb	r3, [fp, #-71]	; 0xffffffb9
    9a90:	e58d3000 	str	r3, [sp]
    9a94:	e51f3ad0 	ldr	r3, [pc, #-2768]	; 8fcc <notmain+0xeec>
    9a98:	e3a02040 	mov	r2, #64, 0	; 0x40
    9a9c:	e3a0101c 	mov	r1, #28, 0
    9aa0:	e24b0050 	sub	r0, fp, #80, 0	; 0x50
    9aa4:	eb000171 	bl	a070 <draw_string>
    9aa8:	e51f3ad4 	ldr	r3, [pc, #-2772]	; 8fdc <notmain+0xefc>
    9aac:	e5933004 	ldr	r3, [r3, #4]
    9ab0:	e3530000 	cmp	r3, #0, 0
    9ab4:	0afff9e7 	beq	8258 <notmain+0x178>
    9ab8:	e51f3ae4 	ldr	r3, [pc, #-2788]	; 8fdc <notmain+0xefc>
    9abc:	e3a02000 	mov	r2, #0, 0
    9ac0:	e5832004 	str	r2, [r3, #4]
    9ac4:	e5933008 	ldr	r3, [r3, #8]
    9ac8:	e3530015 	cmp	r3, #21, 0
    9acc:	0a000049 	beq	9bf8 <notmain+0x1b18>
    9ad0:	e3530017 	cmp	r3, #23, 0
    9ad4:	1afff9df 	bne	8258 <notmain+0x178>
    9ad8:	e51f3b04 	ldr	r3, [pc, #-2820]	; 8fdc <notmain+0xefc>
    9adc:	e3a02007 	mov	r2, #7, 0
    9ae0:	e5c32014 	strb	r2, [r3, #20]
    9ae4:	e3a02000 	mov	r2, #0, 0
    9ae8:	e5832028 	str	r2, [r3, #40]	; 0x28
    9aec:	e51f3b14 	ldr	r3, [pc, #-2836]	; 8fe0 <notmain+0xf00>
    9af0:	e3a02001 	mov	r2, #1, 0
    9af4:	e5832010 	str	r2, [r3, #16]
    9af8:	eafff9d6 	b	8258 <notmain+0x178>
    9afc:	e3a05000 	mov	r5, #0, 0
    9b00:	e51f3b28 	ldr	r3, [pc, #-2856]	; 8fe0 <notmain+0xf00>
    9b04:	e5835010 	str	r5, [r3, #16]
    9b08:	e24b0050 	sub	r0, fp, #80, 0	; 0x50
    9b0c:	eb000792 	bl	b95c <kalshi_get_streak>
    9b10:	e51f3b3c 	ldr	r3, [pc, #-2876]	; 8fdc <notmain+0xefc>
    9b14:	e3a02001 	mov	r2, #1, 0
    9b18:	e5832010 	str	r2, [r3, #16]
    9b1c:	e3a0207f 	mov	r2, #127, 0	; 0x7f
    9b20:	e58d2000 	str	r2, [sp]
    9b24:	e1a03005 	mov	r3, r5
    9b28:	e1a01005 	mov	r1, r5
    9b2c:	e51f0bb8 	ldr	r0, [pc, #-3000]	; 8f7c <notmain+0xe9c>
    9b30:	eb0001d6 	bl	a290 <st7735_fill_window>
    9b34:	eaffffbe 	b	9a34 <notmain+0x1954>
    9b38:	e0433000 	sub	r3, r3, r0
    9b3c:	e2831a15 	add	r1, r3, #86016	; 0x15000
    9b40:	e2811d06 	add	r1, r1, #384	; 0x180
    9b44:	e51febcc 	ldr	lr, [pc, #-3020]	; 8f80 <notmain+0xea0>
    9b48:	e08e319e 	umull	r3, lr, lr, r1
    9b4c:	e1a0e5ae 	lsr	lr, lr, #11
    9b50:	e06e320e 	rsb	r3, lr, lr, lsl #4
    9b54:	e0633203 	rsb	r3, r3, r3, lsl #4
    9b58:	e0412203 	sub	r2, r1, r3, lsl #4
    9b5c:	e51f3be0 	ldr	r3, [pc, #-3040]	; 8f84 <notmain+0xea4>
    9b60:	e0820293 	umull	r0, r2, r3, r2
    9b64:	e1a022a2 	lsr	r2, r2, #5
    9b68:	e0830193 	umull	r0, r3, r3, r1
    9b6c:	e1a032a3 	lsr	r3, r3, #5
    9b70:	e0633203 	rsb	r3, r3, r3, lsl #4
    9b74:	e0413103 	sub	r3, r1, r3, lsl #2
    9b78:	e51fcbf8 	ldr	ip, [pc, #-3064]	; 8f88 <notmain+0xea8>
    9b7c:	e0801e9c 	umull	r1, r0, ip, lr
    9b80:	e1a001a0 	lsr	r0, r0, #3
    9b84:	e2801030 	add	r1, r0, #48, 0	; 0x30
    9b88:	e54b1050 	strb	r1, [fp, #-80]	; 0xffffffb0
    9b8c:	e0800100 	add	r0, r0, r0, lsl #2
    9b90:	e04e1080 	sub	r1, lr, r0, lsl #1
    9b94:	e2811030 	add	r1, r1, #48, 0	; 0x30
    9b98:	e54b104f 	strb	r1, [fp, #-79]	; 0xffffffb1
    9b9c:	e3a01068 	mov	r1, #104, 0	; 0x68
    9ba0:	e54b104e 	strb	r1, [fp, #-78]	; 0xffffffb2
    9ba4:	e081029c 	umull	r0, r1, ip, r2
    9ba8:	e1a011a1 	lsr	r1, r1, #3
    9bac:	e2810030 	add	r0, r1, #48, 0	; 0x30
    9bb0:	e54b004d 	strb	r0, [fp, #-77]	; 0xffffffb3
    9bb4:	e0811101 	add	r1, r1, r1, lsl #2
    9bb8:	e0421081 	sub	r1, r2, r1, lsl #1
    9bbc:	e2811030 	add	r1, r1, #48, 0	; 0x30
    9bc0:	e54b104c 	strb	r1, [fp, #-76]	; 0xffffffb4
    9bc4:	e3a0206d 	mov	r2, #109, 0	; 0x6d
    9bc8:	e54b204b 	strb	r2, [fp, #-75]	; 0xffffffb5
    9bcc:	e082139c 	umull	r1, r2, ip, r3
    9bd0:	e1a021a2 	lsr	r2, r2, #3
    9bd4:	e2821030 	add	r1, r2, #48, 0	; 0x30
    9bd8:	e54b104a 	strb	r1, [fp, #-74]	; 0xffffffb6
    9bdc:	e0822102 	add	r2, r2, r2, lsl #2
    9be0:	e0433082 	sub	r3, r3, r2, lsl #1
    9be4:	e2833030 	add	r3, r3, #48, 0	; 0x30
    9be8:	e54b3049 	strb	r3, [fp, #-73]	; 0xffffffb7
    9bec:	e3a03073 	mov	r3, #115, 0	; 0x73
    9bf0:	e54b3048 	strb	r3, [fp, #-72]	; 0xffffffb8
    9bf4:	eaffffa3 	b	9a88 <notmain+0x19a8>
    9bf8:	e51f3c20 	ldr	r3, [pc, #-3104]	; 8fe0 <notmain+0xf00>
    9bfc:	e3a02001 	mov	r2, #1, 0
    9c00:	e5832010 	str	r2, [r3, #16]
    9c04:	e51f3c30 	ldr	r3, [pc, #-3120]	; 8fdc <notmain+0xefc>
    9c08:	e3a02000 	mov	r2, #0, 0
    9c0c:	e5c32014 	strb	r2, [r3, #20]
    9c10:	eafff990 	b	8258 <notmain+0x178>
    9c14:	eb00074a 	bl	b944 <kalshi_pick_random>
    9c18:	e51f3c44 	ldr	r3, [pc, #-3140]	; 8fdc <notmain+0xefc>
    9c1c:	e3a02001 	mov	r2, #1, 0
    9c20:	e5832018 	str	r2, [r3, #24]
    9c24:	e3a02007 	mov	r2, #7, 0
    9c28:	e5832030 	str	r2, [r3, #48]	; 0x30
    9c2c:	e3a02000 	mov	r2, #0, 0
    9c30:	e5832024 	str	r2, [r3, #36]	; 0x24
    9c34:	e5832038 	str	r2, [r3, #56]	; 0x38
    9c38:	e5832034 	str	r2, [r3, #52]	; 0x34
    9c3c:	e3a02004 	mov	r2, #4, 0
    9c40:	e5c32014 	strb	r2, [r3, #20]
    9c44:	eafff983 	b	8258 <notmain+0x178>
    9c48:	e51f3c74 	ldr	r3, [pc, #-3188]	; 8fdc <notmain+0xefc>
    9c4c:	e5933004 	ldr	r3, [r3, #4]
    9c50:	e3530000 	cmp	r3, #0, 0
    9c54:	1a000027 	bne	9cf8 <notmain+0x1c18>
    9c58:	e51f3c80 	ldr	r3, [pc, #-3200]	; 8fe0 <notmain+0xf00>
    9c5c:	e5933010 	ldr	r3, [r3, #16]
    9c60:	e3530000 	cmp	r3, #0, 0
    9c64:	0afff97b 	beq	8258 <notmain+0x178>
    9c68:	e3a0507f 	mov	r5, #127, 0	; 0x7f
    9c6c:	e58d5000 	str	r5, [sp]
    9c70:	e3a03000 	mov	r3, #0, 0
    9c74:	e1a02005 	mov	r2, r5
    9c78:	e1a01003 	mov	r1, r3
    9c7c:	e51f0cf8 	ldr	r0, [pc, #-3320]	; 8f8c <notmain+0xeac>
    9c80:	eb000182 	bl	a290 <st7735_fill_window>
    9c84:	e3a000fa 	mov	r0, #250, 0	; 0xfa
    9c88:	eb002484 	bl	12ea0 <delay_ms>
    9c8c:	e51f6d04 	ldr	r6, [pc, #-3332]	; 8f90 <notmain+0xeb0>
    9c90:	e58d5000 	str	r5, [sp]
    9c94:	e3a03000 	mov	r3, #0, 0
    9c98:	e1a02005 	mov	r2, r5
    9c9c:	e1a01003 	mov	r1, r3
    9ca0:	e1a00006 	mov	r0, r6
    9ca4:	eb000179 	bl	a290 <st7735_fill_window>
    9ca8:	e3a000fa 	mov	r0, #250, 0	; 0xfa
    9cac:	eb00247b 	bl	12ea0 <delay_ms>
    9cb0:	e58d5000 	str	r5, [sp]
    9cb4:	e3a03000 	mov	r3, #0, 0
    9cb8:	e1a02005 	mov	r2, r5
    9cbc:	e1a01003 	mov	r1, r3
    9cc0:	e2860902 	add	r0, r6, #32768	; 0x8000
    9cc4:	eb000171 	bl	a290 <st7735_fill_window>
    9cc8:	e3a000fa 	mov	r0, #250, 0	; 0xfa
    9ccc:	eb002473 	bl	12ea0 <delay_ms>
    9cd0:	e58d5000 	str	r5, [sp]
    9cd4:	e3a03000 	mov	r3, #0, 0
    9cd8:	e1a02005 	mov	r2, r5
    9cdc:	e1a01003 	mov	r1, r3
    9ce0:	e2860801 	add	r0, r6, #65536	; 0x10000
    9ce4:	eb000169 	bl	a290 <st7735_fill_window>
    9ce8:	e3a000fa 	mov	r0, #250, 0	; 0xfa
    9cec:	eb00246b 	bl	12ea0 <delay_ms>
    9cf0:	e3a06000 	mov	r6, #0, 0
    9cf4:	ea00003c 	b	9dec <notmain+0x1d0c>
    9cf8:	e51f3d24 	ldr	r3, [pc, #-3364]	; 8fdc <notmain+0xefc>
    9cfc:	e3a05000 	mov	r5, #0, 0
    9d00:	e5835004 	str	r5, [r3, #4]
    9d04:	e5c35014 	strb	r5, [r3, #20]
    9d08:	e51f3d30 	ldr	r3, [pc, #-3376]	; 8fe0 <notmain+0xf00>
    9d0c:	e3a02001 	mov	r2, #1, 0
    9d10:	e5832010 	str	r2, [r3, #16]
    9d14:	e51f7d88 	ldr	r7, [pc, #-3464]	; 8f94 <notmain+0xeb4>
    9d18:	e3a0607f 	mov	r6, #127, 0	; 0x7f
    9d1c:	e58d6000 	str	r6, [sp]
    9d20:	e1a03005 	mov	r3, r5
    9d24:	e1a02006 	mov	r2, r6
    9d28:	e1a01005 	mov	r1, r5
    9d2c:	e1a00007 	mov	r0, r7
    9d30:	eb000156 	bl	a290 <st7735_fill_window>
    9d34:	e3a000fa 	mov	r0, #250, 0	; 0xfa
    9d38:	eb002458 	bl	12ea0 <delay_ms>
    9d3c:	e58d6000 	str	r6, [sp]
    9d40:	e1a03005 	mov	r3, r5
    9d44:	e1a02006 	mov	r2, r6
    9d48:	e1a01005 	mov	r1, r5
    9d4c:	e2470902 	sub	r0, r7, #32768	; 0x8000
    9d50:	eb00014e 	bl	a290 <st7735_fill_window>
    9d54:	e3a000fa 	mov	r0, #250, 0	; 0xfa
    9d58:	eb002450 	bl	12ea0 <delay_ms>
    9d5c:	eafff93d 	b	8258 <notmain+0x178>
    9d60:	e51f7dd0 	ldr	r7, [pc, #-3536]	; 8f98 <notmain+0xeb8>
    9d64:	e3a0507f 	mov	r5, #127, 0	; 0x7f
    9d68:	e58d5000 	str	r5, [sp]
    9d6c:	e3a03000 	mov	r3, #0, 0
    9d70:	e1a02005 	mov	r2, r5
    9d74:	e1a01003 	mov	r1, r3
    9d78:	e1a00007 	mov	r0, r7
    9d7c:	eb000143 	bl	a290 <st7735_fill_window>
    9d80:	e3a0007d 	mov	r0, #125, 0	; 0x7d
    9d84:	eb002445 	bl	12ea0 <delay_ms>
    9d88:	e58d5000 	str	r5, [sp]
    9d8c:	e3a03000 	mov	r3, #0, 0
    9d90:	e1a02005 	mov	r2, r5
    9d94:	e1a01003 	mov	r1, r3
    9d98:	e2870902 	add	r0, r7, #32768	; 0x8000
    9d9c:	eb00013b 	bl	a290 <st7735_fill_window>
    9da0:	e3a0007d 	mov	r0, #125, 0	; 0x7d
    9da4:	eb00243d 	bl	12ea0 <delay_ms>
    9da8:	e58d5000 	str	r5, [sp]
    9dac:	e3a03000 	mov	r3, #0, 0
    9db0:	e1a02005 	mov	r2, r5
    9db4:	e1a01003 	mov	r1, r3
    9db8:	e2870801 	add	r0, r7, #65536	; 0x10000
    9dbc:	eb000133 	bl	a290 <st7735_fill_window>
    9dc0:	e3a0007d 	mov	r0, #125, 0	; 0x7d
    9dc4:	eb002435 	bl	12ea0 <delay_ms>
    9dc8:	e58d5000 	str	r5, [sp]
    9dcc:	e3a03000 	mov	r3, #0, 0
    9dd0:	e1a02005 	mov	r2, r5
    9dd4:	e1a01003 	mov	r1, r3
    9dd8:	e51f0e44 	ldr	r0, [pc, #-3652]	; 8f9c <notmain+0xebc>
    9ddc:	eb00012b 	bl	a290 <st7735_fill_window>
    9de0:	e3a000fa 	mov	r0, #250, 0	; 0xfa
    9de4:	eb00242d 	bl	12ea0 <delay_ms>
    9de8:	e2866001 	add	r6, r6, #1, 0
    9dec:	e3560002 	cmp	r6, #2, 0
    9df0:	daffffda 	ble	9d60 <notmain+0x1c80>
    9df4:	e51f3e1c 	ldr	r3, [pc, #-3612]	; 8fe0 <notmain+0xf00>
    9df8:	e3a02000 	mov	r2, #0, 0
    9dfc:	e5832010 	str	r2, [r3, #16]
    9e00:	eafff914 	b	8258 <notmain+0x178>
    9e04:	e51f3e2c 	ldr	r3, [pc, #-3628]	; 8fe0 <notmain+0xf00>
    9e08:	e5933010 	ldr	r3, [r3, #16]
    9e0c:	e3530000 	cmp	r3, #0, 0
    9e10:	1a00002c 	bne	9ec8 <notmain+0x1de8>
    9e14:	e51f3e40 	ldr	r3, [pc, #-3648]	; 8fdc <notmain+0xefc>
    9e18:	e5933004 	ldr	r3, [r3, #4]
    9e1c:	e3530000 	cmp	r3, #0, 0
    9e20:	0afff90c 	beq	8258 <notmain+0x178>
    9e24:	e51f3e50 	ldr	r3, [pc, #-3664]	; 8fdc <notmain+0xefc>
    9e28:	e3a02000 	mov	r2, #0, 0
    9e2c:	e5832004 	str	r2, [r3, #4]
    9e30:	e5933008 	ldr	r3, [r3, #8]
    9e34:	e3530013 	cmp	r3, #19, 0
    9e38:	1afff906 	bne	8258 <notmain+0x178>
    9e3c:	e51f5ea4 	ldr	r5, [pc, #-3748]	; 8fa0 <notmain+0xec0>
    9e40:	e1a01005 	mov	r1, r5
    9e44:	e51f0ea8 	ldr	r0, [pc, #-3752]	; 8fa4 <notmain+0xec4>
    9e48:	eb00096e 	bl	c408 <write_field_data>
    9e4c:	e1a01005 	mov	r1, r5
    9e50:	e51f0eb0 	ldr	r0, [pc, #-3760]	; 8fa8 <notmain+0xec8>
    9e54:	eb00096b 	bl	c408 <write_field_data>
    9e58:	e1a01005 	mov	r1, r5
    9e5c:	e51f0eb8 	ldr	r0, [pc, #-3768]	; 8fac <notmain+0xecc>
    9e60:	eb000968 	bl	c408 <write_field_data>
    9e64:	e51f1ebc 	ldr	r1, [pc, #-3772]	; 8fb0 <notmain+0xed0>
    9e68:	e51f0ebc 	ldr	r0, [pc, #-3772]	; 8fb4 <notmain+0xed4>
    9e6c:	eb000965 	bl	c408 <write_field_data>
    9e70:	e51f1ec0 	ldr	r1, [pc, #-3776]	; 8fb8 <notmain+0xed8>
    9e74:	e51f0ec0 	ldr	r0, [pc, #-3776]	; 8fbc <notmain+0xedc>
    9e78:	eb000962 	bl	c408 <write_field_data>
    9e7c:	e51f1ec4 	ldr	r1, [pc, #-3780]	; 8fc0 <notmain+0xee0>
    9e80:	e51f0ec4 	ldr	r0, [pc, #-3780]	; 8fc4 <notmain+0xee4>
    9e84:	eb00095f 	bl	c408 <write_field_data>
    9e88:	e1a00004 	mov	r0, r4
    9e8c:	eb0009fe 	bl	c68c <write_last_trade>
    9e90:	e1a00004 	mov	r0, r4
    9e94:	eb000394 	bl	acec <rtc_get_total_seconds>
    9e98:	e51f3ec4 	ldr	r3, [pc, #-3780]	; 8fdc <notmain+0xefc>
    9e9c:	e583000c 	str	r0, [r3, #12]
    9ea0:	e3a02000 	mov	r2, #0, 0
    9ea4:	e5832010 	str	r2, [r3, #16]
    9ea8:	e5832044 	str	r2, [r3, #68]	; 0x44
    9eac:	e5832048 	str	r2, [r3, #72]	; 0x48
    9eb0:	e5832030 	str	r2, [r3, #48]	; 0x30
    9eb4:	e5c32014 	strb	r2, [r3, #20]
    9eb8:	e51f3ee0 	ldr	r3, [pc, #-3808]	; 8fe0 <notmain+0xf00>
    9ebc:	e3a02001 	mov	r2, #1, 0
    9ec0:	e5832010 	str	r2, [r3, #16]
    9ec4:	eafff8e3 	b	8258 <notmain+0x178>
    9ec8:	e3a05000 	mov	r5, #0, 0
    9ecc:	e51f3ef4 	ldr	r3, [pc, #-3828]	; 8fe0 <notmain+0xf00>
    9ed0:	e5835010 	str	r5, [r3, #16]
    9ed4:	e3a0207f 	mov	r2, #127, 0	; 0x7f
    9ed8:	e58d2000 	str	r2, [sp]
    9edc:	e1a03005 	mov	r3, r5
    9ee0:	e1a01005 	mov	r1, r5
    9ee4:	e51f0f24 	ldr	r0, [pc, #-3876]	; 8fc8 <notmain+0xee8>
    9ee8:	eb0000e8 	bl	a290 <st7735_fill_window>
    9eec:	e51f6f28 	ldr	r6, [pc, #-3880]	; 8fcc <notmain+0xeec>
    9ef0:	e58d5000 	str	r5, [sp]
    9ef4:	e1a03006 	mov	r3, r6
    9ef8:	e3a02014 	mov	r2, #20, 0
    9efc:	e3a01003 	mov	r1, #3, 0
    9f00:	e51f0f38 	ldr	r0, [pc, #-3896]	; 8fd0 <notmain+0xef0>
    9f04:	eb000059 	bl	a070 <draw_string>
    9f08:	e58d5000 	str	r5, [sp]
    9f0c:	e1a03006 	mov	r3, r6
    9f10:	e3a02046 	mov	r2, #70, 0	; 0x46
    9f14:	e3a01003 	mov	r1, #3, 0
    9f18:	e51f0f4c 	ldr	r0, [pc, #-3916]	; 8fd4 <notmain+0xef4>
    9f1c:	eb000053 	bl	a070 <draw_string>
    9f20:	e58d5000 	str	r5, [sp]
    9f24:	e1a03006 	mov	r3, r6
    9f28:	e3a0204e 	mov	r2, #78, 0	; 0x4e
    9f2c:	e3a01003 	mov	r1, #3, 0
    9f30:	e51f0f60 	ldr	r0, [pc, #-3936]	; 8fd8 <notmain+0xef8>
    9f34:	eb00004d 	bl	a070 <draw_string>
    9f38:	eaffffb5 	b	9e14 <notmain+0x1d34>
    9f3c:	e51f3f68 	ldr	r3, [pc, #-3944]	; 8fdc <notmain+0xefc>
    9f40:	e3a02000 	mov	r2, #0, 0
    9f44:	e5832004 	str	r2, [r3, #4]
    9f48:	e51f1f70 	ldr	r1, [pc, #-3952]	; 8fe0 <notmain+0xf00>
    9f4c:	e3a00001 	mov	r0, #1, 0
    9f50:	e5810010 	str	r0, [r1, #16]
    9f54:	e5c32014 	strb	r2, [r3, #20]
    9f58:	eafff8be 	b	8258 <notmain+0x178>
    9f5c:	00000000 	andeq	r0, r0, r0

00009f60 <interrupt_vec>:
    9f60:	e59ff048 	ldr	pc, [pc, #72]	; 9fb0 <interrupt_asm+0x1c>
    9f64:	e59ff048 	ldr	pc, [pc, #72]	; 9fb4 <interrupt_asm+0x20>
    9f68:	e59ff048 	ldr	pc, [pc, #72]	; 9fb8 <interrupt_asm+0x24>
    9f6c:	e59ff048 	ldr	pc, [pc, #72]	; 9fbc <interrupt_asm+0x28>
    9f70:	e59ff048 	ldr	pc, [pc, #72]	; 9fc0 <interrupt_asm+0x2c>
    9f74:	e59ff034 	ldr	pc, [pc, #52]	; 9fb0 <interrupt_asm+0x1c>
    9f78:	e59ff044 	ldr	pc, [pc, #68]	; 9fc4 <interrupt_asm+0x30>

00009f7c <fast_interrupt_asm>:
    9f7c:	e3a0d409 	mov	sp, #150994944	; 0x9000000
    9f80:	e24ee004 	sub	lr, lr, #4, 0
    9f84:	e92d500f 	push	{r0, r1, r2, r3, ip, lr}
    9f88:	eb000432 	bl	b058 <dispatch_interrupt>
    9f8c:	e8bd100f 	pop	{r0, r1, r2, r3, ip}
    9f90:	e8fd8000 	ldm	sp!, {pc}^

00009f94 <interrupt_asm>:
    9f94:	e3a0d409 	mov	sp, #150994944	; 0x9000000
    9f98:	e24ee004 	sub	lr, lr, #4, 0
    9f9c:	e92d5fff 	push	{r0, r1, r2, r3, r4, r5, r6, r7, r8, r9, sl, fp, ip, lr}
    9fa0:	e1a0000e 	mov	r0, lr
    9fa4:	eb00042b 	bl	b058 <dispatch_interrupt>
    9fa8:	e8bd5fff 	pop	{r0, r1, r2, r3, r4, r5, r6, r7, r8, r9, sl, fp, ip, lr}
    9fac:	e1b0f00e 	movs	pc, lr
    9fb0:	00012ed0 	.word	0x00012ed0
    9fb4:	00012eec 	.word	0x00012eec
    9fb8:	00012f5c 	.word	0x00012f5c
    9fbc:	00012f08 	.word	0x00012f08
    9fc0:	00012f24 	.word	0x00012f24
    9fc4:	00009f94 	.word	0x00009f94

00009fc8 <draw_char>:
    9fc8:	e92d40f0 	push	{r4, r5, r6, r7, lr}
    9fcc:	e24dd08c 	sub	sp, sp, #140, 0	; 0x8c
    9fd0:	e1dd6ab0 	ldrh	r6, [sp, #160]	; 0xa0
    9fd4:	e1a07180 	lsl	r7, r0, #3
    9fd8:	e3a05000 	mov	r5, #0, 0
    9fdc:	e1a0e005 	mov	lr, r5
    9fe0:	ea000010 	b	a028 <draw_char+0x60>
    9fe4:	e28dc088 	add	ip, sp, #136, 0	; 0x88
    9fe8:	e08cc08e 	add	ip, ip, lr, lsl #1
    9fec:	e14c68b0 	strh	r6, [ip, #-128]	; 0xffffff80
    9ff0:	e28ee001 	add	lr, lr, #1, 0
    9ff4:	e2800001 	add	r0, r0, #1, 0
    9ff8:	e3500007 	cmp	r0, #7, 0
    9ffc:	ca000008 	bgt	a024 <draw_char+0x5c>
    a000:	e260c007 	rsb	ip, r0, #7, 0
    a004:	e1a0cc54 	asr	ip, r4, ip
    a008:	e31c0001 	tst	ip, #1, 0
    a00c:	0afffff4 	beq	9fe4 <draw_char+0x1c>
    a010:	e28dc088 	add	ip, sp, #136, 0	; 0x88
    a014:	e08cc08e 	add	ip, ip, lr, lsl #1
    a018:	e14c38b0 	strh	r3, [ip, #-128]	; 0xffffff80
    a01c:	e28ee001 	add	lr, lr, #1, 0
    a020:	eafffff3 	b	9ff4 <draw_char+0x2c>
    a024:	e2855001 	add	r5, r5, #1, 0
    a028:	e3550007 	cmp	r5, #7, 0
    a02c:	ca000004 	bgt	a044 <draw_char+0x7c>
    a030:	e0850007 	add	r0, r5, r7
    a034:	e59fc030 	ldr	ip, [pc, #48]	; a06c <draw_char+0xa4>
    a038:	e7dc4000 	ldrb	r4, [ip, r0]
    a03c:	e3a00000 	mov	r0, #0, 0
    a040:	eaffffec 	b	9ff8 <draw_char+0x30>
    a044:	e2810007 	add	r0, r1, #7, 0
    a048:	e2823007 	add	r3, r2, #7, 0
    a04c:	e6ef3073 	uxtb	r3, r3
    a050:	e58d3000 	str	r3, [sp]
    a054:	e1a03002 	mov	r3, r2
    a058:	e6ef2070 	uxtb	r2, r0
    a05c:	e28d0008 	add	r0, sp, #8, 0
    a060:	eb00008a 	bl	a290 <st7735_fill_window>
    a064:	e28dd08c 	add	sp, sp, #140, 0	; 0x8c
    a068:	e8bd80f0 	pop	{r4, r5, r6, r7, pc}
    a06c:	0019e57c 	.word	0x0019e57c

0000a070 <draw_string>:
    a070:	e92d43f0 	push	{r4, r5, r6, r7, r8, r9, lr}
    a074:	e24dd00c 	sub	sp, sp, #12, 0
    a078:	e1a06000 	mov	r6, r0
    a07c:	e1a08002 	mov	r8, r2
    a080:	e1a07003 	mov	r7, r3
    a084:	e1dd92b8 	ldrh	r9, [sp, #40]	; 0x28
    a088:	e1a04001 	mov	r4, r1
    a08c:	e3a05000 	mov	r5, #0, 0
    a090:	e7d60005 	ldrb	r0, [r6, r5]
    a094:	e3500000 	cmp	r0, #0, 0
    a098:	0a000007 	beq	a0bc <draw_string+0x4c>
    a09c:	e58d9000 	str	r9, [sp]
    a0a0:	e1a03007 	mov	r3, r7
    a0a4:	e1a02008 	mov	r2, r8
    a0a8:	e6ef1074 	uxtb	r1, r4
    a0ac:	ebffffc5 	bl	9fc8 <draw_char>
    a0b0:	e2844008 	add	r4, r4, #8, 0
    a0b4:	e2855001 	add	r5, r5, #1, 0
    a0b8:	eafffff4 	b	a090 <draw_string+0x20>
    a0bc:	e28dd00c 	add	sp, sp, #12, 0
    a0c0:	e8bd83f0 	pop	{r4, r5, r6, r7, r8, r9, pc}

0000a0c4 <st7735_send_cmd>:
    a0c4:	e52de004 	push	{lr}		; (str lr, [sp, #-4]!)
    a0c8:	e24dd02c 	sub	sp, sp, #44, 0	; 0x2c
    a0cc:	e5cd001f 	strb	r0, [sp, #31]
    a0d0:	e3a00018 	mov	r0, #24, 0
    a0d4:	eb001f5a 	bl	11e44 <gpio_set_off>
    a0d8:	e59f3030 	ldr	r3, [pc, #48]	; a110 <st7735_send_cmd+0x4c>
    a0dc:	e3a02001 	mov	r2, #1, 0
    a0e0:	e58d2010 	str	r2, [sp, #16]
    a0e4:	e28d201f 	add	r2, sp, #31, 0
    a0e8:	e58d200c 	str	r2, [sp, #12]
    a0ec:	e28d2024 	add	r2, sp, #36, 0	; 0x24
    a0f0:	e58d2008 	str	r2, [sp, #8]
    a0f4:	e5931014 	ldr	r1, [r3, #20]
    a0f8:	e5930010 	ldr	r0, [r3, #16]
    a0fc:	e88d0003 	stm	sp, {r0, r1}
    a100:	e893000f 	ldm	r3, {r0, r1, r2, r3}
    a104:	eb001d8f 	bl	11748 <spi_n_transfer>
    a108:	e28dd02c 	add	sp, sp, #44, 0	; 0x2c
    a10c:	e49df004 	pop	{pc}		; (ldr pc, [sp], #4)
    a110:	0019b4b0 	.word	0x0019b4b0

0000a114 <st7735_send_data>:
    a114:	e52de004 	push	{lr}		; (str lr, [sp, #-4]!)
    a118:	e24dd02c 	sub	sp, sp, #44, 0	; 0x2c
    a11c:	e5cd001f 	strb	r0, [sp, #31]
    a120:	e3a00018 	mov	r0, #24, 0
    a124:	eb001f31 	bl	11df0 <gpio_set_on>
    a128:	e59f3030 	ldr	r3, [pc, #48]	; a160 <st7735_send_data+0x4c>
    a12c:	e3a02001 	mov	r2, #1, 0
    a130:	e58d2010 	str	r2, [sp, #16]
    a134:	e28d201f 	add	r2, sp, #31, 0
    a138:	e58d200c 	str	r2, [sp, #12]
    a13c:	e28d2024 	add	r2, sp, #36, 0	; 0x24
    a140:	e58d2008 	str	r2, [sp, #8]
    a144:	e5931014 	ldr	r1, [r3, #20]
    a148:	e5930010 	ldr	r0, [r3, #16]
    a14c:	e88d0003 	stm	sp, {r0, r1}
    a150:	e893000f 	ldm	r3, {r0, r1, r2, r3}
    a154:	eb001d7b 	bl	11748 <spi_n_transfer>
    a158:	e28dd02c 	add	sp, sp, #44, 0	; 0x2c
    a15c:	e49df004 	pop	{pc}		; (ldr pc, [sp], #4)
    a160:	0019b4b0 	.word	0x0019b4b0

0000a164 <st7735_send_data16>:
    a164:	e92d4010 	push	{r4, lr}
    a168:	e24dd020 	sub	sp, sp, #32, 0
    a16c:	e1a04000 	mov	r4, r0
    a170:	e3a00018 	mov	r0, #24, 0
    a174:	eb001f1d 	bl	11df0 <gpio_set_on>
    a178:	e1a03424 	lsr	r3, r4, #8
    a17c:	e5cd301c 	strb	r3, [sp, #28]
    a180:	e5cd401d 	strb	r4, [sp, #29]
    a184:	e59f3030 	ldr	r3, [pc, #48]	; a1bc <st7735_send_data16+0x58>
    a188:	e3a02002 	mov	r2, #2, 0
    a18c:	e58d2010 	str	r2, [sp, #16]
    a190:	e28d201c 	add	r2, sp, #28, 0
    a194:	e58d200c 	str	r2, [sp, #12]
    a198:	e28d2018 	add	r2, sp, #24, 0
    a19c:	e58d2008 	str	r2, [sp, #8]
    a1a0:	e5931014 	ldr	r1, [r3, #20]
    a1a4:	e5930010 	ldr	r0, [r3, #16]
    a1a8:	e88d0003 	stm	sp, {r0, r1}
    a1ac:	e893000f 	ldm	r3, {r0, r1, r2, r3}
    a1b0:	eb001d64 	bl	11748 <spi_n_transfer>
    a1b4:	e28dd020 	add	sp, sp, #32, 0
    a1b8:	e8bd8010 	pop	{r4, pc}
    a1bc:	0019b4b0 	.word	0x0019b4b0

0000a1c0 <st7735_init>:
    a1c0:	e92d4010 	push	{r4, lr}
    a1c4:	e3a00018 	mov	r0, #24, 0
    a1c8:	eb001efb 	bl	11dbc <gpio_set_output>
    a1cc:	e3a0001a 	mov	r0, #26, 0
    a1d0:	eb001ef9 	bl	11dbc <gpio_set_output>
    a1d4:	e3a0001a 	mov	r0, #26, 0
    a1d8:	eb001f19 	bl	11e44 <gpio_set_off>
    a1dc:	e3a00032 	mov	r0, #50, 0	; 0x32
    a1e0:	eb00232e 	bl	12ea0 <delay_ms>
    a1e4:	e3a0001a 	mov	r0, #26, 0
    a1e8:	eb001f00 	bl	11df0 <gpio_set_on>
    a1ec:	e3a00032 	mov	r0, #50, 0	; 0x32
    a1f0:	eb00232a 	bl	12ea0 <delay_ms>
    a1f4:	e3a00001 	mov	r0, #1, 0
    a1f8:	ebffffb1 	bl	a0c4 <st7735_send_cmd>
    a1fc:	e3a00096 	mov	r0, #150, 0	; 0x96
    a200:	eb002326 	bl	12ea0 <delay_ms>
    a204:	e3a00011 	mov	r0, #17, 0
    a208:	ebffffad 	bl	a0c4 <st7735_send_cmd>
    a20c:	e3a000ff 	mov	r0, #255, 0	; 0xff
    a210:	eb002322 	bl	12ea0 <delay_ms>
    a214:	e3a0003a 	mov	r0, #58, 0	; 0x3a
    a218:	ebffffa9 	bl	a0c4 <st7735_send_cmd>
    a21c:	e3a00005 	mov	r0, #5, 0
    a220:	ebffffbb 	bl	a114 <st7735_send_data>
    a224:	e3a00036 	mov	r0, #54, 0	; 0x36
    a228:	ebffffa5 	bl	a0c4 <st7735_send_cmd>
    a22c:	e3a000c8 	mov	r0, #200, 0	; 0xc8
    a230:	ebffffb7 	bl	a114 <st7735_send_data>
    a234:	e3a00029 	mov	r0, #41, 0	; 0x29
    a238:	ebffffa1 	bl	a0c4 <st7735_send_cmd>
    a23c:	e3a00064 	mov	r0, #100, 0	; 0x64
    a240:	eb002316 	bl	12ea0 <delay_ms>
    a244:	e8bd8010 	pop	{r4, pc}

0000a248 <st7735_set_window>:
    a248:	e92d41f0 	push	{r4, r5, r6, r7, r8, lr}
    a24c:	e1a07000 	mov	r7, r0
    a250:	e1a06001 	mov	r6, r1
    a254:	e1a05002 	mov	r5, r2
    a258:	e1a04003 	mov	r4, r3
    a25c:	e3a0002a 	mov	r0, #42, 0	; 0x2a
    a260:	ebffff97 	bl	a0c4 <st7735_send_cmd>
    a264:	e2870002 	add	r0, r7, #2, 0
    a268:	ebffffbd 	bl	a164 <st7735_send_data16>
    a26c:	e2860002 	add	r0, r6, #2, 0
    a270:	ebffffbb 	bl	a164 <st7735_send_data16>
    a274:	e3a0002b 	mov	r0, #43, 0	; 0x2b
    a278:	ebffff91 	bl	a0c4 <st7735_send_cmd>
    a27c:	e2850003 	add	r0, r5, #3, 0
    a280:	ebffffb7 	bl	a164 <st7735_send_data16>
    a284:	e2840003 	add	r0, r4, #3, 0
    a288:	ebffffb5 	bl	a164 <st7735_send_data16>
    a28c:	e8bd81f0 	pop	{r4, r5, r6, r7, r8, pc}

0000a290 <st7735_fill_window>:
    a290:	e92d49f0 	push	{r4, r5, r6, r7, r8, fp, lr}
    a294:	e28db018 	add	fp, sp, #24, 0
    a298:	e24dd01c 	sub	sp, sp, #28, 0
    a29c:	e1a06000 	mov	r6, r0
    a2a0:	e1a08001 	mov	r8, r1
    a2a4:	e1a05002 	mov	r5, r2
    a2a8:	e1a07003 	mov	r7, r3
    a2ac:	e5db4004 	ldrb	r4, [fp, #4]
    a2b0:	e1a03004 	mov	r3, r4
    a2b4:	e1a02007 	mov	r2, r7
    a2b8:	e1a01005 	mov	r1, r5
    a2bc:	e1a00008 	mov	r0, r8
    a2c0:	ebffffe0 	bl	a248 <st7735_set_window>
    a2c4:	e3a0002c 	mov	r0, #44, 0	; 0x2c
    a2c8:	ebffff7d 	bl	a0c4 <st7735_send_cmd>
    a2cc:	e3a00018 	mov	r0, #24, 0
    a2d0:	eb001ec6 	bl	11df0 <gpio_set_on>
    a2d4:	e0455008 	sub	r5, r5, r8
    a2d8:	e2855001 	add	r5, r5, #1, 0
    a2dc:	e0444007 	sub	r4, r4, r7
    a2e0:	e2844001 	add	r4, r4, #1, 0
    a2e4:	e0040594 	mul	r4, r4, r5
    a2e8:	e1a04084 	lsl	r4, r4, #1
    a2ec:	e2843007 	add	r3, r4, #7, 0
    a2f0:	e3c33007 	bic	r3, r3, #7, 0
    a2f4:	e04dd003 	sub	sp, sp, r3
    a2f8:	e28d2018 	add	r2, sp, #24, 0
    a2fc:	e59f3024 	ldr	r3, [pc, #36]	; a328 <st7735_fill_window+0x98>
    a300:	e58d4010 	str	r4, [sp, #16]
    a304:	e58d600c 	str	r6, [sp, #12]
    a308:	e58d2008 	str	r2, [sp, #8]
    a30c:	e5931014 	ldr	r1, [r3, #20]
    a310:	e5930010 	ldr	r0, [r3, #16]
    a314:	e88d0003 	stm	sp, {r0, r1}
    a318:	e893000f 	ldm	r3, {r0, r1, r2, r3}
    a31c:	eb001d09 	bl	11748 <spi_n_transfer>
    a320:	e24bd018 	sub	sp, fp, #24, 0
    a324:	e8bd89f0 	pop	{r4, r5, r6, r7, r8, fp, pc}
    a328:	0019b4b0 	.word	0x0019b4b0

0000a32c <st7735_fill_screen>:
    a32c:	e92d4070 	push	{r4, r5, r6, lr}
    a330:	e1a05000 	mov	r5, r0
    a334:	e3a0307f 	mov	r3, #127, 0	; 0x7f
    a338:	e3a02000 	mov	r2, #0, 0
    a33c:	e1a01003 	mov	r1, r3
    a340:	e1a00002 	mov	r0, r2
    a344:	ebffffbf 	bl	a248 <st7735_set_window>
    a348:	e3a0002c 	mov	r0, #44, 0	; 0x2c
    a34c:	ebffff5c 	bl	a0c4 <st7735_send_cmd>
    a350:	e3a04000 	mov	r4, #0, 0
    a354:	e3540901 	cmp	r4, #16384	; 0x4000
    a358:	a8bd8070 	popge	{r4, r5, r6, pc}
    a35c:	e1a00005 	mov	r0, r5
    a360:	ebffff7f 	bl	a164 <st7735_send_data16>
    a364:	e2844001 	add	r4, r4, #1, 0
    a368:	eafffff9 	b	a354 <st7735_fill_screen+0x28>

0000a36c <draw_pixel>:
    a36c:	e92d4010 	push	{r4, lr}
    a370:	e1a03001 	mov	r3, r1
    a374:	e1a04002 	mov	r4, r2
    a378:	e1a02001 	mov	r2, r1
    a37c:	e1a01000 	mov	r1, r0
    a380:	ebffffb0 	bl	a248 <st7735_set_window>
    a384:	e3a0002c 	mov	r0, #44, 0	; 0x2c
    a388:	ebffff4d 	bl	a0c4 <st7735_send_cmd>
    a38c:	e1a00004 	mov	r0, r4
    a390:	ebffff73 	bl	a164 <st7735_send_data16>
    a394:	e8bd8010 	pop	{r4, pc}

0000a398 <random_init>:
    a398:	e92d47f0 	push	{r4, r5, r6, r7, r8, r9, sl, lr}
    a39c:	e1a05000 	mov	r5, r0
    a3a0:	eb000222 	bl	ac30 <rtc_get_seconds>
    a3a4:	e1a04000 	mov	r4, r0
    a3a8:	e1a00005 	mov	r0, r5
    a3ac:	eb000226 	bl	ac4c <rtc_get_minutes>
    a3b0:	e1a09000 	mov	r9, r0
    a3b4:	e1a00005 	mov	r0, r5
    a3b8:	eb00022a 	bl	ac68 <rtc_get_hours>
    a3bc:	e1a08000 	mov	r8, r0
    a3c0:	e1a00005 	mov	r0, r5
    a3c4:	eb00022e 	bl	ac84 <rtc_get_days>
    a3c8:	e1a07000 	mov	r7, r0
    a3cc:	e1a00005 	mov	r0, r5
    a3d0:	eb000237 	bl	acb4 <rtc_get_months>
    a3d4:	e1a06000 	mov	r6, r0
    a3d8:	e1a00005 	mov	r0, r5
    a3dc:	eb00023b 	bl	acd0 <rtc_get_years>
    a3e0:	e1844309 	orr	r4, r4, r9, lsl #6
    a3e4:	e1844608 	orr	r4, r4, r8, lsl #12
    a3e8:	e1844887 	orr	r4, r4, r7, lsl #17
    a3ec:	e1844b06 	orr	r4, r4, r6, lsl #22
    a3f0:	e1840d00 	orr	r0, r4, r0, lsl #26
    a3f4:	e59f3010 	ldr	r3, [pc, #16]	; a40c <random_init+0x74>
    a3f8:	e5830000 	str	r0, [r3]
    a3fc:	e3500000 	cmp	r0, #0, 0
    a400:	059f2008 	ldreq	r2, [pc, #8]	; a410 <random_init+0x78>
    a404:	05832000 	streq	r2, [r3]
    a408:	e8bd87f0 	pop	{r4, r5, r6, r7, r8, r9, sl, pc}
    a40c:	0019eea0 	.word	0x0019eea0
    a410:	deadbeef 	.word	0xdeadbeef

0000a414 <random_next>:
    a414:	e59f3014 	ldr	r3, [pc, #20]	; a430 <random_next+0x1c>
    a418:	e5930000 	ldr	r0, [r3]
    a41c:	e0200680 	eor	r0, r0, r0, lsl #13
    a420:	e02008a0 	eor	r0, r0, r0, lsr #17
    a424:	e0200280 	eor	r0, r0, r0, lsl #5
    a428:	e5830000 	str	r0, [r3]
    a42c:	e12fff1e 	bx	lr
    a430:	0019eea0 	.word	0x0019eea0

0000a434 <random_gen>:
    a434:	e92d4070 	push	{r4, r5, r6, lr}
    a438:	e1a05000 	mov	r5, r0
    a43c:	e1a04001 	mov	r4, r1
    a440:	ebfffff3 	bl	a414 <random_next>
    a444:	e0441005 	sub	r1, r4, r5
    a448:	e2811001 	add	r1, r1, #1, 0
    a44c:	eb0023d1 	bl	13398 <__aeabi_uidivmod>
    a450:	e0810005 	add	r0, r1, r5
    a454:	e8bd8070 	pop	{r4, r5, r6, pc}

0000a458 <scl_is_high>:
    a458:	e92d4010 	push	{r4, lr}
    a45c:	e5900008 	ldr	r0, [r0, #8]
    a460:	eb001ea0 	bl	11ee8 <gpio_read>
    a464:	e8bd8010 	pop	{r4, pc}

0000a468 <wait_for_scl_high>:
    a468:	e92d4070 	push	{r4, r5, r6, lr}
    a46c:	e1a05000 	mov	r5, r0
    a470:	e5900008 	ldr	r0, [r0, #8]
    a474:	eb001e8e 	bl	11eb4 <gpio_set_input>
    a478:	e5d50000 	ldrb	r0, [r5]
    a47c:	eb00227e 	bl	12e7c <delay_us>
    a480:	e3a04064 	mov	r4, #100, 0	; 0x64
    a484:	e1a00005 	mov	r0, r5
    a488:	ebfffff2 	bl	a458 <scl_is_high>
    a48c:	e3500000 	cmp	r0, #0, 0
    a490:	1a000007 	bne	a4b4 <wait_for_scl_high+0x4c>
    a494:	e2446001 	sub	r6, r4, #1, 0
    a498:	e3540000 	cmp	r4, #0, 0
    a49c:	0a000003 	beq	a4b0 <wait_for_scl_high+0x48>
    a4a0:	e5d50000 	ldrb	r0, [r5]
    a4a4:	eb002274 	bl	12e7c <delay_us>
    a4a8:	e1a04006 	mov	r4, r6
    a4ac:	eafffff4 	b	a484 <wait_for_scl_high+0x1c>
    a4b0:	e1a04006 	mov	r4, r6
    a4b4:	e3540000 	cmp	r4, #0, 0
    a4b8:	da000001 	ble	a4c4 <wait_for_scl_high+0x5c>
    a4bc:	e3a00000 	mov	r0, #0, 0
    a4c0:	e8bd8070 	pop	{r4, r5, r6, pc}
    a4c4:	e59f100c 	ldr	r1, [pc, #12]	; a4d8 <wait_for_scl_high+0x70>
    a4c8:	e59f000c 	ldr	r0, [pc, #12]	; a4dc <wait_for_scl_high+0x74>
    a4cc:	eb0020d1 	bl	12818 <printk>
    a4d0:	e3e00000 	mvn	r0, #0, 0
    a4d4:	e8bd8070 	pop	{r4, r5, r6, pc}
    a4d8:	0019b4f8 	.word	0x0019b4f8
    a4dc:	0019b4c8 	.word	0x0019b4c8

0000a4e0 <sda_is_high>:
    a4e0:	e92d4010 	push	{r4, lr}
    a4e4:	e5900004 	ldr	r0, [r0, #4]
    a4e8:	eb001e7e 	bl	11ee8 <gpio_read>
    a4ec:	e8bd8010 	pop	{r4, pc}

0000a4f0 <write_bit>:
    a4f0:	e92d4010 	push	{r4, lr}
    a4f4:	e1a04000 	mov	r4, r0
    a4f8:	e3510000 	cmp	r1, #0, 0
    a4fc:	0a000013 	beq	a550 <write_bit+0x60>
    a500:	e5900004 	ldr	r0, [r0, #4]
    a504:	eb001e6a 	bl	11eb4 <gpio_set_input>
    a508:	e5d40000 	ldrb	r0, [r4]
    a50c:	eb00225a 	bl	12e7c <delay_us>
    a510:	e5d40000 	ldrb	r0, [r4]
    a514:	eb002258 	bl	12e7c <delay_us>
    a518:	e1a00004 	mov	r0, r4
    a51c:	ebffffd1 	bl	a468 <wait_for_scl_high>
    a520:	e3500000 	cmp	r0, #0, 0
    a524:	ba000010 	blt	a56c <write_bit+0x7c>
    a528:	e5d40000 	ldrb	r0, [r4]
    a52c:	eb002252 	bl	12e7c <delay_us>
    a530:	e5940008 	ldr	r0, [r4, #8]
    a534:	eb001e20 	bl	11dbc <gpio_set_output>
    a538:	e5940008 	ldr	r0, [r4, #8]
    a53c:	eb001e40 	bl	11e44 <gpio_set_off>
    a540:	e5d40000 	ldrb	r0, [r4]
    a544:	eb00224c 	bl	12e7c <delay_us>
    a548:	e3a00000 	mov	r0, #0, 0
    a54c:	e8bd8010 	pop	{r4, pc}
    a550:	e5900004 	ldr	r0, [r0, #4]
    a554:	eb001e18 	bl	11dbc <gpio_set_output>
    a558:	e5940004 	ldr	r0, [r4, #4]
    a55c:	eb001e38 	bl	11e44 <gpio_set_off>
    a560:	e5d40000 	ldrb	r0, [r4]
    a564:	eb002244 	bl	12e7c <delay_us>
    a568:	eaffffe8 	b	a510 <write_bit+0x20>
    a56c:	e3e00000 	mvn	r0, #0, 0
    a570:	e8bd8010 	pop	{r4, pc}

0000a574 <read_bit>:
    a574:	e92d4070 	push	{r4, r5, r6, lr}
    a578:	e1a04000 	mov	r4, r0
    a57c:	e5900004 	ldr	r0, [r0, #4]
    a580:	eb001e4b 	bl	11eb4 <gpio_set_input>
    a584:	e5d40000 	ldrb	r0, [r4]
    a588:	eb00223b 	bl	12e7c <delay_us>
    a58c:	e5d40000 	ldrb	r0, [r4]
    a590:	eb002239 	bl	12e7c <delay_us>
    a594:	e1a00004 	mov	r0, r4
    a598:	ebffffb2 	bl	a468 <wait_for_scl_high>
    a59c:	e3500000 	cmp	r0, #0, 0
    a5a0:	ba00000e 	blt	a5e0 <read_bit+0x6c>
    a5a4:	e5d40000 	ldrb	r0, [r4]
    a5a8:	eb002233 	bl	12e7c <delay_us>
    a5ac:	e1a00004 	mov	r0, r4
    a5b0:	ebffffca 	bl	a4e0 <sda_is_high>
    a5b4:	e1a05000 	mov	r5, r0
    a5b8:	e5d40000 	ldrb	r0, [r4]
    a5bc:	eb00222e 	bl	12e7c <delay_us>
    a5c0:	e5940008 	ldr	r0, [r4, #8]
    a5c4:	eb001dfc 	bl	11dbc <gpio_set_output>
    a5c8:	e5940008 	ldr	r0, [r4, #8]
    a5cc:	eb001e1c 	bl	11e44 <gpio_set_off>
    a5d0:	e5d40000 	ldrb	r0, [r4]
    a5d4:	eb002228 	bl	12e7c <delay_us>
    a5d8:	e1a00005 	mov	r0, r5
    a5dc:	e8bd8070 	pop	{r4, r5, r6, pc}
    a5e0:	e3e05000 	mvn	r5, #0, 0
    a5e4:	eafffffb 	b	a5d8 <read_bit+0x64>

0000a5e8 <i2c_init>:
    a5e8:	e92d41f0 	push	{r4, r5, r6, r7, r8, lr}
    a5ec:	e1a05000 	mov	r5, r0
    a5f0:	e1a07001 	mov	r7, r1
    a5f4:	e1a06002 	mov	r6, r2
    a5f8:	e3a0000c 	mov	r0, #12, 0
    a5fc:	eb001d77 	bl	11be0 <kmalloc>
    a600:	e1a04000 	mov	r4, r0
    a604:	e5805004 	str	r5, [r0, #4]
    a608:	e5807008 	str	r7, [r0, #8]
    a60c:	e5c06000 	strb	r6, [r0]
    a610:	e1a00005 	mov	r0, r5
    a614:	eb001de8 	bl	11dbc <gpio_set_output>
    a618:	e5940008 	ldr	r0, [r4, #8]
    a61c:	eb001de6 	bl	11dbc <gpio_set_output>
    a620:	e5940004 	ldr	r0, [r4, #4]
    a624:	eb001e22 	bl	11eb4 <gpio_set_input>
    a628:	e5d40000 	ldrb	r0, [r4]
    a62c:	eb002212 	bl	12e7c <delay_us>
    a630:	e5940008 	ldr	r0, [r4, #8]
    a634:	eb001e1e 	bl	11eb4 <gpio_set_input>
    a638:	e5d40000 	ldrb	r0, [r4]
    a63c:	eb00220e 	bl	12e7c <delay_us>
    a640:	e1a00004 	mov	r0, r4
    a644:	e8bd81f0 	pop	{r4, r5, r6, r7, r8, pc}

0000a648 <i2c_start>:
    a648:	e92d4010 	push	{r4, lr}
    a64c:	e1a04000 	mov	r4, r0
    a650:	e5900004 	ldr	r0, [r0, #4]
    a654:	eb001e16 	bl	11eb4 <gpio_set_input>
    a658:	e5d40000 	ldrb	r0, [r4]
    a65c:	eb002206 	bl	12e7c <delay_us>
    a660:	e5940008 	ldr	r0, [r4, #8]
    a664:	eb001e12 	bl	11eb4 <gpio_set_input>
    a668:	e5d40000 	ldrb	r0, [r4]
    a66c:	eb002202 	bl	12e7c <delay_us>
    a670:	e5d40000 	ldrb	r0, [r4]
    a674:	eb002200 	bl	12e7c <delay_us>
    a678:	e5940004 	ldr	r0, [r4, #4]
    a67c:	eb001dce 	bl	11dbc <gpio_set_output>
    a680:	e5940004 	ldr	r0, [r4, #4]
    a684:	eb001dee 	bl	11e44 <gpio_set_off>
    a688:	e5d40000 	ldrb	r0, [r4]
    a68c:	eb0021fa 	bl	12e7c <delay_us>
    a690:	e5d40000 	ldrb	r0, [r4]
    a694:	eb0021f8 	bl	12e7c <delay_us>
    a698:	e5940008 	ldr	r0, [r4, #8]
    a69c:	eb001dc6 	bl	11dbc <gpio_set_output>
    a6a0:	e5940008 	ldr	r0, [r4, #8]
    a6a4:	eb001de6 	bl	11e44 <gpio_set_off>
    a6a8:	e5d40000 	ldrb	r0, [r4]
    a6ac:	eb0021f2 	bl	12e7c <delay_us>
    a6b0:	e8bd8010 	pop	{r4, pc}

0000a6b4 <i2c_stop>:
    a6b4:	e92d4010 	push	{r4, lr}
    a6b8:	e1a04000 	mov	r4, r0
    a6bc:	e5900008 	ldr	r0, [r0, #8]
    a6c0:	eb001dbd 	bl	11dbc <gpio_set_output>
    a6c4:	e5940008 	ldr	r0, [r4, #8]
    a6c8:	eb001ddd 	bl	11e44 <gpio_set_off>
    a6cc:	e5d40000 	ldrb	r0, [r4]
    a6d0:	eb0021e9 	bl	12e7c <delay_us>
    a6d4:	e5d40000 	ldrb	r0, [r4]
    a6d8:	eb0021e7 	bl	12e7c <delay_us>
    a6dc:	e5940004 	ldr	r0, [r4, #4]
    a6e0:	eb001db5 	bl	11dbc <gpio_set_output>
    a6e4:	e5940004 	ldr	r0, [r4, #4]
    a6e8:	eb001dd5 	bl	11e44 <gpio_set_off>
    a6ec:	e5d40000 	ldrb	r0, [r4]
    a6f0:	eb0021e1 	bl	12e7c <delay_us>
    a6f4:	e5d40000 	ldrb	r0, [r4]
    a6f8:	eb0021df 	bl	12e7c <delay_us>
    a6fc:	e5940008 	ldr	r0, [r4, #8]
    a700:	eb001deb 	bl	11eb4 <gpio_set_input>
    a704:	e5d40000 	ldrb	r0, [r4]
    a708:	eb0021db 	bl	12e7c <delay_us>
    a70c:	e5d40000 	ldrb	r0, [r4]
    a710:	eb0021d9 	bl	12e7c <delay_us>
    a714:	e5940004 	ldr	r0, [r4, #4]
    a718:	eb001de5 	bl	11eb4 <gpio_set_input>
    a71c:	e5d40000 	ldrb	r0, [r4]
    a720:	eb0021d5 	bl	12e7c <delay_us>
    a724:	e5d40000 	ldrb	r0, [r4]
    a728:	eb0021d3 	bl	12e7c <delay_us>
    a72c:	e8bd8010 	pop	{r4, pc}

0000a730 <i2c_write_byte>:
    a730:	e92d4070 	push	{r4, r5, r6, lr}
    a734:	e1a05000 	mov	r5, r0
    a738:	e1a06001 	mov	r6, r1
    a73c:	e3a04007 	mov	r4, #7, 0
    a740:	ea000000 	b	a748 <i2c_write_byte+0x18>
    a744:	e2444001 	sub	r4, r4, #1, 0
    a748:	e3540000 	cmp	r4, #0, 0
    a74c:	ba000007 	blt	a770 <i2c_write_byte+0x40>
    a750:	e1a01456 	asr	r1, r6, r4
    a754:	e2011001 	and	r1, r1, #1, 0
    a758:	e1a00005 	mov	r0, r5
    a75c:	ebffff63 	bl	a4f0 <write_bit>
    a760:	e3500000 	cmp	r0, #0, 0
    a764:	aafffff6 	bge	a744 <i2c_write_byte+0x14>
    a768:	e3e00000 	mvn	r0, #0, 0
    a76c:	e8bd8070 	pop	{r4, r5, r6, pc}
    a770:	e1a00005 	mov	r0, r5
    a774:	ebffff7e 	bl	a574 <read_bit>
    a778:	e3500000 	cmp	r0, #0, 0
    a77c:	08bd8070 	popeq	{r4, r5, r6, pc}
    a780:	e3a00001 	mov	r0, #1, 0
    a784:	e8bd8070 	pop	{r4, r5, r6, pc}

0000a788 <i2c_read_byte>:
    a788:	e92d41f0 	push	{r4, r5, r6, r7, r8, lr}
    a78c:	e1a06000 	mov	r6, r0
    a790:	e1a07001 	mov	r7, r1
    a794:	e3a05007 	mov	r5, #7, 0
    a798:	e3a04000 	mov	r4, #0, 0
    a79c:	ea000002 	b	a7ac <i2c_read_byte+0x24>
    a7a0:	e1840510 	orr	r0, r4, r0, lsl r5
    a7a4:	e6ef4070 	uxtb	r4, r0
    a7a8:	e2455001 	sub	r5, r5, #1, 0
    a7ac:	e3550000 	cmp	r5, #0, 0
    a7b0:	ba000005 	blt	a7cc <i2c_read_byte+0x44>
    a7b4:	e1a00006 	mov	r0, r6
    a7b8:	ebffff6d 	bl	a574 <read_bit>
    a7bc:	e3500000 	cmp	r0, #0, 0
    a7c0:	aafffff6 	bge	a7a0 <i2c_read_byte+0x18>
    a7c4:	e3a040ff 	mov	r4, #255, 0	; 0xff
    a7c8:	ea000004 	b	a7e0 <i2c_read_byte+0x58>
    a7cc:	e3570000 	cmp	r7, #0, 0
    a7d0:	0a000004 	beq	a7e8 <i2c_read_byte+0x60>
    a7d4:	e3a01000 	mov	r1, #0, 0
    a7d8:	e1a00006 	mov	r0, r6
    a7dc:	ebffff43 	bl	a4f0 <write_bit>
    a7e0:	e1a00004 	mov	r0, r4
    a7e4:	e8bd81f0 	pop	{r4, r5, r6, r7, r8, pc}
    a7e8:	e3a01001 	mov	r1, #1, 0
    a7ec:	e1a00006 	mov	r0, r6
    a7f0:	ebffff3e 	bl	a4f0 <write_bit>
    a7f4:	eafffff9 	b	a7e0 <i2c_read_byte+0x58>

0000a7f8 <i2c_write_n_bytes>:
    a7f8:	e92d41f0 	push	{r4, r5, r6, r7, r8, lr}
    a7fc:	e1a05000 	mov	r5, r0
    a800:	e1a04001 	mov	r4, r1
    a804:	e1a07002 	mov	r7, r2
    a808:	e1a06003 	mov	r6, r3
    a80c:	ebffff8d 	bl	a648 <i2c_start>
    a810:	e1a01084 	lsl	r1, r4, #1
    a814:	e20110fe 	and	r1, r1, #254, 0	; 0xfe
    a818:	e1a00005 	mov	r0, r5
    a81c:	ebffffc3 	bl	a730 <i2c_write_byte>
    a820:	e2508000 	subs	r8, r0, #0, 0
    a824:	1a000009 	bne	a850 <i2c_write_n_bytes+0x58>
    a828:	e1a04008 	mov	r4, r8
    a82c:	e1540006 	cmp	r4, r6
    a830:	aa00000e 	bge	a870 <i2c_write_n_bytes+0x78>
    a834:	e7d71004 	ldrb	r1, [r7, r4]
    a838:	e1a00005 	mov	r0, r5
    a83c:	ebffffbb 	bl	a730 <i2c_write_byte>
    a840:	e3500000 	cmp	r0, #0, 0
    a844:	1a000005 	bne	a860 <i2c_write_n_bytes+0x68>
    a848:	e2844001 	add	r4, r4, #1, 0
    a84c:	eafffff6 	b	a82c <i2c_write_n_bytes+0x34>
    a850:	e1a00005 	mov	r0, r5
    a854:	ebffff96 	bl	a6b4 <i2c_stop>
    a858:	e3e08000 	mvn	r8, #0, 0
    a85c:	ea000005 	b	a878 <i2c_write_n_bytes+0x80>
    a860:	e1a00005 	mov	r0, r5
    a864:	ebffff92 	bl	a6b4 <i2c_stop>
    a868:	e3e08000 	mvn	r8, #0, 0
    a86c:	ea000001 	b	a878 <i2c_write_n_bytes+0x80>
    a870:	e1a00005 	mov	r0, r5
    a874:	ebffff8e 	bl	a6b4 <i2c_stop>
    a878:	e1a00008 	mov	r0, r8
    a87c:	e8bd81f0 	pop	{r4, r5, r6, r7, r8, pc}

0000a880 <i2c_read_n_bytes>:
    a880:	e92d41f0 	push	{r4, r5, r6, r7, r8, lr}
    a884:	e1a06000 	mov	r6, r0
    a888:	e1a04001 	mov	r4, r1
    a88c:	e1a07002 	mov	r7, r2
    a890:	e1a05003 	mov	r5, r3
    a894:	ebffff6b 	bl	a648 <i2c_start>
    a898:	e1a01084 	lsl	r1, r4, #1
    a89c:	e3811001 	orr	r1, r1, #1, 0
    a8a0:	e6ef1071 	uxtb	r1, r1
    a8a4:	e1a00006 	mov	r0, r6
    a8a8:	ebffffa0 	bl	a730 <i2c_write_byte>
    a8ac:	e2504000 	subs	r4, r0, #0, 0
    a8b0:	1a00000a 	bne	a8e0 <i2c_read_n_bytes+0x60>
    a8b4:	e1540005 	cmp	r4, r5
    a8b8:	aa00000c 	bge	a8f0 <i2c_read_n_bytes+0x70>
    a8bc:	e2451001 	sub	r1, r5, #1, 0
    a8c0:	e1510004 	cmp	r1, r4
    a8c4:	d3a01000 	movle	r1, #0, 0
    a8c8:	c3a01001 	movgt	r1, #1, 0
    a8cc:	e1a00006 	mov	r0, r6
    a8d0:	ebffffac 	bl	a788 <i2c_read_byte>
    a8d4:	e7c70004 	strb	r0, [r7, r4]
    a8d8:	e2844001 	add	r4, r4, #1, 0
    a8dc:	eafffff4 	b	a8b4 <i2c_read_n_bytes+0x34>
    a8e0:	e1a00006 	mov	r0, r6
    a8e4:	ebffff72 	bl	a6b4 <i2c_stop>
    a8e8:	e3e00000 	mvn	r0, #0, 0
    a8ec:	e8bd81f0 	pop	{r4, r5, r6, r7, r8, pc}
    a8f0:	e1a00006 	mov	r0, r6
    a8f4:	ebffff6e 	bl	a6b4 <i2c_stop>
    a8f8:	e1a00005 	mov	r0, r5
    a8fc:	e8bd81f0 	pop	{r4, r5, r6, r7, r8, pc}

0000a900 <i2c_write_read_reg_n>:
    a900:	e92d41f0 	push	{r4, r5, r6, r7, r8, lr}
    a904:	e1a06000 	mov	r6, r0
    a908:	e1a04001 	mov	r4, r1
    a90c:	e1a08002 	mov	r8, r2
    a910:	e1a07003 	mov	r7, r3
    a914:	e59d5018 	ldr	r5, [sp, #24]
    a918:	ebffff4a 	bl	a648 <i2c_start>
    a91c:	e1a01084 	lsl	r1, r4, #1
    a920:	e20110fe 	and	r1, r1, #254, 0	; 0xfe
    a924:	e1a00006 	mov	r0, r6
    a928:	ebffff80 	bl	a730 <i2c_write_byte>
    a92c:	e3500000 	cmp	r0, #0, 0
    a930:	1a000018 	bne	a998 <i2c_write_read_reg_n+0x98>
    a934:	e1a01008 	mov	r1, r8
    a938:	e1a00006 	mov	r0, r6
    a93c:	ebffff7b 	bl	a730 <i2c_write_byte>
    a940:	e3500000 	cmp	r0, #0, 0
    a944:	1a000017 	bne	a9a8 <i2c_write_read_reg_n+0xa8>
    a948:	e1a00006 	mov	r0, r6
    a94c:	ebffff3d 	bl	a648 <i2c_start>
    a950:	e1a01084 	lsl	r1, r4, #1
    a954:	e3811001 	orr	r1, r1, #1, 0
    a958:	e6ef1071 	uxtb	r1, r1
    a95c:	e1a00006 	mov	r0, r6
    a960:	ebffff72 	bl	a730 <i2c_write_byte>
    a964:	e2504000 	subs	r4, r0, #0, 0
    a968:	1a000012 	bne	a9b8 <i2c_write_read_reg_n+0xb8>
    a96c:	e1540005 	cmp	r4, r5
    a970:	aa000014 	bge	a9c8 <i2c_write_read_reg_n+0xc8>
    a974:	e2451001 	sub	r1, r5, #1, 0
    a978:	e1510004 	cmp	r1, r4
    a97c:	d3a01000 	movle	r1, #0, 0
    a980:	c3a01001 	movgt	r1, #1, 0
    a984:	e1a00006 	mov	r0, r6
    a988:	ebffff7e 	bl	a788 <i2c_read_byte>
    a98c:	e7c70004 	strb	r0, [r7, r4]
    a990:	e2844001 	add	r4, r4, #1, 0
    a994:	eafffff4 	b	a96c <i2c_write_read_reg_n+0x6c>
    a998:	e1a00006 	mov	r0, r6
    a99c:	ebffff44 	bl	a6b4 <i2c_stop>
    a9a0:	e3e00000 	mvn	r0, #0, 0
    a9a4:	e8bd81f0 	pop	{r4, r5, r6, r7, r8, pc}
    a9a8:	e1a00006 	mov	r0, r6
    a9ac:	ebffff40 	bl	a6b4 <i2c_stop>
    a9b0:	e3e00000 	mvn	r0, #0, 0
    a9b4:	e8bd81f0 	pop	{r4, r5, r6, r7, r8, pc}
    a9b8:	e1a00006 	mov	r0, r6
    a9bc:	ebffff3c 	bl	a6b4 <i2c_stop>
    a9c0:	e3e00000 	mvn	r0, #0, 0
    a9c4:	e8bd81f0 	pop	{r4, r5, r6, r7, r8, pc}
    a9c8:	e1a00006 	mov	r0, r6
    a9cc:	ebffff38 	bl	a6b4 <i2c_stop>
    a9d0:	e1a00005 	mov	r0, r5
    a9d4:	e8bd81f0 	pop	{r4, r5, r6, r7, r8, pc}

0000a9d8 <i2c_scan>:
    a9d8:	e92d4070 	push	{r4, r5, r6, lr}
    a9dc:	e1a06000 	mov	r6, r0
    a9e0:	e3a04000 	mov	r4, #0, 0
    a9e4:	ea000004 	b	a9fc <i2c_scan+0x24>
    a9e8:	e1a01004 	mov	r1, r4
    a9ec:	e59f0040 	ldr	r0, [pc, #64]	; aa34 <i2c_scan+0x5c>
    a9f0:	eb001f88 	bl	12818 <printk>
    a9f4:	e2844001 	add	r4, r4, #1, 0
    a9f8:	e6ef4074 	uxtb	r4, r4
    a9fc:	e354007e 	cmp	r4, #126, 0	; 0x7e
    aa00:	88bd8070 	pophi	{r4, r5, r6, pc}
    aa04:	e1a00006 	mov	r0, r6
    aa08:	ebffff0e 	bl	a648 <i2c_start>
    aa0c:	e1a01084 	lsl	r1, r4, #1
    aa10:	e20110fe 	and	r1, r1, #254, 0	; 0xfe
    aa14:	e1a00006 	mov	r0, r6
    aa18:	ebffff44 	bl	a730 <i2c_write_byte>
    aa1c:	e1a05000 	mov	r5, r0
    aa20:	e1a00006 	mov	r0, r6
    aa24:	ebffff22 	bl	a6b4 <i2c_stop>
    aa28:	e3550000 	cmp	r5, #0, 0
    aa2c:	1afffff0 	bne	a9f4 <i2c_scan+0x1c>
    aa30:	eaffffec 	b	a9e8 <i2c_scan+0x10>
    aa34:	0019b4dc 	.word	0x0019b4dc

0000aa38 <to_bcd>:
    aa38:	e52de004 	push	{lr}		; (str lr, [sp, #-4]!)
    aa3c:	e3a0c001 	mov	ip, #1, 0
    aa40:	e1a0e11c 	lsl	lr, ip, r1
    aa44:	e6efe07e 	uxtb	lr, lr
    aa48:	e24ee001 	sub	lr, lr, #1, 0
    aa4c:	e1a0c21c 	lsl	ip, ip, r2
    aa50:	e6ef307c 	uxtb	r3, ip
    aa54:	e243c001 	sub	ip, r3, #1, 0
    aa58:	e59f3024 	ldr	r3, [pc, #36]	; aa84 <to_bcd+0x4c>
    aa5c:	e0832093 	umull	r2, r3, r3, r0
    aa60:	e1a031a3 	lsr	r3, r3, #3
    aa64:	e0832103 	add	r2, r3, r3, lsl #2
    aa68:	e0402082 	sub	r2, r0, r2, lsl #1
    aa6c:	e6ef2072 	uxtb	r2, r2
    aa70:	e003300c 	and	r3, r3, ip
    aa74:	e002200e 	and	r2, r2, lr
    aa78:	e1823113 	orr	r3, r2, r3, lsl r1
    aa7c:	e6ef0073 	uxtb	r0, r3
    aa80:	e49df004 	pop	{pc}		; (ldr pc, [sp], #4)
    aa84:	cccccccd 	.word	0xcccccccd

0000aa88 <from_bcd>:
    aa88:	e3a03001 	mov	r3, #1, 0
    aa8c:	e1a0c113 	lsl	ip, r3, r1
    aa90:	e6efc07c 	uxtb	ip, ip
    aa94:	e24cc001 	sub	ip, ip, #1, 0
    aa98:	e1a03213 	lsl	r3, r3, r2
    aa9c:	e6ef3073 	uxtb	r3, r3
    aaa0:	e2433001 	sub	r3, r3, #1, 0
    aaa4:	e6ef3073 	uxtb	r3, r3
    aaa8:	e00cc000 	and	ip, ip, r0
    aaac:	e0030150 	and	r0, r3, r0, asr r1
    aab0:	e0800100 	add	r0, r0, r0, lsl #2
    aab4:	e08c0080 	add	r0, ip, r0, lsl #1
    aab8:	e6ef0070 	uxtb	r0, r0
    aabc:	e12fff1e 	bx	lr

0000aac0 <rtc_set_reg>:
    aac0:	e52de004 	push	{lr}		; (str lr, [sp, #-4]!)
    aac4:	e24dd00c 	sub	sp, sp, #12, 0
    aac8:	e5cd1004 	strb	r1, [sp, #4]
    aacc:	e5cd2005 	strb	r2, [sp, #5]
    aad0:	e3a03002 	mov	r3, #2, 0
    aad4:	e28d2004 	add	r2, sp, #4, 0
    aad8:	e3a01068 	mov	r1, #104, 0	; 0x68
    aadc:	ebffff45 	bl	a7f8 <i2c_write_n_bytes>
    aae0:	e28dd00c 	add	sp, sp, #12, 0
    aae4:	e49df004 	pop	{pc}		; (ldr pc, [sp], #4)

0000aae8 <rtc_get_reg>:
    aae8:	e52de004 	push	{lr}		; (str lr, [sp, #-4]!)
    aaec:	e24dd014 	sub	sp, sp, #20, 0
    aaf0:	e1a02001 	mov	r2, r1
    aaf4:	e3a03001 	mov	r3, #1, 0
    aaf8:	e58d3000 	str	r3, [sp]
    aafc:	e28d300f 	add	r3, sp, #15, 0
    ab00:	e3a01068 	mov	r1, #104, 0	; 0x68
    ab04:	ebffff7d 	bl	a900 <i2c_write_read_reg_n>
    ab08:	e5dd000f 	ldrb	r0, [sp, #15]
    ab0c:	e28dd014 	add	sp, sp, #20, 0
    ab10:	e49df004 	pop	{pc}		; (ldr pc, [sp], #4)

0000ab14 <rtc_set_seconds>:
    ab14:	e92d4010 	push	{r4, lr}
    ab18:	e1a04000 	mov	r4, r0
    ab1c:	e1a00001 	mov	r0, r1
    ab20:	e3a02003 	mov	r2, #3, 0
    ab24:	e3a01004 	mov	r1, #4, 0
    ab28:	ebffffc2 	bl	aa38 <to_bcd>
    ab2c:	e200207f 	and	r2, r0, #127, 0	; 0x7f
    ab30:	e3a01003 	mov	r1, #3, 0
    ab34:	e1a00004 	mov	r0, r4
    ab38:	ebffffe0 	bl	aac0 <rtc_set_reg>
    ab3c:	e8bd8010 	pop	{r4, pc}

0000ab40 <rtc_set_minutes>:
    ab40:	e92d4010 	push	{r4, lr}
    ab44:	e1a04000 	mov	r4, r0
    ab48:	e1a00001 	mov	r0, r1
    ab4c:	e3a02003 	mov	r2, #3, 0
    ab50:	e3a01004 	mov	r1, #4, 0
    ab54:	ebffffb7 	bl	aa38 <to_bcd>
    ab58:	e200207f 	and	r2, r0, #127, 0	; 0x7f
    ab5c:	e3a01004 	mov	r1, #4, 0
    ab60:	e1a00004 	mov	r0, r4
    ab64:	ebffffd5 	bl	aac0 <rtc_set_reg>
    ab68:	e8bd8010 	pop	{r4, pc}

0000ab6c <rtc_set_hours>:
    ab6c:	e92d4010 	push	{r4, lr}
    ab70:	e1a04000 	mov	r4, r0
    ab74:	e1a00001 	mov	r0, r1
    ab78:	e3a02002 	mov	r2, #2, 0
    ab7c:	e3a01004 	mov	r1, #4, 0
    ab80:	ebffffac 	bl	aa38 <to_bcd>
    ab84:	e1a02000 	mov	r2, r0
    ab88:	e3a01005 	mov	r1, #5, 0
    ab8c:	e1a00004 	mov	r0, r4
    ab90:	ebffffca 	bl	aac0 <rtc_set_reg>
    ab94:	e8bd8010 	pop	{r4, pc}

0000ab98 <rtc_set_days>:
    ab98:	e92d4010 	push	{r4, lr}
    ab9c:	e1a04000 	mov	r4, r0
    aba0:	e1a00001 	mov	r0, r1
    aba4:	e3a02002 	mov	r2, #2, 0
    aba8:	e3a01004 	mov	r1, #4, 0
    abac:	ebffffa1 	bl	aa38 <to_bcd>
    abb0:	e1a02000 	mov	r2, r0
    abb4:	e3a01006 	mov	r1, #6, 0
    abb8:	e1a00004 	mov	r0, r4
    abbc:	ebffffbf 	bl	aac0 <rtc_set_reg>
    abc0:	e8bd8010 	pop	{r4, pc}

0000abc4 <rtc_set_weekdays>:
    abc4:	e92d4010 	push	{r4, lr}
    abc8:	e2012007 	and	r2, r1, #7, 0
    abcc:	e3a01007 	mov	r1, #7, 0
    abd0:	ebffffba 	bl	aac0 <rtc_set_reg>
    abd4:	e8bd8010 	pop	{r4, pc}

0000abd8 <rtc_set_months>:
    abd8:	e92d4010 	push	{r4, lr}
    abdc:	e1a04000 	mov	r4, r0
    abe0:	e1a00001 	mov	r0, r1
    abe4:	e3a02001 	mov	r2, #1, 0
    abe8:	e3a01004 	mov	r1, #4, 0
    abec:	ebffff91 	bl	aa38 <to_bcd>
    abf0:	e1a02000 	mov	r2, r0
    abf4:	e3a01008 	mov	r1, #8, 0
    abf8:	e1a00004 	mov	r0, r4
    abfc:	ebffffaf 	bl	aac0 <rtc_set_reg>
    ac00:	e8bd8010 	pop	{r4, pc}

0000ac04 <rtc_set_years>:
    ac04:	e92d4010 	push	{r4, lr}
    ac08:	e1a04000 	mov	r4, r0
    ac0c:	e1a00001 	mov	r0, r1
    ac10:	e3a02004 	mov	r2, #4, 0
    ac14:	e1a01002 	mov	r1, r2
    ac18:	ebffff86 	bl	aa38 <to_bcd>
    ac1c:	e1a02000 	mov	r2, r0
    ac20:	e3a01009 	mov	r1, #9, 0
    ac24:	e1a00004 	mov	r0, r4
    ac28:	ebffffa4 	bl	aac0 <rtc_set_reg>
    ac2c:	e8bd8010 	pop	{r4, pc}

0000ac30 <rtc_get_seconds>:
    ac30:	e92d4010 	push	{r4, lr}
    ac34:	e3a01003 	mov	r1, #3, 0
    ac38:	ebffffaa 	bl	aae8 <rtc_get_reg>
    ac3c:	e3a02003 	mov	r2, #3, 0
    ac40:	e3a01004 	mov	r1, #4, 0
    ac44:	ebffff8f 	bl	aa88 <from_bcd>
    ac48:	e8bd8010 	pop	{r4, pc}

0000ac4c <rtc_get_minutes>:
    ac4c:	e92d4010 	push	{r4, lr}
    ac50:	e3a01004 	mov	r1, #4, 0
    ac54:	ebffffa3 	bl	aae8 <rtc_get_reg>
    ac58:	e3a02003 	mov	r2, #3, 0
    ac5c:	e3a01004 	mov	r1, #4, 0
    ac60:	ebffff88 	bl	aa88 <from_bcd>
    ac64:	e8bd8010 	pop	{r4, pc}

0000ac68 <rtc_get_hours>:
    ac68:	e92d4010 	push	{r4, lr}
    ac6c:	e3a01005 	mov	r1, #5, 0
    ac70:	ebffff9c 	bl	aae8 <rtc_get_reg>
    ac74:	e3a02002 	mov	r2, #2, 0
    ac78:	e3a01004 	mov	r1, #4, 0
    ac7c:	ebffff81 	bl	aa88 <from_bcd>
    ac80:	e8bd8010 	pop	{r4, pc}

0000ac84 <rtc_get_days>:
    ac84:	e92d4010 	push	{r4, lr}
    ac88:	e3a01006 	mov	r1, #6, 0
    ac8c:	ebffff95 	bl	aae8 <rtc_get_reg>
    ac90:	e3a02002 	mov	r2, #2, 0
    ac94:	e3a01004 	mov	r1, #4, 0
    ac98:	ebffff7a 	bl	aa88 <from_bcd>
    ac9c:	e8bd8010 	pop	{r4, pc}

0000aca0 <rtc_get_weekdays>:
    aca0:	e92d4010 	push	{r4, lr}
    aca4:	e3a01007 	mov	r1, #7, 0
    aca8:	ebffff8e 	bl	aae8 <rtc_get_reg>
    acac:	e2000007 	and	r0, r0, #7, 0
    acb0:	e8bd8010 	pop	{r4, pc}

0000acb4 <rtc_get_months>:
    acb4:	e92d4010 	push	{r4, lr}
    acb8:	e3a01008 	mov	r1, #8, 0
    acbc:	ebffff89 	bl	aae8 <rtc_get_reg>
    acc0:	e3a02001 	mov	r2, #1, 0
    acc4:	e3a01004 	mov	r1, #4, 0
    acc8:	ebffff6e 	bl	aa88 <from_bcd>
    accc:	e8bd8010 	pop	{r4, pc}

0000acd0 <rtc_get_years>:
    acd0:	e92d4010 	push	{r4, lr}
    acd4:	e3a01009 	mov	r1, #9, 0
    acd8:	ebffff82 	bl	aae8 <rtc_get_reg>
    acdc:	e3a02004 	mov	r2, #4, 0
    ace0:	e1a01002 	mov	r1, r2
    ace4:	ebffff67 	bl	aa88 <from_bcd>
    ace8:	e8bd8010 	pop	{r4, pc}

0000acec <rtc_get_total_seconds>:
    acec:	e92d47f0 	push	{r4, r5, r6, r7, r8, r9, sl, lr}
    acf0:	e1a09000 	mov	r9, r0
    acf4:	ebfffff5 	bl	acd0 <rtc_get_years>
    acf8:	e6ffa070 	uxth	sl, r0
    acfc:	e28a6e7d 	add	r6, sl, #2000	; 0x7d0
    ad00:	e6ff6076 	uxth	r6, r6
    ad04:	e1a00009 	mov	r0, r9
    ad08:	ebffffe9 	bl	acb4 <rtc_get_months>
    ad0c:	e1a04000 	mov	r4, r0
    ad10:	e1a00009 	mov	r0, r9
    ad14:	ebffffda 	bl	ac84 <rtc_get_days>
    ad18:	e1a08000 	mov	r8, r0
    ad1c:	e1a00009 	mov	r0, r9
    ad20:	ebffffd0 	bl	ac68 <rtc_get_hours>
    ad24:	e1a05000 	mov	r5, r0
    ad28:	e1a00009 	mov	r0, r9
    ad2c:	ebffffc6 	bl	ac4c <rtc_get_minutes>
    ad30:	e1a07000 	mov	r7, r0
    ad34:	e1a00009 	mov	r0, r9
    ad38:	ebffffbc 	bl	ac30 <rtc_get_seconds>
    ad3c:	e3540002 	cmp	r4, #2, 0
    ad40:	8a000004 	bhi	ad58 <rtc_get_total_seconds+0x6c>
    ad44:	e284400c 	add	r4, r4, #12, 0
    ad48:	e6ef4074 	uxtb	r4, r4
    ad4c:	e28a6d1f 	add	r6, sl, #1984	; 0x7c0
    ad50:	e286600f 	add	r6, r6, #15, 0
    ad54:	e6ff6076 	uxth	r6, r6
    ad58:	e2488001 	sub	r8, r8, #1, 0
    ad5c:	e2444003 	sub	r4, r4, #3, 0
    ad60:	e0844184 	add	r4, r4, r4, lsl #3
    ad64:	e0844204 	add	r4, r4, r4, lsl #4
    ad68:	e2844002 	add	r4, r4, #2, 0
    ad6c:	e59f3064 	ldr	r3, [pc, #100]	; add8 <rtc_get_total_seconds+0xec>
    ad70:	e0c32493 	smull	r2, r3, r3, r4
    ad74:	e1a04fc4 	asr	r4, r4, #31
    ad78:	e06440c3 	rsb	r4, r4, r3, asr #1
    ad7c:	e0884004 	add	r4, r8, r4
    ad80:	e0868186 	add	r8, r6, r6, lsl #3
    ad84:	e0868188 	add	r8, r6, r8, lsl #3
    ad88:	e0888108 	add	r8, r8, r8, lsl #2
    ad8c:	e0844008 	add	r4, r4, r8
    ad90:	e0844126 	add	r4, r4, r6, lsr #2
    ad94:	e59f3040 	ldr	r3, [pc, #64]	; addc <rtc_get_total_seconds+0xf0>
    ad98:	e0863693 	umull	r3, r6, r3, r6
    ad9c:	e04442a6 	sub	r4, r4, r6, lsr #5
    ada0:	e08463a6 	add	r6, r4, r6, lsr #7
    ada4:	e59f3034 	ldr	r3, [pc, #52]	; ade0 <rtc_get_total_seconds+0xf4>
    ada8:	e0863003 	add	r3, r6, r3
    adac:	e0833083 	add	r3, r3, r3, lsl #1
    adb0:	e0633203 	rsb	r3, r3, r3, lsl #4
    adb4:	e0633203 	rsb	r3, r3, r3, lsl #4
    adb8:	e0655205 	rsb	r5, r5, r5, lsl #4
    adbc:	e0655205 	rsb	r5, r5, r5, lsl #4
    adc0:	e1a05205 	lsl	r5, r5, #4
    adc4:	e0855383 	add	r5, r5, r3, lsl #7
    adc8:	e0677207 	rsb	r7, r7, r7, lsl #4
    adcc:	e0857107 	add	r7, r5, r7, lsl #2
    add0:	e0800007 	add	r0, r0, r7
    add4:	e8bd87f0 	pop	{r4, r5, r6, r7, r8, r9, sl, pc}
    add8:	66666667 	.word	0x66666667
    addc:	51eb851f 	.word	0x51eb851f
    ade0:	fff4dac7 	.word	0xfff4dac7

0000ade4 <rtc_init>:
    ade4:	e52de004 	push	{lr}		; (str lr, [sp, #-4]!)
    ade8:	e24dd00c 	sub	sp, sp, #12, 0
    adec:	e3a03002 	mov	r3, #2, 0
    adf0:	e1cd30b4 	strh	r3, [sp, #4]
    adf4:	e28d2004 	add	r2, sp, #4, 0
    adf8:	e3a01068 	mov	r1, #104, 0	; 0x68
    adfc:	ebfffe7d 	bl	a7f8 <i2c_write_n_bytes>
    ae00:	e28dd00c 	add	sp, sp, #12, 0
    ae04:	e49df004 	pop	{pc}		; (ldr pc, [sp], #4)

0000ae08 <xnotmain>:
    ae08:	e92d4030 	push	{r4, r5, lr}
    ae0c:	e24dd014 	sub	sp, sp, #20, 0
    ae10:	e3a02005 	mov	r2, #5, 0
    ae14:	e3a01003 	mov	r1, #3, 0
    ae18:	e3a00002 	mov	r0, #2, 0
    ae1c:	ebfffdf1 	bl	a5e8 <i2c_init>
    ae20:	e1a04000 	mov	r4, r0
    ae24:	ebfffeeb 	bl	a9d8 <i2c_scan>
    ae28:	e59f00f0 	ldr	r0, [pc, #240]	; af20 <xnotmain+0x118>
    ae2c:	eb001e79 	bl	12818 <printk>
    ae30:	e3a03001 	mov	r3, #1, 0
    ae34:	e58d3000 	str	r3, [sp]
    ae38:	e28d300f 	add	r3, sp, #15, 0
    ae3c:	e3a02002 	mov	r2, #2, 0
    ae40:	e3a01068 	mov	r1, #104, 0	; 0x68
    ae44:	e1a00004 	mov	r0, r4
    ae48:	ebfffeac 	bl	a900 <i2c_write_read_reg_n>
    ae4c:	e3500000 	cmp	r0, #0, 0
    ae50:	da00002e 	ble	af10 <xnotmain+0x108>
    ae54:	e5dd100f 	ldrb	r1, [sp, #15]
    ae58:	e59f00c4 	ldr	r0, [pc, #196]	; af24 <xnotmain+0x11c>
    ae5c:	eb001e6d 	bl	12818 <printk>
    ae60:	e1a00004 	mov	r0, r4
    ae64:	ebffffde 	bl	ade4 <rtc_init>
    ae68:	e3a05000 	mov	r5, #0, 0
    ae6c:	e3550004 	cmp	r5, #4, 0
    ae70:	ca000028 	bgt	af18 <xnotmain+0x110>
    ae74:	e1a00004 	mov	r0, r4
    ae78:	ebffff6c 	bl	ac30 <rtc_get_seconds>
    ae7c:	e1a01000 	mov	r1, r0
    ae80:	e59f00a0 	ldr	r0, [pc, #160]	; af28 <xnotmain+0x120>
    ae84:	eb001e63 	bl	12818 <printk>
    ae88:	e1a00004 	mov	r0, r4
    ae8c:	ebffff6e 	bl	ac4c <rtc_get_minutes>
    ae90:	e1a01000 	mov	r1, r0
    ae94:	e59f0090 	ldr	r0, [pc, #144]	; af2c <xnotmain+0x124>
    ae98:	eb001e5e 	bl	12818 <printk>
    ae9c:	e1a00004 	mov	r0, r4
    aea0:	ebffff70 	bl	ac68 <rtc_get_hours>
    aea4:	e1a01000 	mov	r1, r0
    aea8:	e59f0080 	ldr	r0, [pc, #128]	; af30 <xnotmain+0x128>
    aeac:	eb001e59 	bl	12818 <printk>
    aeb0:	e1a00004 	mov	r0, r4
    aeb4:	ebffff72 	bl	ac84 <rtc_get_days>
    aeb8:	e1a01000 	mov	r1, r0
    aebc:	e59f0070 	ldr	r0, [pc, #112]	; af34 <xnotmain+0x12c>
    aec0:	eb001e54 	bl	12818 <printk>
    aec4:	e1a00004 	mov	r0, r4
    aec8:	ebffff74 	bl	aca0 <rtc_get_weekdays>
    aecc:	e1a01000 	mov	r1, r0
    aed0:	e59f0060 	ldr	r0, [pc, #96]	; af38 <xnotmain+0x130>
    aed4:	eb001e4f 	bl	12818 <printk>
    aed8:	e1a00004 	mov	r0, r4
    aedc:	ebffff74 	bl	acb4 <rtc_get_months>
    aee0:	e1a01000 	mov	r1, r0
    aee4:	e59f0050 	ldr	r0, [pc, #80]	; af3c <xnotmain+0x134>
    aee8:	eb001e4a 	bl	12818 <printk>
    aeec:	e1a00004 	mov	r0, r4
    aef0:	ebffff76 	bl	acd0 <rtc_get_years>
    aef4:	e1a01000 	mov	r1, r0
    aef8:	e59f0040 	ldr	r0, [pc, #64]	; af40 <xnotmain+0x138>
    aefc:	eb001e45 	bl	12818 <printk>
    af00:	e3a00ffa 	mov	r0, #1000	; 0x3e8
    af04:	eb001fe5 	bl	12ea0 <delay_ms>
    af08:	e2855001 	add	r5, r5, #1, 0
    af0c:	eaffffd6 	b	ae6c <xnotmain+0x64>
    af10:	e59f002c 	ldr	r0, [pc, #44]	; af44 <xnotmain+0x13c>
    af14:	eb001e3f 	bl	12818 <printk>
    af18:	e28dd014 	add	sp, sp, #20, 0
    af1c:	e8bd8030 	pop	{r4, r5, pc}
    af20:	0019b50c 	.word	0x0019b50c
    af24:	0019b558 	.word	0x0019b558
    af28:	0019b598 	.word	0x0019b598
    af2c:	0019b5a4 	.word	0x0019b5a4
    af30:	0019b5b0 	.word	0x0019b5b0
    af34:	0019b5bc 	.word	0x0019b5bc
    af38:	0019b5c8 	.word	0x0019b5c8
    af3c:	0019b5d8 	.word	0x0019b5d8
    af40:	0019b5e4 	.word	0x0019b5e4
    af44:	0019b57c 	.word	0x0019b57c

0000af48 <button_int_handler>:
    af48:	e92d4070 	push	{r4, r5, r6, lr}
    af4c:	e59f0070 	ldr	r0, [pc, #112]	; afc4 <button_int_handler+0x7c>
    af50:	eb001e30 	bl	12818 <printk>
    af54:	e3a04000 	mov	r4, #0, 0
    af58:	e59f3068 	ldr	r3, [pc, #104]	; afc8 <button_int_handler+0x80>
    af5c:	e5933004 	ldr	r3, [r3, #4]
    af60:	e1540003 	cmp	r4, r3
    af64:	2a000014 	bcs	afbc <button_int_handler+0x74>
    af68:	e59f3058 	ldr	r3, [pc, #88]	; afc8 <button_int_handler+0x80>
    af6c:	e5933000 	ldr	r3, [r3]
    af70:	e7935104 	ldr	r5, [r3, r4, lsl #2]
    af74:	e1a00005 	mov	r0, r5
    af78:	eb001ccc 	bl	122b0 <gpio_event_detected>
    af7c:	e3500000 	cmp	r0, #0, 0
    af80:	02844001 	addeq	r4, r4, #1, 0
    af84:	0afffff3 	beq	af58 <button_int_handler+0x10>
    af88:	e59f603c 	ldr	r6, [pc, #60]	; afcc <button_int_handler+0x84>
    af8c:	e1a00006 	mov	r0, r6
    af90:	eb001e20 	bl	12818 <printk>
    af94:	e1a02005 	mov	r2, r5
    af98:	e1a01004 	mov	r1, r4
    af9c:	e59f002c 	ldr	r0, [pc, #44]	; afd0 <button_int_handler+0x88>
    afa0:	eb001e1c 	bl	12818 <printk>
    afa4:	e1a00006 	mov	r0, r6
    afa8:	eb001e1a 	bl	12818 <printk>
    afac:	e1a00005 	mov	r0, r5
    afb0:	eb001cd8 	bl	12318 <gpio_event_clear>
    afb4:	e3a00001 	mov	r0, #1, 0
    afb8:	e8bd8070 	pop	{r4, r5, r6, pc}
    afbc:	e3a00000 	mov	r0, #0, 0
    afc0:	e8bd8070 	pop	{r4, r5, r6, pc}
    afc4:	0019b5f0 	.word	0x0019b5f0
    afc8:	0019eea4 	.word	0x0019eea4
    afcc:	0019b610 	.word	0x0019b610
    afd0:	0019b630 	.word	0x0019b630

0000afd4 <set_buttons_async_testing>:
    afd4:	e92d4070 	push	{r4, r5, r6, lr}
    afd8:	e1a05000 	mov	r5, r0
    afdc:	e1a06001 	mov	r6, r1
    afe0:	e3a04000 	mov	r4, #0, 0
    afe4:	e1540006 	cmp	r4, r6
    afe8:	28bd8070 	popcs	{r4, r5, r6, pc}
    afec:	e7950104 	ldr	r0, [r5, r4, lsl #2]
    aff0:	eb001b71 	bl	11dbc <gpio_set_output>
    aff4:	e3a01001 	mov	r1, #1, 0
    aff8:	e7950104 	ldr	r0, [r5, r4, lsl #2]
    affc:	eb001ba5 	bl	11e98 <gpio_write>
    b000:	e7950104 	ldr	r0, [r5, r4, lsl #2]
    b004:	eb00202b 	bl	130b8 <gpio_set_pullup>
    b008:	e7950104 	ldr	r0, [r5, r4, lsl #2]
    b00c:	eb001d41 	bl	12518 <gpio_fiq_async_falling_edge>
    b010:	e7950104 	ldr	r0, [r5, r4, lsl #2]
    b014:	eb001cf9 	bl	12400 <gpio_int_async_falling_edge>
    b018:	e2844001 	add	r4, r4, #1, 0
    b01c:	eafffff0 	b	afe4 <set_buttons_async_testing+0x10>

0000b020 <set_buttons>:
    b020:	e92d4070 	push	{r4, r5, r6, lr}
    b024:	e1a05000 	mov	r5, r0
    b028:	e1a06001 	mov	r6, r1
    b02c:	e3a04000 	mov	r4, #0, 0
    b030:	e1540006 	cmp	r4, r6
    b034:	28bd8070 	popcs	{r4, r5, r6, pc}
    b038:	e7950104 	ldr	r0, [r5, r4, lsl #2]
    b03c:	eb001b9c 	bl	11eb4 <gpio_set_input>
    b040:	e7950104 	ldr	r0, [r5, r4, lsl #2]
    b044:	eb00201b 	bl	130b8 <gpio_set_pullup>
    b048:	e7950104 	ldr	r0, [r5, r4, lsl #2]
    b04c:	eb001c75 	bl	12228 <gpio_int_falling_edge>
    b050:	e2844001 	add	r4, r4, #1, 0
    b054:	eafffff5 	b	b030 <set_buttons+0x10>

0000b058 <dispatch_interrupt>:
    b058:	e59f301c 	ldr	r3, [pc, #28]	; b07c <dispatch_interrupt+0x24>
    b05c:	e5933008 	ldr	r3, [r3, #8]
    b060:	e3530000 	cmp	r3, #0, 0
    b064:	0a000002 	beq	b074 <dispatch_interrupt+0x1c>
    b068:	e92d4010 	push	{r4, lr}
    b06c:	e12fff33 	blx	r3
    b070:	e8bd8010 	pop	{r4, pc}
    b074:	e3a00000 	mov	r0, #0, 0
    b078:	e12fff1e 	bx	lr
    b07c:	0019eea4 	.word	0x0019eea4

0000b080 <keypad_init>:
    b080:	e92d4010 	push	{r4, lr}
    b084:	e24dd008 	sub	sp, sp, #8, 0
    b088:	e1a04002 	mov	r4, r2
    b08c:	e59f30f4 	ldr	r3, [pc, #244]	; b188 <keypad_init+0x108>
    b090:	e5830000 	str	r0, [r3]
    b094:	e5831004 	str	r1, [r3, #4]
    b098:	eb001f46 	bl	12db8 <disable_interrupts>
    b09c:	e3540000 	cmp	r4, #0, 0
    b0a0:	0a00001f 	beq	b124 <keypad_init+0xa4>
    b0a4:	e59f30dc 	ldr	r3, [pc, #220]	; b188 <keypad_init+0x108>
    b0a8:	e5834008 	str	r4, [r3, #8]
    b0ac:	eb001f50 	bl	12df4 <dev_barrier>
    b0b0:	e3e01000 	mvn	r1, #0, 0
    b0b4:	e59f00d0 	ldr	r0, [pc, #208]	; b18c <keypad_init+0x10c>
    b0b8:	ebfff3d9 	bl	8024 <PUT32>
    b0bc:	e3e01000 	mvn	r1, #0, 0
    b0c0:	e59f00c8 	ldr	r0, [pc, #200]	; b190 <keypad_init+0x110>
    b0c4:	ebfff3d6 	bl	8024 <PUT32>
    b0c8:	eb001f49 	bl	12df4 <dev_barrier>
    b0cc:	ee1c3f10 	mrc	15, 0, r3, cr12, cr0, {0}
    b0d0:	e59f20bc 	ldr	r2, [pc, #188]	; b194 <keypad_init+0x114>
    b0d4:	e1530002 	cmp	r3, r2
    b0d8:	0a00000a 	beq	b108 <keypad_init+0x88>
    b0dc:	e3530000 	cmp	r3, #0, 0
    b0e0:	1a000011 	bne	b12c <keypad_init+0xac>
    b0e4:	e59f30a8 	ldr	r3, [pc, #168]	; b194 <keypad_init+0x114>
    b0e8:	e313001f 	tst	r3, #31, 0
    b0ec:	1a000015 	bne	b148 <keypad_init+0xc8>
    b0f0:	ee1c2f10 	mrc	15, 0, r2, cr12, cr0, {0}
    b0f4:	ee073f95 	mcr	15, 0, r3, cr7, cr5, {4}
    b0f8:	ee0c3f10 	mcr	15, 0, r3, cr12, cr0, {0}
    b0fc:	ee1c2f10 	mrc	15, 0, r2, cr12, cr0, {0}
    b100:	e1520003 	cmp	r2, r3
    b104:	1a000017 	bne	b168 <keypad_init+0xe8>
    b108:	e59f3078 	ldr	r3, [pc, #120]	; b188 <keypad_init+0x108>
    b10c:	e5931004 	ldr	r1, [r3, #4]
    b110:	e5930000 	ldr	r0, [r3]
    b114:	ebffffae 	bl	afd4 <set_buttons_async_testing>
    b118:	eb001f22 	bl	12da8 <enable_interrupts>
    b11c:	e28dd008 	add	sp, sp, #8, 0
    b120:	e8bd8010 	pop	{r4, pc}
    b124:	e59f406c 	ldr	r4, [pc, #108]	; b198 <keypad_init+0x118>
    b128:	eaffffdd 	b	b0a4 <keypad_init+0x24>
    b12c:	e58d3000 	str	r3, [sp]
    b130:	e3a030c3 	mov	r3, #195, 0	; 0xc3
    b134:	e59f2060 	ldr	r2, [pc, #96]	; b19c <keypad_init+0x11c>
    b138:	e59f1060 	ldr	r1, [pc, #96]	; b1a0 <keypad_init+0x120>
    b13c:	e59f0060 	ldr	r0, [pc, #96]	; b1a4 <keypad_init+0x124>
    b140:	eb001db4 	bl	12818 <printk>
    b144:	eb001ef8 	bl	12d2c <clean_reboot>
    b148:	e59f3044 	ldr	r3, [pc, #68]	; b194 <keypad_init+0x114>
    b14c:	e58d3000 	str	r3, [sp]
    b150:	e3a030aa 	mov	r3, #170, 0	; 0xaa
    b154:	e59f204c 	ldr	r2, [pc, #76]	; b1a8 <keypad_init+0x128>
    b158:	e59f1040 	ldr	r1, [pc, #64]	; b1a0 <keypad_init+0x120>
    b15c:	e59f0048 	ldr	r0, [pc, #72]	; b1ac <keypad_init+0x12c>
    b160:	eb001dac 	bl	12818 <printk>
    b164:	eb001ef0 	bl	12d2c <clean_reboot>
    b168:	e59f3040 	ldr	r3, [pc, #64]	; b1b0 <keypad_init+0x130>
    b16c:	e58d3000 	str	r3, [sp]
    b170:	e3a030b6 	mov	r3, #182, 0	; 0xb6
    b174:	e59f202c 	ldr	r2, [pc, #44]	; b1a8 <keypad_init+0x128>
    b178:	e59f1020 	ldr	r1, [pc, #32]	; b1a0 <keypad_init+0x120>
    b17c:	e59f0030 	ldr	r0, [pc, #48]	; b1b4 <keypad_init+0x134>
    b180:	eb001da4 	bl	12818 <printk>
    b184:	eb001ee8 	bl	12d2c <clean_reboot>
    b188:	0019eea4 	.word	0x0019eea4
    b18c:	2000b21c 	.word	0x2000b21c
    b190:	2000b220 	.word	0x2000b220
    b194:	00009f60 	.word	0x00009f60
    b198:	0000af48 	.word	0x0000af48
    b19c:	0019b740 	.word	0x0019b740
    b1a0:	0019b650 	.word	0x0019b650
    b1a4:	0019b694 	.word	0x0019b694
    b1a8:	0019b750 	.word	0x0019b750
    b1ac:	0019b6cc 	.word	0x0019b6cc
    b1b0:	0019b724 	.word	0x0019b724
    b1b4:	0019b6f4 	.word	0x0019b6f4

0000b1b8 <build_cmd>:
    b1b8:	e52de004 	push	{lr}		; (str lr, [sp, #-4]!)
    b1bc:	e5c01000 	strb	r1, [r0]
    b1c0:	e3a0103a 	mov	r1, #58, 0	; 0x3a
    b1c4:	e5c01001 	strb	r1, [r0, #1]
    b1c8:	e3520009 	cmp	r2, #9, 0
    b1cc:	9a000015 	bls	b228 <build_cmd+0x70>
    b1d0:	e59f1058 	ldr	r1, [pc, #88]	; b230 <build_cmd+0x78>
    b1d4:	e081c291 	umull	ip, r1, r1, r2
    b1d8:	e1a011a1 	lsr	r1, r1, #3
    b1dc:	e2811030 	add	r1, r1, #48, 0	; 0x30
    b1e0:	e5c01002 	strb	r1, [r0, #2]
    b1e4:	e3a0c003 	mov	ip, #3, 0
    b1e8:	e59f1040 	ldr	r1, [pc, #64]	; b230 <build_cmd+0x78>
    b1ec:	e081e291 	umull	lr, r1, r1, r2
    b1f0:	e1a011a1 	lsr	r1, r1, #3
    b1f4:	e0811101 	add	r1, r1, r1, lsl #2
    b1f8:	e0421081 	sub	r1, r2, r1, lsl #1
    b1fc:	e28ce001 	add	lr, ip, #1, 0
    b200:	e2811030 	add	r1, r1, #48, 0	; 0x30
    b204:	e7c0100c 	strb	r1, [r0, ip]
    b208:	e28c2002 	add	r2, ip, #2, 0
    b20c:	e3a0103a 	mov	r1, #58, 0	; 0x3a
    b210:	e7c0100e 	strb	r1, [r0, lr]
    b214:	e28cc003 	add	ip, ip, #3, 0
    b218:	e7c03002 	strb	r3, [r0, r2]
    b21c:	e3a03000 	mov	r3, #0, 0
    b220:	e7c0300c 	strb	r3, [r0, ip]
    b224:	e49df004 	pop	{pc}		; (ldr pc, [sp], #4)
    b228:	e3a0c002 	mov	ip, #2, 0
    b22c:	eaffffed 	b	b1e8 <build_cmd+0x30>
    b230:	cccccccd 	.word	0xcccccccd

0000b234 <kalshi_send>:
    b234:	e92d4010 	push	{r4, lr}
    b238:	e1a04000 	mov	r4, r0
    b23c:	e5d40000 	ldrb	r0, [r4]
    b240:	e3500000 	cmp	r0, #0, 0
    b244:	0a000002 	beq	b254 <kalshi_send+0x20>
    b248:	eb001b82 	bl	12058 <uart_put8>
    b24c:	e2844001 	add	r4, r4, #1, 0
    b250:	eafffff9 	b	b23c <kalshi_send+0x8>
    b254:	e3a0000a 	mov	r0, #10, 0
    b258:	eb001b7e 	bl	12058 <uart_put8>
    b25c:	e8bd8010 	pop	{r4, pc}

0000b260 <kalshi_recv_str>:
    b260:	e92d41f0 	push	{r4, r5, r6, r7, r8, lr}
    b264:	e1a07000 	mov	r7, r0
    b268:	e1a06001 	mov	r6, r1
    b26c:	e3a05000 	mov	r5, #0, 0
    b270:	e1550006 	cmp	r5, r6
    b274:	2a000013 	bcs	b2c8 <kalshi_recv_str+0x68>
    b278:	e3a04000 	mov	r4, #0, 0
    b27c:	eb001b82 	bl	1208c <uart_has_data>
    b280:	e3500000 	cmp	r0, #0, 0
    b284:	1a000008 	bne	b2ac <kalshi_recv_str+0x4c>
    b288:	e3a0000a 	mov	r0, #10, 0
    b28c:	eb001efa 	bl	12e7c <delay_us>
    b290:	e2844001 	add	r4, r4, #1, 0
    b294:	e59f3048 	ldr	r3, [pc, #72]	; b2e4 <kalshi_recv_str+0x84>
    b298:	e1540003 	cmp	r4, r3
    b29c:	9afffff6 	bls	b27c <kalshi_recv_str+0x1c>
    b2a0:	e3a03000 	mov	r3, #0, 0
    b2a4:	e7c73005 	strb	r3, [r7, r5]
    b2a8:	ea000008 	b	b2d0 <kalshi_recv_str+0x70>
    b2ac:	eb001b7d 	bl	120a8 <uart_get8>
    b2b0:	e6ef3070 	uxtb	r3, r0
    b2b4:	e353000d 	cmp	r3, #13, 0
    b2b8:	1353000a 	cmpne	r3, #10, 0
    b2bc:	1a000005 	bne	b2d8 <kalshi_recv_str+0x78>
    b2c0:	e3550000 	cmp	r5, #0, 0
    b2c4:	0affffe9 	beq	b270 <kalshi_recv_str+0x10>
    b2c8:	e3a03000 	mov	r3, #0, 0
    b2cc:	e7c73005 	strb	r3, [r7, r5]
    b2d0:	e1a00005 	mov	r0, r5
    b2d4:	e8bd81f0 	pop	{r4, r5, r6, r7, r8, pc}
    b2d8:	e7c73005 	strb	r3, [r7, r5]
    b2dc:	e2855001 	add	r5, r5, #1, 0
    b2e0:	eaffffe2 	b	b270 <kalshi_recv_str+0x10>
    b2e4:	0007a120 	.word	0x0007a120

0000b2e8 <kalshi_recv_int>:
    b2e8:	e52de004 	push	{lr}		; (str lr, [sp, #-4]!)
    b2ec:	e24dd014 	sub	sp, sp, #20, 0
    b2f0:	e3a0100f 	mov	r1, #15, 0
    b2f4:	e1a0000d 	mov	r0, sp
    b2f8:	ebffffd8 	bl	b260 <kalshi_recv_str>
    b2fc:	e5dd3000 	ldrb	r3, [sp]
    b300:	e353002d 	cmp	r3, #45, 0	; 0x2d
    b304:	0a00000d 	beq	b340 <kalshi_recv_int+0x58>
    b308:	e1a0100d 	mov	r1, sp
    b30c:	e3a0c000 	mov	ip, #0, 0
    b310:	e3a00000 	mov	r0, #0, 0
    b314:	e5d13000 	ldrb	r3, [r1]
    b318:	e2432030 	sub	r2, r3, #48, 0	; 0x30
    b31c:	e6ef2072 	uxtb	r2, r2
    b320:	e3520009 	cmp	r2, #9, 0
    b324:	8a000008 	bhi	b34c <kalshi_recv_int+0x64>
    b328:	e0800100 	add	r0, r0, r0, lsl #2
    b32c:	e1a02080 	lsl	r2, r0, #1
    b330:	e2430030 	sub	r0, r3, #48, 0	; 0x30
    b334:	e0820000 	add	r0, r2, r0
    b338:	e2811001 	add	r1, r1, #1, 0
    b33c:	eafffff4 	b	b314 <kalshi_recv_int+0x2c>
    b340:	e28d1001 	add	r1, sp, #1, 0
    b344:	e3a0c001 	mov	ip, #1, 0
    b348:	eafffff0 	b	b310 <kalshi_recv_int+0x28>
    b34c:	e35c0000 	cmp	ip, #0, 0
    b350:	12600000 	rsbne	r0, r0, #0, 0
    b354:	e28dd014 	add	sp, sp, #20, 0
    b358:	e49df004 	pop	{pc}		; (ldr pc, [sp], #4)

0000b35c <kalshi_load_top10>:
    b35c:	e92d4010 	push	{r4, lr}
    b360:	e59f0008 	ldr	r0, [pc, #8]	; b370 <kalshi_load_top10+0x14>
    b364:	ebffffb2 	bl	b234 <kalshi_send>
    b368:	ebffffde 	bl	b2e8 <kalshi_recv_int>
    b36c:	e8bd8010 	pop	{r4, pc}
    b370:	0019b764 	.word	0x0019b764

0000b374 <kalshi_load_holdings>:
    b374:	e92d4010 	push	{r4, lr}
    b378:	e59f0008 	ldr	r0, [pc, #8]	; b388 <kalshi_load_holdings+0x14>
    b37c:	ebffffac 	bl	b234 <kalshi_send>
    b380:	ebffffd8 	bl	b2e8 <kalshi_recv_int>
    b384:	e8bd8010 	pop	{r4, pc}
    b388:	0019b76c 	.word	0x0019b76c

0000b38c <kalshi_get_balance>:
    b38c:	e92d4010 	push	{r4, lr}
    b390:	e59f0008 	ldr	r0, [pc, #8]	; b3a0 <kalshi_get_balance+0x14>
    b394:	ebffffa6 	bl	b234 <kalshi_send>
    b398:	ebffffd2 	bl	b2e8 <kalshi_recv_int>
    b39c:	e8bd8010 	pop	{r4, pc}
    b3a0:	0019b778 	.word	0x0019b778

0000b3a4 <kalshi_get_profit>:
    b3a4:	e92d4010 	push	{r4, lr}
    b3a8:	e59f0008 	ldr	r0, [pc, #8]	; b3b8 <kalshi_get_profit+0x14>
    b3ac:	ebffffa0 	bl	b234 <kalshi_send>
    b3b0:	ebffffcc 	bl	b2e8 <kalshi_recv_int>
    b3b4:	e8bd8010 	pop	{r4, pc}
    b3b8:	0019b780 	.word	0x0019b780

0000b3bc <kalshi_get_ticker>:
    b3bc:	e92d4010 	push	{r4, lr}
    b3c0:	e24dd010 	sub	sp, sp, #16, 0
    b3c4:	e1a04002 	mov	r4, r2
    b3c8:	e2813030 	add	r3, r1, #48, 0	; 0x30
    b3cc:	e6ef3073 	uxtb	r3, r3
    b3d0:	e1a02000 	mov	r2, r0
    b3d4:	e3a01054 	mov	r1, #84, 0	; 0x54
    b3d8:	e28d0004 	add	r0, sp, #4, 0
    b3dc:	ebffff75 	bl	b1b8 <build_cmd>
    b3e0:	e28d0004 	add	r0, sp, #4, 0
    b3e4:	ebffff92 	bl	b234 <kalshi_send>
    b3e8:	e3a01008 	mov	r1, #8, 0
    b3ec:	e1a00004 	mov	r0, r4
    b3f0:	ebffff9a 	bl	b260 <kalshi_recv_str>
    b3f4:	e28dd010 	add	sp, sp, #16, 0
    b3f8:	e8bd8010 	pop	{r4, pc}

0000b3fc <kalshi_get_name>:
    b3fc:	e92d4010 	push	{r4, lr}
    b400:	e24dd010 	sub	sp, sp, #16, 0
    b404:	e1a04002 	mov	r4, r2
    b408:	e2813030 	add	r3, r1, #48, 0	; 0x30
    b40c:	e6ef3073 	uxtb	r3, r3
    b410:	e1a02000 	mov	r2, r0
    b414:	e3a0104e 	mov	r1, #78, 0	; 0x4e
    b418:	e28d0004 	add	r0, sp, #4, 0
    b41c:	ebffff65 	bl	b1b8 <build_cmd>
    b420:	e28d0004 	add	r0, sp, #4, 0
    b424:	ebffff82 	bl	b234 <kalshi_send>
    b428:	e3a01008 	mov	r1, #8, 0
    b42c:	e1a00004 	mov	r0, r4
    b430:	ebffff8a 	bl	b260 <kalshi_recv_str>
    b434:	e28dd010 	add	sp, sp, #16, 0
    b438:	e8bd8010 	pop	{r4, pc}

0000b43c <kalshi_get_name_length>:
    b43c:	e52de004 	push	{lr}		; (str lr, [sp, #-4]!)
    b440:	e24dd00c 	sub	sp, sp, #12, 0
    b444:	e3a0304c 	mov	r3, #76, 0	; 0x4c
    b448:	e5cd3000 	strb	r3, [sp]
    b44c:	e3a0303a 	mov	r3, #58, 0	; 0x3a
    b450:	e5cd3001 	strb	r3, [sp, #1]
    b454:	e3500009 	cmp	r0, #9, 0
    b458:	9a000017 	bls	b4bc <kalshi_get_name_length+0x80>
    b45c:	e59f3060 	ldr	r3, [pc, #96]	; b4c4 <kalshi_get_name_length+0x88>
    b460:	e0832093 	umull	r2, r3, r3, r0
    b464:	e1a031a3 	lsr	r3, r3, #3
    b468:	e2833030 	add	r3, r3, #48, 0	; 0x30
    b46c:	e5cd3002 	strb	r3, [sp, #2]
    b470:	e3a02003 	mov	r2, #3, 0
    b474:	e59f3048 	ldr	r3, [pc, #72]	; b4c4 <kalshi_get_name_length+0x88>
    b478:	e0831093 	umull	r1, r3, r3, r0
    b47c:	e1a031a3 	lsr	r3, r3, #3
    b480:	e0833103 	add	r3, r3, r3, lsl #2
    b484:	e0403083 	sub	r3, r0, r3, lsl #1
    b488:	e2821001 	add	r1, r2, #1, 0
    b48c:	e2833030 	add	r3, r3, #48, 0	; 0x30
    b490:	e28d0008 	add	r0, sp, #8, 0
    b494:	e0802002 	add	r2, r0, r2
    b498:	e5423008 	strb	r3, [r2, #-8]
    b49c:	e0803001 	add	r3, r0, r1
    b4a0:	e3a02000 	mov	r2, #0, 0
    b4a4:	e5432008 	strb	r2, [r3, #-8]
    b4a8:	e1a0000d 	mov	r0, sp
    b4ac:	ebffff60 	bl	b234 <kalshi_send>
    b4b0:	ebffff8c 	bl	b2e8 <kalshi_recv_int>
    b4b4:	e28dd00c 	add	sp, sp, #12, 0
    b4b8:	e49df004 	pop	{pc}		; (ldr pc, [sp], #4)
    b4bc:	e3a02002 	mov	r2, #2, 0
    b4c0:	eaffffeb 	b	b474 <kalshi_get_name_length+0x38>
    b4c4:	cccccccd 	.word	0xcccccccd

0000b4c8 <kalshi_get_yes>:
    b4c8:	e52de004 	push	{lr}		; (str lr, [sp, #-4]!)
    b4cc:	e24dd014 	sub	sp, sp, #20, 0
    b4d0:	e1a02000 	mov	r2, r0
    b4d4:	e3a03079 	mov	r3, #121, 0	; 0x79
    b4d8:	e3a01050 	mov	r1, #80, 0	; 0x50
    b4dc:	e28d0004 	add	r0, sp, #4, 0
    b4e0:	ebffff34 	bl	b1b8 <build_cmd>
    b4e4:	e28d0004 	add	r0, sp, #4, 0
    b4e8:	ebffff51 	bl	b234 <kalshi_send>
    b4ec:	ebffff7d 	bl	b2e8 <kalshi_recv_int>
    b4f0:	e28dd014 	add	sp, sp, #20, 0
    b4f4:	e49df004 	pop	{pc}		; (ldr pc, [sp], #4)

0000b4f8 <kalshi_get_no>:
    b4f8:	e52de004 	push	{lr}		; (str lr, [sp, #-4]!)
    b4fc:	e24dd014 	sub	sp, sp, #20, 0
    b500:	e1a02000 	mov	r2, r0
    b504:	e3a0306e 	mov	r3, #110, 0	; 0x6e
    b508:	e3a01050 	mov	r1, #80, 0	; 0x50
    b50c:	e28d0004 	add	r0, sp, #4, 0
    b510:	ebffff28 	bl	b1b8 <build_cmd>
    b514:	e28d0004 	add	r0, sp, #4, 0
    b518:	ebffff45 	bl	b234 <kalshi_send>
    b51c:	ebffff71 	bl	b2e8 <kalshi_recv_int>
    b520:	e28dd014 	add	sp, sp, #20, 0
    b524:	e49df004 	pop	{pc}		; (ldr pc, [sp], #4)

0000b528 <kalshi_get_contracts>:
    b528:	e52de004 	push	{lr}		; (str lr, [sp, #-4]!)
    b52c:	e24dd00c 	sub	sp, sp, #12, 0
    b530:	e3a03043 	mov	r3, #67, 0	; 0x43
    b534:	e5cd3000 	strb	r3, [sp]
    b538:	e3a0303a 	mov	r3, #58, 0	; 0x3a
    b53c:	e5cd3001 	strb	r3, [sp, #1]
    b540:	e3500009 	cmp	r0, #9, 0
    b544:	9a000017 	bls	b5a8 <kalshi_get_contracts+0x80>
    b548:	e59f3060 	ldr	r3, [pc, #96]	; b5b0 <kalshi_get_contracts+0x88>
    b54c:	e0832093 	umull	r2, r3, r3, r0
    b550:	e1a031a3 	lsr	r3, r3, #3
    b554:	e2833030 	add	r3, r3, #48, 0	; 0x30
    b558:	e5cd3002 	strb	r3, [sp, #2]
    b55c:	e3a02003 	mov	r2, #3, 0
    b560:	e59f3048 	ldr	r3, [pc, #72]	; b5b0 <kalshi_get_contracts+0x88>
    b564:	e0831093 	umull	r1, r3, r3, r0
    b568:	e1a031a3 	lsr	r3, r3, #3
    b56c:	e0833103 	add	r3, r3, r3, lsl #2
    b570:	e0403083 	sub	r3, r0, r3, lsl #1
    b574:	e2821001 	add	r1, r2, #1, 0
    b578:	e2833030 	add	r3, r3, #48, 0	; 0x30
    b57c:	e28d0008 	add	r0, sp, #8, 0
    b580:	e0802002 	add	r2, r0, r2
    b584:	e5423008 	strb	r3, [r2, #-8]
    b588:	e0803001 	add	r3, r0, r1
    b58c:	e3a02000 	mov	r2, #0, 0
    b590:	e5432008 	strb	r2, [r3, #-8]
    b594:	e1a0000d 	mov	r0, sp
    b598:	ebffff25 	bl	b234 <kalshi_send>
    b59c:	ebffff51 	bl	b2e8 <kalshi_recv_int>
    b5a0:	e28dd00c 	add	sp, sp, #12, 0
    b5a4:	e49df004 	pop	{pc}		; (ldr pc, [sp], #4)
    b5a8:	e3a02002 	mov	r2, #2, 0
    b5ac:	eaffffeb 	b	b560 <kalshi_get_contracts+0x38>
    b5b0:	cccccccd 	.word	0xcccccccd

0000b5b4 <kalshi_get_ask>:
    b5b4:	e52de004 	push	{lr}		; (str lr, [sp, #-4]!)
    b5b8:	e24dd014 	sub	sp, sp, #20, 0
    b5bc:	e1a02000 	mov	r2, r0
    b5c0:	e5d13000 	ldrb	r3, [r1]
    b5c4:	e3530079 	cmp	r3, #121, 0	; 0x79
    b5c8:	13a0306e 	movne	r3, #110, 0	; 0x6e
    b5cc:	e3a01041 	mov	r1, #65, 0	; 0x41
    b5d0:	e28d0004 	add	r0, sp, #4, 0
    b5d4:	ebfffef7 	bl	b1b8 <build_cmd>
    b5d8:	e28d0004 	add	r0, sp, #4, 0
    b5dc:	ebffff14 	bl	b234 <kalshi_send>
    b5e0:	ebffff40 	bl	b2e8 <kalshi_recv_int>
    b5e4:	e28dd014 	add	sp, sp, #20, 0
    b5e8:	e49df004 	pop	{pc}		; (ldr pc, [sp], #4)

0000b5ec <kalshi_get_bid>:
    b5ec:	e52de004 	push	{lr}		; (str lr, [sp, #-4]!)
    b5f0:	e24dd014 	sub	sp, sp, #20, 0
    b5f4:	e1a02000 	mov	r2, r0
    b5f8:	e5d13000 	ldrb	r3, [r1]
    b5fc:	e3530079 	cmp	r3, #121, 0	; 0x79
    b600:	13a0306e 	movne	r3, #110, 0	; 0x6e
    b604:	e3a01044 	mov	r1, #68, 0	; 0x44
    b608:	e28d0004 	add	r0, sp, #4, 0
    b60c:	ebfffee9 	bl	b1b8 <build_cmd>
    b610:	e28d0004 	add	r0, sp, #4, 0
    b614:	ebffff06 	bl	b234 <kalshi_send>
    b618:	ebffff32 	bl	b2e8 <kalshi_recv_int>
    b61c:	e28dd014 	add	sp, sp, #20, 0
    b620:	e49df004 	pop	{pc}		; (ldr pc, [sp], #4)

0000b624 <kalshi_buy>:
    b624:	e52de004 	push	{lr}		; (str lr, [sp, #-4]!)
    b628:	e24dd034 	sub	sp, sp, #52, 0	; 0x34
    b62c:	e3a03042 	mov	r3, #66, 0	; 0x42
    b630:	e5cd3018 	strb	r3, [sp, #24]
    b634:	e3a03055 	mov	r3, #85, 0	; 0x55
    b638:	e5cd3019 	strb	r3, [sp, #25]
    b63c:	e3a03059 	mov	r3, #89, 0	; 0x59
    b640:	e5cd301a 	strb	r3, [sp, #26]
    b644:	e3a0303a 	mov	r3, #58, 0	; 0x3a
    b648:	e5cd301b 	strb	r3, [sp, #27]
    b64c:	e3500009 	cmp	r0, #9, 0
    b650:	9a00001d 	bls	b6cc <kalshi_buy+0xa8>
    b654:	e59f3130 	ldr	r3, [pc, #304]	; b78c <kalshi_buy+0x168>
    b658:	e083c093 	umull	ip, r3, r3, r0
    b65c:	e1a031a3 	lsr	r3, r3, #3
    b660:	e2833030 	add	r3, r3, #48, 0	; 0x30
    b664:	e5cd301c 	strb	r3, [sp, #28]
    b668:	e3a03005 	mov	r3, #5, 0
    b66c:	e59fc118 	ldr	ip, [pc, #280]	; b78c <kalshi_buy+0x168>
    b670:	e08ce09c 	umull	lr, ip, ip, r0
    b674:	e1a0c1ac 	lsr	ip, ip, #3
    b678:	e08cc10c 	add	ip, ip, ip, lsl #2
    b67c:	e040c08c 	sub	ip, r0, ip, lsl #1
    b680:	e2830001 	add	r0, r3, #1, 0
    b684:	e28cc030 	add	ip, ip, #48, 0	; 0x30
    b688:	e28de030 	add	lr, sp, #48, 0	; 0x30
    b68c:	e08ee003 	add	lr, lr, r3
    b690:	e54ec018 	strb	ip, [lr, #-24]	; 0xffffffe8
    b694:	e2833002 	add	r3, r3, #2, 0
    b698:	e28dc030 	add	ip, sp, #48, 0	; 0x30
    b69c:	e08c0000 	add	r0, ip, r0
    b6a0:	e3a0c03a 	mov	ip, #58, 0	; 0x3a
    b6a4:	e540c018 	strb	ip, [r0, #-24]	; 0xffffffe8
    b6a8:	e5d10000 	ldrb	r0, [r1]
    b6ac:	e3500000 	cmp	r0, #0, 0
    b6b0:	0a000007 	beq	b6d4 <kalshi_buy+0xb0>
    b6b4:	e2811001 	add	r1, r1, #1, 0
    b6b8:	e28dc030 	add	ip, sp, #48, 0	; 0x30
    b6bc:	e08cc003 	add	ip, ip, r3
    b6c0:	e54c0018 	strb	r0, [ip, #-24]	; 0xffffffe8
    b6c4:	e2833001 	add	r3, r3, #1, 0
    b6c8:	eafffff6 	b	b6a8 <kalshi_buy+0x84>
    b6cc:	e3a03004 	mov	r3, #4, 0
    b6d0:	eaffffe5 	b	b66c <kalshi_buy+0x48>
    b6d4:	e2830001 	add	r0, r3, #1, 0
    b6d8:	e3a0c03a 	mov	ip, #58, 0	; 0x3a
    b6dc:	e28d1030 	add	r1, sp, #48, 0	; 0x30
    b6e0:	e0811003 	add	r1, r1, r3
    b6e4:	e541c018 	strb	ip, [r1, #-24]	; 0xffffffe8
    b6e8:	e3520009 	cmp	r2, #9, 0
    b6ec:	9a000007 	bls	b710 <kalshi_buy+0xec>
    b6f0:	e59f1094 	ldr	r1, [pc, #148]	; b78c <kalshi_buy+0x168>
    b6f4:	e081c291 	umull	ip, r1, r1, r2
    b6f8:	e1a011a1 	lsr	r1, r1, #3
    b6fc:	e2811030 	add	r1, r1, #48, 0	; 0x30
    b700:	e28dc030 	add	ip, sp, #48, 0	; 0x30
    b704:	e08c0000 	add	r0, ip, r0
    b708:	e5401018 	strb	r1, [r0, #-24]	; 0xffffffe8
    b70c:	e2830002 	add	r0, r3, #2, 0
    b710:	e59f3074 	ldr	r3, [pc, #116]	; b78c <kalshi_buy+0x168>
    b714:	e0831293 	umull	r1, r3, r3, r2
    b718:	e1a031a3 	lsr	r3, r3, #3
    b71c:	e0833103 	add	r3, r3, r3, lsl #2
    b720:	e0423083 	sub	r3, r2, r3, lsl #1
    b724:	e2801001 	add	r1, r0, #1, 0
    b728:	e2833030 	add	r3, r3, #48, 0	; 0x30
    b72c:	e28d2030 	add	r2, sp, #48, 0	; 0x30
    b730:	e0822000 	add	r2, r2, r0
    b734:	e5423018 	strb	r3, [r2, #-24]	; 0xffffffe8
    b738:	e28d3030 	add	r3, sp, #48, 0	; 0x30
    b73c:	e0833001 	add	r3, r3, r1
    b740:	e3a02000 	mov	r2, #0, 0
    b744:	e5432018 	strb	r2, [r3, #-24]	; 0xffffffe8
    b748:	e28d0018 	add	r0, sp, #24, 0
    b74c:	ebfffeb8 	bl	b234 <kalshi_send>
    b750:	e3a01017 	mov	r1, #23, 0
    b754:	e1a0000d 	mov	r0, sp
    b758:	ebfffec0 	bl	b260 <kalshi_recv_str>
    b75c:	e5dd3000 	ldrb	r3, [sp]
    b760:	e353004f 	cmp	r3, #79, 0	; 0x4f
    b764:	0a000002 	beq	b774 <kalshi_buy+0x150>
    b768:	e3a00000 	mov	r0, #0, 0
    b76c:	e28dd034 	add	sp, sp, #52, 0	; 0x34
    b770:	e49df004 	pop	{pc}		; (ldr pc, [sp], #4)
    b774:	e5dd3001 	ldrb	r3, [sp, #1]
    b778:	e353004b 	cmp	r3, #75, 0	; 0x4b
    b77c:	13a00000 	movne	r0, #0, 0
    b780:	1afffff9 	bne	b76c <kalshi_buy+0x148>
    b784:	e3a00001 	mov	r0, #1, 0
    b788:	eafffff7 	b	b76c <kalshi_buy+0x148>
    b78c:	cccccccd 	.word	0xcccccccd

0000b790 <kalshi_sell>:
    b790:	e52de004 	push	{lr}		; (str lr, [sp, #-4]!)
    b794:	e24dd03c 	sub	sp, sp, #60, 0	; 0x3c
    b798:	e3a03053 	mov	r3, #83, 0	; 0x53
    b79c:	e5cd301c 	strb	r3, [sp, #28]
    b7a0:	e3a03045 	mov	r3, #69, 0	; 0x45
    b7a4:	e5cd301d 	strb	r3, [sp, #29]
    b7a8:	e3a0304c 	mov	r3, #76, 0	; 0x4c
    b7ac:	e5cd301e 	strb	r3, [sp, #30]
    b7b0:	e5cd301f 	strb	r3, [sp, #31]
    b7b4:	e3a0303a 	mov	r3, #58, 0	; 0x3a
    b7b8:	e5cd3020 	strb	r3, [sp, #32]
    b7bc:	e3500009 	cmp	r0, #9, 0
    b7c0:	9a00001d 	bls	b83c <kalshi_sell+0xac>
    b7c4:	e59f3174 	ldr	r3, [pc, #372]	; b940 <kalshi_sell+0x1b0>
    b7c8:	e083c093 	umull	ip, r3, r3, r0
    b7cc:	e1a031a3 	lsr	r3, r3, #3
    b7d0:	e2833030 	add	r3, r3, #48, 0	; 0x30
    b7d4:	e5cd3021 	strb	r3, [sp, #33]	; 0x21
    b7d8:	e3a03006 	mov	r3, #6, 0
    b7dc:	e59fc15c 	ldr	ip, [pc, #348]	; b940 <kalshi_sell+0x1b0>
    b7e0:	e08ce09c 	umull	lr, ip, ip, r0
    b7e4:	e1a0c1ac 	lsr	ip, ip, #3
    b7e8:	e08cc10c 	add	ip, ip, ip, lsl #2
    b7ec:	e040c08c 	sub	ip, r0, ip, lsl #1
    b7f0:	e2830001 	add	r0, r3, #1, 0
    b7f4:	e28cc030 	add	ip, ip, #48, 0	; 0x30
    b7f8:	e28de038 	add	lr, sp, #56, 0	; 0x38
    b7fc:	e08ee003 	add	lr, lr, r3
    b800:	e54ec01c 	strb	ip, [lr, #-28]	; 0xffffffe4
    b804:	e2833002 	add	r3, r3, #2, 0
    b808:	e28dc038 	add	ip, sp, #56, 0	; 0x38
    b80c:	e08c0000 	add	r0, ip, r0
    b810:	e3a0c03a 	mov	ip, #58, 0	; 0x3a
    b814:	e540c01c 	strb	ip, [r0, #-28]	; 0xffffffe4
    b818:	e5d10000 	ldrb	r0, [r1]
    b81c:	e3500000 	cmp	r0, #0, 0
    b820:	0a000007 	beq	b844 <kalshi_sell+0xb4>
    b824:	e2811001 	add	r1, r1, #1, 0
    b828:	e28dc038 	add	ip, sp, #56, 0	; 0x38
    b82c:	e08cc003 	add	ip, ip, r3
    b830:	e54c001c 	strb	r0, [ip, #-28]	; 0xffffffe4
    b834:	e2833001 	add	r3, r3, #1, 0
    b838:	eafffff6 	b	b818 <kalshi_sell+0x88>
    b83c:	e3a03005 	mov	r3, #5, 0
    b840:	eaffffe5 	b	b7dc <kalshi_sell+0x4c>
    b844:	e2830001 	add	r0, r3, #1, 0
    b848:	e3a0c03a 	mov	ip, #58, 0	; 0x3a
    b84c:	e28d1038 	add	r1, sp, #56, 0	; 0x38
    b850:	e0811003 	add	r1, r1, r3
    b854:	e541c01c 	strb	ip, [r1, #-28]	; 0xffffffe4
    b858:	e3520000 	cmp	r2, #0, 0
    b85c:	1a00001c 	bne	b8d4 <kalshi_sell+0x144>
    b860:	e2831002 	add	r1, r3, #2, 0
    b864:	e28d2038 	add	r2, sp, #56, 0	; 0x38
    b868:	e0820000 	add	r0, r2, r0
    b86c:	e3a02041 	mov	r2, #65, 0	; 0x41
    b870:	e540201c 	strb	r2, [r0, #-28]	; 0xffffffe4
    b874:	e2832003 	add	r2, r3, #3, 0
    b878:	e28d0038 	add	r0, sp, #56, 0	; 0x38
    b87c:	e0801001 	add	r1, r0, r1
    b880:	e3a0004c 	mov	r0, #76, 0	; 0x4c
    b884:	e541001c 	strb	r0, [r1, #-28]	; 0xffffffe4
    b888:	e2833004 	add	r3, r3, #4, 0
    b88c:	e28d1038 	add	r1, sp, #56, 0	; 0x38
    b890:	e0812002 	add	r2, r1, r2
    b894:	e542001c 	strb	r0, [r2, #-28]	; 0xffffffe4
    b898:	e28d2038 	add	r2, sp, #56, 0	; 0x38
    b89c:	e0823003 	add	r3, r2, r3
    b8a0:	e3a02000 	mov	r2, #0, 0
    b8a4:	e543201c 	strb	r2, [r3, #-28]	; 0xffffffe4
    b8a8:	e28d001c 	add	r0, sp, #28, 0
    b8ac:	ebfffe60 	bl	b234 <kalshi_send>
    b8b0:	e3a01017 	mov	r1, #23, 0
    b8b4:	e28d0004 	add	r0, sp, #4, 0
    b8b8:	ebfffe68 	bl	b260 <kalshi_recv_str>
    b8bc:	e5dd3004 	ldrb	r3, [sp, #4]
    b8c0:	e353004f 	cmp	r3, #79, 0	; 0x4f
    b8c4:	0a000017 	beq	b928 <kalshi_sell+0x198>
    b8c8:	e3a00000 	mov	r0, #0, 0
    b8cc:	e28dd03c 	add	sp, sp, #60, 0	; 0x3c
    b8d0:	e49df004 	pop	{pc}		; (ldr pc, [sp], #4)
    b8d4:	e3520009 	cmp	r2, #9, 0
    b8d8:	9a000007 	bls	b8fc <kalshi_sell+0x16c>
    b8dc:	e59f105c 	ldr	r1, [pc, #92]	; b940 <kalshi_sell+0x1b0>
    b8e0:	e081c291 	umull	ip, r1, r1, r2
    b8e4:	e1a011a1 	lsr	r1, r1, #3
    b8e8:	e2811030 	add	r1, r1, #48, 0	; 0x30
    b8ec:	e28dc038 	add	ip, sp, #56, 0	; 0x38
    b8f0:	e08c0000 	add	r0, ip, r0
    b8f4:	e540101c 	strb	r1, [r0, #-28]	; 0xffffffe4
    b8f8:	e2830002 	add	r0, r3, #2, 0
    b8fc:	e59f103c 	ldr	r1, [pc, #60]	; b940 <kalshi_sell+0x1b0>
    b900:	e0813291 	umull	r3, r1, r1, r2
    b904:	e1a011a1 	lsr	r1, r1, #3
    b908:	e0811101 	add	r1, r1, r1, lsl #2
    b90c:	e0421081 	sub	r1, r2, r1, lsl #1
    b910:	e2803001 	add	r3, r0, #1, 0
    b914:	e2811030 	add	r1, r1, #48, 0	; 0x30
    b918:	e28d2038 	add	r2, sp, #56, 0	; 0x38
    b91c:	e0820000 	add	r0, r2, r0
    b920:	e540101c 	strb	r1, [r0, #-28]	; 0xffffffe4
    b924:	eaffffdb 	b	b898 <kalshi_sell+0x108>
    b928:	e5dd3005 	ldrb	r3, [sp, #5]
    b92c:	e353004b 	cmp	r3, #75, 0	; 0x4b
    b930:	13a00000 	movne	r0, #0, 0
    b934:	1affffe4 	bne	b8cc <kalshi_sell+0x13c>
    b938:	e3a00001 	mov	r0, #1, 0
    b93c:	eaffffe2 	b	b8cc <kalshi_sell+0x13c>
    b940:	cccccccd 	.word	0xcccccccd

0000b944 <kalshi_pick_random>:
    b944:	e92d4010 	push	{r4, lr}
    b948:	e59f0008 	ldr	r0, [pc, #8]	; b958 <kalshi_pick_random+0x14>
    b94c:	ebfffe38 	bl	b234 <kalshi_send>
    b950:	ebfffe64 	bl	b2e8 <kalshi_recv_int>
    b954:	e8bd8010 	pop	{r4, pc}
    b958:	0019b788 	.word	0x0019b788

0000b95c <kalshi_get_streak>:
    b95c:	e92d4010 	push	{r4, lr}
    b960:	e24dd008 	sub	sp, sp, #8, 0
    b964:	e1a04000 	mov	r4, r0
    b968:	e59f004c 	ldr	r0, [pc, #76]	; b9bc <kalshi_get_streak+0x60>
    b96c:	ebfffe30 	bl	b234 <kalshi_send>
    b970:	e3a01007 	mov	r1, #7, 0
    b974:	e1a0000d 	mov	r0, sp
    b978:	ebfffe38 	bl	b260 <kalshi_recv_str>
    b97c:	e5dd3000 	ldrb	r3, [sp]
    b980:	e5c43000 	strb	r3, [r4]
    b984:	e28d1001 	add	r1, sp, #1, 0
    b988:	e3a00000 	mov	r0, #0, 0
    b98c:	e5d13000 	ldrb	r3, [r1]
    b990:	e2432030 	sub	r2, r3, #48, 0	; 0x30
    b994:	e6ef2072 	uxtb	r2, r2
    b998:	e3520009 	cmp	r2, #9, 0
    b99c:	8a000004 	bhi	b9b4 <kalshi_get_streak+0x58>
    b9a0:	e0800100 	add	r0, r0, r0, lsl #2
    b9a4:	e0830080 	add	r0, r3, r0, lsl #1
    b9a8:	e2400030 	sub	r0, r0, #48, 0	; 0x30
    b9ac:	e2811001 	add	r1, r1, #1, 0
    b9b0:	eafffff5 	b	b98c <kalshi_get_streak+0x30>
    b9b4:	e28dd008 	add	sp, sp, #8, 0
    b9b8:	e8bd8010 	pop	{r4, pc}
    b9bc:	0019b790 	.word	0x0019b790

0000b9c0 <simple_atoi>:
    b9c0:	e1a01000 	mov	r1, r0
    b9c4:	e5d03000 	ldrb	r3, [r0]
    b9c8:	e353002d 	cmp	r3, #45, 0	; 0x2d
    b9cc:	0a00000b 	beq	ba00 <simple_atoi+0x40>
    b9d0:	e3a0c000 	mov	ip, #0, 0
    b9d4:	e3a00000 	mov	r0, #0, 0
    b9d8:	e5d13000 	ldrb	r3, [r1]
    b9dc:	e2432030 	sub	r2, r3, #48, 0	; 0x30
    b9e0:	e6ef2072 	uxtb	r2, r2
    b9e4:	e3520009 	cmp	r2, #9, 0
    b9e8:	8a000007 	bhi	ba0c <simple_atoi+0x4c>
    b9ec:	e0800100 	add	r0, r0, r0, lsl #2
    b9f0:	e2433030 	sub	r3, r3, #48, 0	; 0x30
    b9f4:	e0830080 	add	r0, r3, r0, lsl #1
    b9f8:	e2811001 	add	r1, r1, #1, 0
    b9fc:	eafffff5 	b	b9d8 <simple_atoi+0x18>
    ba00:	e2801001 	add	r1, r0, #1, 0
    ba04:	e3a0c001 	mov	ip, #1, 0
    ba08:	eafffff1 	b	b9d4 <simple_atoi+0x14>
    ba0c:	e35c0000 	cmp	ip, #0, 0
    ba10:	012fff1e 	bxeq	lr
    ba14:	e2600000 	rsb	r0, r0, #0, 0
    ba18:	e12fff1e 	bx	lr

0000ba1c <simple_itoa>:
    ba1c:	e92d4010 	push	{r4, lr}
    ba20:	e24dd028 	sub	sp, sp, #40, 0	; 0x28
    ba24:	e3500000 	cmp	r0, #0, 0
    ba28:	1a000006 	bne	ba48 <simple_itoa+0x2c>
    ba2c:	e3a03030 	mov	r3, #48, 0	; 0x30
    ba30:	e5cd3004 	strb	r3, [sp, #4]
    ba34:	e3a04001 	mov	r4, #1, 0
    ba38:	e2840001 	add	r0, r4, #1, 0
    ba3c:	eb001867 	bl	11be0 <kmalloc>
    ba40:	e3a02000 	mov	r2, #0, 0
    ba44:	ea000017 	b	baa8 <simple_itoa+0x8c>
    ba48:	e3a04000 	mov	r4, #0, 0
    ba4c:	e3500000 	cmp	r0, #0, 0
    ba50:	0afffff8 	beq	ba38 <simple_itoa+0x1c>
    ba54:	e59f3064 	ldr	r3, [pc, #100]	; bac0 <simple_itoa+0xa4>
    ba58:	e0832093 	umull	r2, r3, r3, r0
    ba5c:	e1a031a3 	lsr	r3, r3, #3
    ba60:	e1a02003 	mov	r2, r3
    ba64:	e0833103 	add	r3, r3, r3, lsl #2
    ba68:	e0403083 	sub	r3, r0, r3, lsl #1
    ba6c:	e6ef3073 	uxtb	r3, r3
    ba70:	e2833030 	add	r3, r3, #48, 0	; 0x30
    ba74:	e28d1028 	add	r1, sp, #40, 0	; 0x28
    ba78:	e0811004 	add	r1, r1, r4
    ba7c:	e5413024 	strb	r3, [r1, #-36]	; 0xffffffdc
    ba80:	e1a00002 	mov	r0, r2
    ba84:	e2844001 	add	r4, r4, #1, 0
    ba88:	eaffffef 	b	ba4c <simple_itoa+0x30>
    ba8c:	e0443002 	sub	r3, r4, r2
    ba90:	e2433001 	sub	r3, r3, #1, 0
    ba94:	e28d1028 	add	r1, sp, #40, 0	; 0x28
    ba98:	e0813003 	add	r3, r1, r3
    ba9c:	e5533024 	ldrb	r3, [r3, #-36]	; 0xffffffdc
    baa0:	e7c03002 	strb	r3, [r0, r2]
    baa4:	e2822001 	add	r2, r2, #1, 0
    baa8:	e1520004 	cmp	r2, r4
    baac:	3afffff6 	bcc	ba8c <simple_itoa+0x70>
    bab0:	e3a03000 	mov	r3, #0, 0
    bab4:	e7c03004 	strb	r3, [r0, r4]
    bab8:	e28dd028 	add	sp, sp, #40, 0	; 0x28
    babc:	e8bd8010 	pop	{r4, pc}
    bac0:	cccccccd 	.word	0xcccccccd

0000bac4 <setup_fs>:
    bac4:	e92d4010 	push	{r4, lr}
    bac8:	e24dd030 	sub	sp, sp, #48, 0	; 0x30
    bacc:	e3a01302 	mov	r1, #134217728	; 0x8000000
    bad0:	e3a00502 	mov	r0, #8388608	; 0x800000
    bad4:	eb0017bc 	bl	119cc <kmalloc_init_set_start>
    bad8:	eb000367 	bl	c87c <pi_sd_init>
    badc:	eb001659 	bl	11448 <mbr_read>
    bae0:	e3a02010 	mov	r2, #16, 0
    bae4:	e2801f6f 	add	r1, r0, #444	; 0x1bc
    bae8:	e2811002 	add	r1, r1, #2, 0
    baec:	e28d0020 	add	r0, sp, #32, 0
    baf0:	eb001ad6 	bl	12650 <memcpy>
    baf4:	e59f4030 	ldr	r4, [pc, #48]	; bb2c <setup_fs+0x68>
    baf8:	e28d1020 	add	r1, sp, #32, 0
    bafc:	e1a0000d 	mov	r0, sp
    bb00:	eb00129d 	bl	1057c <fat32_mk>
    bb04:	e1a0e004 	mov	lr, r4
    bb08:	e1a0c00d 	mov	ip, sp
    bb0c:	e8bc000f 	ldm	ip!, {r0, r1, r2, r3}
    bb10:	e8ae000f 	stmia	lr!, {r0, r1, r2, r3}
    bb14:	e89c0007 	ldm	ip, {r0, r1, r2}
    bb18:	e88e0007 	stm	lr, {r0, r1, r2}
    bb1c:	e3a03001 	mov	r3, #1, 0
    bb20:	e584301c 	str	r3, [r4, #28]
    bb24:	e28dd030 	add	sp, sp, #48, 0	; 0x30
    bb28:	e8bd8010 	pop	{r4, pc}
    bb2c:	0019eeb0 	.word	0x0019eeb0

0000bb30 <get_fs>:
    bb30:	e59f3020 	ldr	r3, [pc, #32]	; bb58 <get_fs+0x28>
    bb34:	e593301c 	ldr	r3, [r3, #28]
    bb38:	e3530000 	cmp	r3, #0, 0
    bb3c:	0a000001 	beq	bb48 <get_fs+0x18>
    bb40:	e59f0010 	ldr	r0, [pc, #16]	; bb58 <get_fs+0x28>
    bb44:	e12fff1e 	bx	lr
    bb48:	e92d4010 	push	{r4, lr}
    bb4c:	ebffffdc 	bl	bac4 <setup_fs>
    bb50:	e59f0000 	ldr	r0, [pc]	; bb58 <get_fs+0x28>
    bb54:	e8bd8010 	pop	{r4, pc}
    bb58:	0019eeb0 	.word	0x0019eeb0

0000bb5c <init_tama_info>:
    bb5c:	e92d4ff0 	push	{r4, r5, r6, r7, r8, r9, sl, fp, lr}
    bb60:	e28db020 	add	fp, sp, #32, 0
    bb64:	e24dd054 	sub	sp, sp, #84, 0	; 0x54
    bb68:	e1a0400d 	mov	r4, sp
    bb6c:	e50b4060 	str	r4, [fp, #-96]	; 0xffffffa0
    bb70:	ebffffee 	bl	bb30 <get_fs>
    bb74:	e1a0a000 	mov	sl, r0
    bb78:	e1a01000 	mov	r1, r0
    bb7c:	e24b0050 	sub	r0, fp, #80, 0	; 0x50
    bb80:	eb0012fe 	bl	10780 <fat32_get_root>
    bb84:	e59f31c8 	ldr	r3, [pc, #456]	; bd54 <init_tama_info+0x1f8>
    bb88:	e5932000 	ldr	r2, [r3]
    bb8c:	e24b1050 	sub	r1, fp, #80, 0	; 0x50
    bb90:	e1a0000a 	mov	r0, sl
    bb94:	eb001372 	bl	10964 <fat32_stat>
    bb98:	e3500000 	cmp	r0, #0, 0
    bb9c:	0a000006 	beq	bbbc <init_tama_info+0x60>
    bba0:	e59f31ac 	ldr	r3, [pc, #428]	; bd54 <init_tama_info+0x1f8>
    bba4:	e5931000 	ldr	r1, [r3]
    bba8:	e59f01a8 	ldr	r0, [pc, #424]	; bd58 <init_tama_info+0x1fc>
    bbac:	eb001b19 	bl	12818 <printk>
    bbb0:	e1a0d004 	mov	sp, r4
    bbb4:	e24bd020 	sub	sp, fp, #32, 0
    bbb8:	e8bd8ff0 	pop	{r4, r5, r6, r7, r8, r9, sl, fp, pc}
    bbbc:	e3a03000 	mov	r3, #0, 0
    bbc0:	e59f218c 	ldr	r2, [pc, #396]	; bd54 <init_tama_info+0x1f8>
    bbc4:	e5922000 	ldr	r2, [r2]
    bbc8:	e24b1050 	sub	r1, fp, #80, 0	; 0x50
    bbcc:	e1a0000a 	mov	r0, sl
    bbd0:	eb001428 	bl	10c78 <fat32_create>
    bbd4:	e3500000 	cmp	r0, #0, 0
    bbd8:	0a000037 	beq	bcbc <init_tama_info+0x160>
    bbdc:	e59f3170 	ldr	r3, [pc, #368]	; bd54 <init_tama_info+0x1f8>
    bbe0:	e5933004 	ldr	r3, [r3, #4]
    bbe4:	e0833103 	add	r3, r3, r3, lsl #2
    bbe8:	e0833103 	add	r3, r3, r3, lsl #2
    bbec:	e1a03103 	lsl	r3, r3, #2
    bbf0:	e50b3064 	str	r3, [fp, #-100]	; 0xffffff9c
    bbf4:	e1a09003 	mov	r9, r3
    bbf8:	e2833007 	add	r3, r3, #7, 0
    bbfc:	e3c33007 	bic	r3, r3, #7, 0
    bc00:	e04dd003 	sub	sp, sp, r3
    bc04:	e28d3008 	add	r3, sp, #8, 0
    bc08:	e1a04003 	mov	r4, r3
    bc0c:	e50b3068 	str	r3, [fp, #-104]	; 0xffffff98
    bc10:	e1a08003 	mov	r8, r3
    bc14:	e3a06000 	mov	r6, #0, 0
    bc18:	e59f3134 	ldr	r3, [pc, #308]	; bd54 <init_tama_info+0x1f8>
    bc1c:	e5933004 	ldr	r3, [r3, #4]
    bc20:	e1560003 	cmp	r6, r3
    bc24:	2a000032 	bcs	bcf4 <init_tama_info+0x198>
    bc28:	e59f7124 	ldr	r7, [pc, #292]	; bd54 <init_tama_info+0x1f8>
    bc2c:	e0877106 	add	r7, r7, r6, lsl #2
    bc30:	e5970008 	ldr	r0, [r7, #8]
    bc34:	eb001c2a 	bl	12ce4 <strlen>
    bc38:	e1a05000 	mov	r5, r0
    bc3c:	e5970030 	ldr	r0, [r7, #48]	; 0x30
    bc40:	eb001c27 	bl	12ce4 <strlen>
    bc44:	e0855000 	add	r5, r5, r0
    bc48:	e2855004 	add	r5, r5, #4, 0
    bc4c:	e0440008 	sub	r0, r4, r8
    bc50:	e0805005 	add	r5, r0, r5
    bc54:	e1550009 	cmp	r5, r9
    bc58:	2a00001f 	bcs	bcdc <init_tama_info+0x180>
    bc5c:	e59f50f0 	ldr	r5, [pc, #240]	; bd54 <init_tama_info+0x1f8>
    bc60:	e0855106 	add	r5, r5, r6, lsl #2
    bc64:	e5951008 	ldr	r1, [r5, #8]
    bc68:	e1a00004 	mov	r0, r4
    bc6c:	eb001c14 	bl	12cc4 <strcpy>
    bc70:	e5950008 	ldr	r0, [r5, #8]
    bc74:	eb001c1a 	bl	12ce4 <strlen>
    bc78:	e0844000 	add	r4, r4, r0
    bc7c:	e59f10d8 	ldr	r1, [pc, #216]	; bd5c <init_tama_info+0x200>
    bc80:	e1a00004 	mov	r0, r4
    bc84:	eb001c0e 	bl	12cc4 <strcpy>
    bc88:	e2844002 	add	r4, r4, #2, 0
    bc8c:	e5951030 	ldr	r1, [r5, #48]	; 0x30
    bc90:	e1a00004 	mov	r0, r4
    bc94:	eb001c0a 	bl	12cc4 <strcpy>
    bc98:	e5950030 	ldr	r0, [r5, #48]	; 0x30
    bc9c:	eb001c10 	bl	12ce4 <strlen>
    bca0:	e0844000 	add	r4, r4, r0
    bca4:	e59f10b4 	ldr	r1, [pc, #180]	; bd60 <init_tama_info+0x204>
    bca8:	e1a00004 	mov	r0, r4
    bcac:	eb001c04 	bl	12cc4 <strcpy>
    bcb0:	e2844002 	add	r4, r4, #2, 0
    bcb4:	e2866001 	add	r6, r6, #1, 0
    bcb8:	eaffffd6 	b	bc18 <init_tama_info+0xbc>
    bcbc:	e59f30a0 	ldr	r3, [pc, #160]	; bd64 <init_tama_info+0x208>
    bcc0:	e58d3000 	str	r3, [sp]
    bcc4:	e3a03066 	mov	r3, #102, 0	; 0x66
    bcc8:	e59f2098 	ldr	r2, [pc, #152]	; bd68 <init_tama_info+0x20c>
    bccc:	e59f1098 	ldr	r1, [pc, #152]	; bd6c <init_tama_info+0x210>
    bcd0:	e59f0098 	ldr	r0, [pc, #152]	; bd70 <init_tama_info+0x214>
    bcd4:	eb001acf 	bl	12818 <printk>
    bcd8:	eb001c13 	bl	12d2c <clean_reboot>
    bcdc:	e3a0306f 	mov	r3, #111, 0	; 0x6f
    bce0:	e59f2080 	ldr	r2, [pc, #128]	; bd68 <init_tama_info+0x20c>
    bce4:	e59f1080 	ldr	r1, [pc, #128]	; bd6c <init_tama_info+0x210>
    bce8:	e59f0084 	ldr	r0, [pc, #132]	; bd74 <init_tama_info+0x218>
    bcec:	eb001ac9 	bl	12818 <printk>
    bcf0:	eb001c0d 	bl	12d2c <clean_reboot>
    bcf4:	e51b3068 	ldr	r3, [fp, #-104]	; 0xffffff98
    bcf8:	e50b305c 	str	r3, [fp, #-92]	; 0xffffffa4
    bcfc:	e51b2064 	ldr	r2, [fp, #-100]	; 0xffffff9c
    bd00:	e50b2058 	str	r2, [fp, #-88]	; 0xffffffa8
    bd04:	e0444003 	sub	r4, r4, r3
    bd08:	e50b4054 	str	r4, [fp, #-84]	; 0xffffffac
    bd0c:	e24b305c 	sub	r3, fp, #92, 0	; 0x5c
    bd10:	e59f203c 	ldr	r2, [pc, #60]	; bd54 <init_tama_info+0x1f8>
    bd14:	e5922000 	ldr	r2, [r2]
    bd18:	e24b1050 	sub	r1, fp, #80, 0	; 0x50
    bd1c:	e1a0000a 	mov	r0, sl
    bd20:	eb001536 	bl	11200 <fat32_write>
    bd24:	e3500000 	cmp	r0, #0, 0
    bd28:	0a000001 	beq	bd34 <init_tama_info+0x1d8>
    bd2c:	e51bd060 	ldr	sp, [fp, #-96]	; 0xffffffa0
    bd30:	eaffff9f 	b	bbb4 <init_tama_info+0x58>
    bd34:	e59f303c 	ldr	r3, [pc, #60]	; bd78 <init_tama_info+0x21c>
    bd38:	e58d3000 	str	r3, [sp]
    bd3c:	e3a0307f 	mov	r3, #127, 0	; 0x7f
    bd40:	e59f2020 	ldr	r2, [pc, #32]	; bd68 <init_tama_info+0x20c>
    bd44:	e59f1020 	ldr	r1, [pc, #32]	; bd6c <init_tama_info+0x210>
    bd48:	e59f0020 	ldr	r0, [pc, #32]	; bd70 <init_tama_info+0x214>
    bd4c:	eb001ab1 	bl	12818 <printk>
    bd50:	eb001bf5 	bl	12d2c <clean_reboot>
    bd54:	0019ed7c 	.word	0x0019ed7c
    bd58:	0019b798 	.word	0x0019b798
    bd5c:	0019b828 	.word	0x0019b828
    bd60:	0019d3d8 	.word	0x0019d3d8
    bd64:	0019b7c4 	.word	0x0019b7c4
    bd68:	0019b9c0 	.word	0x0019b9c0
    bd6c:	0019b7ac 	.word	0x0019b7ac
    bd70:	0019b6f4 	.word	0x0019b6f4
    bd74:	0019b7e8 	.word	0x0019b7e8
    bd78:	0019b82c 	.word	0x0019b82c

0000bd7c <get_field_data>:
    bd7c:	e92d47f0 	push	{r4, r5, r6, r7, r8, r9, sl, lr}
    bd80:	e24dd038 	sub	sp, sp, #56, 0	; 0x38
    bd84:	e1a09000 	mov	r9, r0
    bd88:	ebffff68 	bl	bb30 <get_fs>
    bd8c:	e1a04000 	mov	r4, r0
    bd90:	e1a01000 	mov	r1, r0
    bd94:	e28d000c 	add	r0, sp, #12, 0
    bd98:	eb001278 	bl	10780 <fat32_get_root>
    bd9c:	e59f3138 	ldr	r3, [pc, #312]	; bedc <get_field_data+0x160>
    bda0:	e5932000 	ldr	r2, [r3]
    bda4:	e28d100c 	add	r1, sp, #12, 0
    bda8:	e1a00004 	mov	r0, r4
    bdac:	eb00132a 	bl	10a5c <fat32_read>
    bdb0:	e2506000 	subs	r6, r0, #0, 0
    bdb4:	0a000005 	beq	bdd0 <get_field_data+0x54>
    bdb8:	e5965008 	ldr	r5, [r6, #8]
    bdbc:	e1a00009 	mov	r0, r9
    bdc0:	eb001bc7 	bl	12ce4 <strlen>
    bdc4:	e1a08000 	mov	r8, r0
    bdc8:	e3a04000 	mov	r4, #0, 0
    bdcc:	ea00002d 	b	be88 <get_field_data+0x10c>
    bdd0:	e59f3104 	ldr	r3, [pc, #260]	; bedc <get_field_data+0x160>
    bdd4:	e5933000 	ldr	r3, [r3]
    bdd8:	e58d3000 	str	r3, [sp]
    bddc:	e3a03087 	mov	r3, #135, 0	; 0x87
    bde0:	e59f20f8 	ldr	r2, [pc, #248]	; bee0 <get_field_data+0x164>
    bde4:	e59f10f8 	ldr	r1, [pc, #248]	; bee4 <get_field_data+0x168>
    bde8:	e59f00f8 	ldr	r0, [pc, #248]	; bee8 <get_field_data+0x16c>
    bdec:	eb001a89 	bl	12818 <printk>
    bdf0:	eb001bcd 	bl	12d2c <clean_reboot>
    bdf4:	e5960000 	ldr	r0, [r6]
    bdf8:	e1a02008 	mov	r2, r8
    bdfc:	e1a01009 	mov	r1, r9
    be00:	e0800004 	add	r0, r0, r4
    be04:	eb001bbd 	bl	12d00 <strncmp>
    be08:	e3500000 	cmp	r0, #0, 0
    be0c:	1a000023 	bne	bea0 <get_field_data+0x124>
    be10:	e5963000 	ldr	r3, [r6]
    be14:	e7d32007 	ldrb	r2, [r3, r7]
    be18:	e352003d 	cmp	r2, #61, 0	; 0x3d
    be1c:	1a00001f 	bne	bea0 <get_field_data+0x124>
    be20:	e0837007 	add	r7, r3, r7
    be24:	e5d72001 	ldrb	r2, [r7, #1]
    be28:	e3520022 	cmp	r2, #34, 0	; 0x22
    be2c:	1a00001b 	bne	bea0 <get_field_data+0x124>
    be30:	e1a0200a 	mov	r2, sl
    be34:	ea000000 	b	be3c <get_field_data+0xc0>
    be38:	e2822001 	add	r2, r2, #1, 0
    be3c:	e1520005 	cmp	r2, r5
    be40:	2a000002 	bcs	be50 <get_field_data+0xd4>
    be44:	e7d31002 	ldrb	r1, [r3, r2]
    be48:	e3510022 	cmp	r1, #34, 0	; 0x22
    be4c:	1afffff9 	bne	be38 <get_field_data+0xbc>
    be50:	e042400a 	sub	r4, r2, sl
    be54:	e2840001 	add	r0, r4, #1, 0
    be58:	eb001760 	bl	11be0 <kmalloc>
    be5c:	e1a05000 	mov	r5, r0
    be60:	e5961000 	ldr	r1, [r6]
    be64:	e1a02004 	mov	r2, r4
    be68:	e081100a 	add	r1, r1, sl
    be6c:	eb0019f7 	bl	12650 <memcpy>
    be70:	e3a03000 	mov	r3, #0, 0
    be74:	e7c53004 	strb	r3, [r5, r4]
    be78:	e1a00005 	mov	r0, r5
    be7c:	e28dd038 	add	sp, sp, #56, 0	; 0x38
    be80:	e8bd87f0 	pop	{r4, r5, r6, r7, r8, r9, sl, pc}
    be84:	e2844001 	add	r4, r4, #1, 0
    be88:	e1540005 	cmp	r4, r5
    be8c:	2a00000b 	bcs	bec0 <get_field_data+0x144>
    be90:	e0847008 	add	r7, r4, r8
    be94:	e287a002 	add	sl, r7, #2, 0
    be98:	e15a0005 	cmp	sl, r5
    be9c:	3affffd4 	bcc	bdf4 <get_field_data+0x78>
    bea0:	e1540005 	cmp	r4, r5
    bea4:	2afffff6 	bcs	be84 <get_field_data+0x108>
    bea8:	e5963000 	ldr	r3, [r6]
    beac:	e7d33004 	ldrb	r3, [r3, r4]
    beb0:	e353000a 	cmp	r3, #10, 0
    beb4:	0afffff2 	beq	be84 <get_field_data+0x108>
    beb8:	e2844001 	add	r4, r4, #1, 0
    bebc:	eafffff7 	b	bea0 <get_field_data+0x124>
    bec0:	e58d9000 	str	r9, [sp]
    bec4:	e3a030a9 	mov	r3, #169, 0	; 0xa9
    bec8:	e59f2010 	ldr	r2, [pc, #16]	; bee0 <get_field_data+0x164>
    becc:	e59f1010 	ldr	r1, [pc, #16]	; bee4 <get_field_data+0x168>
    bed0:	e59f0014 	ldr	r0, [pc, #20]	; beec <get_field_data+0x170>
    bed4:	eb001a4f 	bl	12818 <printk>
    bed8:	eb001b93 	bl	12d2c <clean_reboot>
    bedc:	0019ed7c 	.word	0x0019ed7c
    bee0:	0019b9d0 	.word	0x0019b9d0
    bee4:	0019b7ac 	.word	0x0019b7ac
    bee8:	0019b858 	.word	0x0019b858
    beec:	0019b87c 	.word	0x0019b87c

0000bef0 <get_age>:
    bef0:	e92d4070 	push	{r4, r5, r6, lr}
    bef4:	e1a05000 	mov	r5, r0
    bef8:	e59f0018 	ldr	r0, [pc, #24]	; bf18 <get_age+0x28>
    befc:	ebffff9e 	bl	bd7c <get_field_data>
    bf00:	ebfffeae 	bl	b9c0 <simple_atoi>
    bf04:	e1a04000 	mov	r4, r0
    bf08:	e1a00005 	mov	r0, r5
    bf0c:	ebfffb76 	bl	acec <rtc_get_total_seconds>
    bf10:	e0400004 	sub	r0, r0, r4
    bf14:	e8bd8070 	pop	{r4, r5, r6, pc}
    bf18:	0019b8a0 	.word	0x0019b8a0

0000bf1c <get_start>:
    bf1c:	e92d4010 	push	{r4, lr}
    bf20:	e59f0004 	ldr	r0, [pc, #4]	; bf2c <get_start+0x10>
    bf24:	ebffff94 	bl	bd7c <get_field_data>
    bf28:	e8bd8010 	pop	{r4, pc}
    bf2c:	0019b8a8 	.word	0x0019b8a8

0000bf30 <get_peak>:
    bf30:	e92d4010 	push	{r4, lr}
    bf34:	e59f0004 	ldr	r0, [pc, #4]	; bf40 <get_peak+0x10>
    bf38:	ebffff8f 	bl	bd7c <get_field_data>
    bf3c:	e8bd8010 	pop	{r4, pc}
    bf40:	000134a8 	.word	0x000134a8

0000bf44 <get_num_trades>:
    bf44:	e92d4010 	push	{r4, lr}
    bf48:	e59f0004 	ldr	r0, [pc, #4]	; bf54 <get_num_trades+0x10>
    bf4c:	ebffff8a 	bl	bd7c <get_field_data>
    bf50:	e8bd8010 	pop	{r4, pc}
    bf54:	00013480 	.word	0x00013480

0000bf58 <get_level>:
    bf58:	e92d4010 	push	{r4, lr}
    bf5c:	e59f0004 	ldr	r0, [pc, #4]	; bf68 <get_level+0x10>
    bf60:	ebffff85 	bl	bd7c <get_field_data>
    bf64:	e8bd8010 	pop	{r4, pc}
    bf68:	0001349c 	.word	0x0001349c

0000bf6c <get_hearts>:
    bf6c:	e92d4010 	push	{r4, lr}
    bf70:	e24dd008 	sub	sp, sp, #8, 0
    bf74:	e59f0088 	ldr	r0, [pc, #136]	; c004 <get_hearts+0x98>
    bf78:	ebffff7f 	bl	bd7c <get_field_data>
    bf7c:	ebfffe8f 	bl	b9c0 <simple_atoi>
    bf80:	e1a04000 	mov	r4, r0
    bf84:	e59f007c 	ldr	r0, [pc, #124]	; c008 <get_hearts+0x9c>
    bf88:	ebffff7b 	bl	bd7c <get_field_data>
    bf8c:	ebfffe8b 	bl	b9c0 <simple_atoi>
    bf90:	e2503000 	subs	r3, r0, #0, 0
    bf94:	13a03001 	movne	r3, #1, 0
    bf98:	e3540000 	cmp	r4, #0, 0
    bf9c:	03a03000 	moveq	r3, #0, 0
    bfa0:	e3530000 	cmp	r3, #0, 0
    bfa4:	1a000008 	bne	bfcc <get_hearts+0x60>
    bfa8:	e3540000 	cmp	r4, #0, 0
    bfac:	0a000010 	beq	bff4 <get_hearts+0x88>
    bfb0:	e3540001 	cmp	r4, #1, 0
    bfb4:	0a000010 	beq	bffc <get_hearts+0x90>
    bfb8:	e3540002 	cmp	r4, #2, 0
    bfbc:	0a00000a 	beq	bfec <get_hearts+0x80>
    bfc0:	e3a00000 	mov	r0, #0, 0
    bfc4:	e28dd008 	add	sp, sp, #8, 0
    bfc8:	e8bd8010 	pop	{r4, pc}
    bfcc:	e58d0004 	str	r0, [sp, #4]
    bfd0:	e58d4000 	str	r4, [sp]
    bfd4:	e3a030c7 	mov	r3, #199, 0	; 0xc7
    bfd8:	e59f202c 	ldr	r2, [pc, #44]	; c00c <get_hearts+0xa0>
    bfdc:	e59f102c 	ldr	r1, [pc, #44]	; c010 <get_hearts+0xa4>
    bfe0:	e59f002c 	ldr	r0, [pc, #44]	; c014 <get_hearts+0xa8>
    bfe4:	eb001a0b 	bl	12818 <printk>
    bfe8:	eb001b4f 	bl	12d2c <clean_reboot>
    bfec:	e3a00001 	mov	r0, #1, 0
    bff0:	eafffff3 	b	bfc4 <get_hearts+0x58>
    bff4:	e3a00003 	mov	r0, #3, 0
    bff8:	eafffff1 	b	bfc4 <get_hearts+0x58>
    bffc:	e3a00002 	mov	r0, #2, 0
    c000:	eaffffef 	b	bfc4 <get_hearts+0x58>
    c004:	00013468 	.word	0x00013468
    c008:	00013474 	.word	0x00013474
    c00c:	0019b9e0 	.word	0x0019b9e0
    c010:	0019b7ac 	.word	0x0019b7ac
    c014:	0019b8b0 	.word	0x0019b8b0

0000c018 <get_last_trade_time>:
    c018:	e92d4010 	push	{r4, lr}
    c01c:	e59f013c 	ldr	r0, [pc, #316]	; c160 <get_last_trade_time+0x148>
    c020:	ebffff55 	bl	bd7c <get_field_data>
    c024:	e5d03000 	ldrb	r3, [r0]
    c028:	e2433030 	sub	r3, r3, #48, 0	; 0x30
    c02c:	e0631283 	rsb	r1, r3, r3, lsl #5
    c030:	e0831101 	add	r1, r3, r1, lsl #2
    c034:	e5d02001 	ldrb	r2, [r0, #1]
    c038:	e2422030 	sub	r2, r2, #48, 0	; 0x30
    c03c:	e0822102 	add	r2, r2, r2, lsl #2
    c040:	e0823102 	add	r3, r2, r2, lsl #2
    c044:	e1a03103 	lsl	r3, r3, #2
    c048:	e0833181 	add	r3, r3, r1, lsl #3
    c04c:	e5d02002 	ldrb	r2, [r0, #2]
    c050:	e2422030 	sub	r2, r2, #48, 0	; 0x30
    c054:	e0822102 	add	r2, r2, r2, lsl #2
    c058:	e0833082 	add	r3, r3, r2, lsl #1
    c05c:	e5d02003 	ldrb	r2, [r0, #3]
    c060:	e2422030 	sub	r2, r2, #48, 0	; 0x30
    c064:	e0833002 	add	r3, r3, r2
    c068:	e5d02004 	ldrb	r2, [r0, #4]
    c06c:	e2422030 	sub	r2, r2, #48, 0	; 0x30
    c070:	e0822102 	add	r2, r2, r2, lsl #2
    c074:	e5d01005 	ldrb	r1, [r0, #5]
    c078:	e2411030 	sub	r1, r1, #48, 0	; 0x30
    c07c:	e0812082 	add	r2, r1, r2, lsl #1
    c080:	e5d0e006 	ldrb	lr, [r0, #6]
    c084:	e24ee030 	sub	lr, lr, #48, 0	; 0x30
    c088:	e08ee10e 	add	lr, lr, lr, lsl #2
    c08c:	e5d01007 	ldrb	r1, [r0, #7]
    c090:	e2411030 	sub	r1, r1, #48, 0	; 0x30
    c094:	e081e08e 	add	lr, r1, lr, lsl #1
    c098:	e5d01008 	ldrb	r1, [r0, #8]
    c09c:	e2411030 	sub	r1, r1, #48, 0	; 0x30
    c0a0:	e0811101 	add	r1, r1, r1, lsl #2
    c0a4:	e5d0c009 	ldrb	ip, [r0, #9]
    c0a8:	e24cc030 	sub	ip, ip, #48, 0	; 0x30
    c0ac:	e08c1081 	add	r1, ip, r1, lsl #1
    c0b0:	e5d0c00a 	ldrb	ip, [r0, #10]
    c0b4:	e24cc030 	sub	ip, ip, #48, 0	; 0x30
    c0b8:	e08cc10c 	add	ip, ip, ip, lsl #2
    c0bc:	e5d0400b 	ldrb	r4, [r0, #11]
    c0c0:	e2444030 	sub	r4, r4, #48, 0	; 0x30
    c0c4:	e084c08c 	add	ip, r4, ip, lsl #1
    c0c8:	e5d0400c 	ldrb	r4, [r0, #12]
    c0cc:	e2444030 	sub	r4, r4, #48, 0	; 0x30
    c0d0:	e0844104 	add	r4, r4, r4, lsl #2
    c0d4:	e5d0000d 	ldrb	r0, [r0, #13]
    c0d8:	e2400030 	sub	r0, r0, #48, 0	; 0x30
    c0dc:	e0800084 	add	r0, r0, r4, lsl #1
    c0e0:	e3520002 	cmp	r2, #2, 0
    c0e4:	9282200c 	addls	r2, r2, #12, 0
    c0e8:	92433001 	subls	r3, r3, #1, 0
    c0ec:	e0822182 	add	r2, r2, r2, lsl #3
    c0f0:	e0822202 	add	r2, r2, r2, lsl #4
    c0f4:	e2422f72 	sub	r2, r2, #456	; 0x1c8
    c0f8:	e2422001 	sub	r2, r2, #1, 0
    c0fc:	e59f4060 	ldr	r4, [pc, #96]	; c164 <get_last_trade_time+0x14c>
    c100:	e0824294 	umull	r4, r2, r4, r2
    c104:	e08e2122 	add	r2, lr, r2, lsr #2
    c108:	e083e183 	add	lr, r3, r3, lsl #3
    c10c:	e083e18e 	add	lr, r3, lr, lsl #3
    c110:	e08ee10e 	add	lr, lr, lr, lsl #2
    c114:	e082200e 	add	r2, r2, lr
    c118:	e0822123 	add	r2, r2, r3, lsr #2
    c11c:	e59fe044 	ldr	lr, [pc, #68]	; c168 <get_last_trade_time+0x150>
    c120:	e083e39e 	umull	lr, r3, lr, r3
    c124:	e04222a3 	sub	r2, r2, r3, lsr #5
    c128:	e08233a3 	add	r3, r2, r3, lsr #7
    c12c:	e59f2038 	ldr	r2, [pc, #56]	; c16c <get_last_trade_time+0x154>
    c130:	e0832002 	add	r2, r3, r2
    c134:	e0823082 	add	r3, r2, r2, lsl #1
    c138:	e0633203 	rsb	r3, r3, r3, lsl #4
    c13c:	e0632203 	rsb	r2, r3, r3, lsl #4
    c140:	e0613201 	rsb	r3, r1, r1, lsl #4
    c144:	e0633203 	rsb	r3, r3, r3, lsl #4
    c148:	e1a03203 	lsl	r3, r3, #4
    c14c:	e0833382 	add	r3, r3, r2, lsl #7
    c150:	e06cc20c 	rsb	ip, ip, ip, lsl #4
    c154:	e083310c 	add	r3, r3, ip, lsl #2
    c158:	e0830000 	add	r0, r3, r0
    c15c:	e8bd8010 	pop	{r4, pc}
    c160:	0019b8f8 	.word	0x0019b8f8
    c164:	cccccccd 	.word	0xcccccccd
    c168:	51eb851f 	.word	0x51eb851f
    c16c:	fff4dac6 	.word	0xfff4dac6

0000c170 <readable_concat>:
    c170:	e92d41f0 	push	{r4, r5, r6, r7, r8, lr}
    c174:	e1a07000 	mov	r7, r0
    c178:	e1a06001 	mov	r6, r1
    c17c:	e3a00010 	mov	r0, #16, 0
    c180:	eb001696 	bl	11be0 <kmalloc>
    c184:	e1a04000 	mov	r4, r0
    c188:	e1a00007 	mov	r0, r7
    c18c:	eb001ad4 	bl	12ce4 <strlen>
    c190:	e1a05000 	mov	r5, r0
    c194:	e1a02000 	mov	r2, r0
    c198:	e1a01007 	mov	r1, r7
    c19c:	e1a00004 	mov	r0, r4
    c1a0:	eb00192a 	bl	12650 <memcpy>
    c1a4:	e0847005 	add	r7, r4, r5
    c1a8:	e1a00006 	mov	r0, r6
    c1ac:	eb001acc 	bl	12ce4 <strlen>
    c1b0:	e1a02000 	mov	r2, r0
    c1b4:	e1a01006 	mov	r1, r6
    c1b8:	e1a00007 	mov	r0, r7
    c1bc:	eb001923 	bl	12650 <memcpy>
    c1c0:	e1a00006 	mov	r0, r6
    c1c4:	eb001ac6 	bl	12ce4 <strlen>
    c1c8:	e0805005 	add	r5, r0, r5
    c1cc:	e3a03000 	mov	r3, #0, 0
    c1d0:	e7c43005 	strb	r3, [r4, r5]
    c1d4:	e1a00004 	mov	r0, r4
    c1d8:	e8bd81f0 	pop	{r4, r5, r6, r7, r8, pc}

0000c1dc <get_hearts_readable>:
    c1dc:	e92d4070 	push	{r4, r5, r6, lr}
    c1e0:	ebffff61 	bl	bf6c <get_hearts>
    c1e4:	e1a05000 	mov	r5, r0
    c1e8:	e3a00009 	mov	r0, #9, 0
    c1ec:	eb00167b 	bl	11be0 <kmalloc>
    c1f0:	e1a04000 	mov	r4, r0
    c1f4:	e3a02007 	mov	r2, #7, 0
    c1f8:	e59f1018 	ldr	r1, [pc, #24]	; c218 <get_hearts_readable+0x3c>
    c1fc:	eb001913 	bl	12650 <memcpy>
    c200:	e2855030 	add	r5, r5, #48, 0	; 0x30
    c204:	e5c45007 	strb	r5, [r4, #7]
    c208:	e3a03000 	mov	r3, #0, 0
    c20c:	e5c43008 	strb	r3, [r4, #8]
    c210:	e1a00004 	mov	r0, r4
    c214:	e8bd8070 	pop	{r4, r5, r6, pc}
    c218:	0019b904 	.word	0x0019b904

0000c21c <get_age_readable>:
    c21c:	e92d4010 	push	{r4, lr}
    c220:	ebffff32 	bl	bef0 <get_age>
    c224:	e59f3018 	ldr	r3, [pc, #24]	; c244 <get_age_readable+0x28>
    c228:	e0803093 	umull	r3, r0, r3, r0
    c22c:	e1a00820 	lsr	r0, r0, #16
    c230:	ebfffdf9 	bl	ba1c <simple_itoa>
    c234:	e1a01000 	mov	r1, r0
    c238:	e59f0008 	ldr	r0, [pc, #8]	; c248 <get_age_readable+0x2c>
    c23c:	ebffffcb 	bl	c170 <readable_concat>
    c240:	e8bd8010 	pop	{r4, pc}
    c244:	c22e4507 	.word	0xc22e4507
    c248:	0019b90c 	.word	0x0019b90c

0000c24c <get_time_rem_readable>:
    c24c:	e92d4070 	push	{r4, r5, r6, lr}
    c250:	e1a05000 	mov	r5, r0
    c254:	ebffff6f 	bl	c018 <get_last_trade_time>
    c258:	e1a04000 	mov	r4, r0
    c25c:	e1a00005 	mov	r0, r5
    c260:	ebfffaa1 	bl	acec <rtc_get_total_seconds>
    c264:	e0400004 	sub	r0, r0, r4
    c268:	e59f3018 	ldr	r3, [pc, #24]	; c288 <get_time_rem_readable+0x3c>
    c26c:	e0803093 	umull	r3, r0, r3, r0
    c270:	e1a002a0 	lsr	r0, r0, #5
    c274:	ebfffde8 	bl	ba1c <simple_itoa>
    c278:	e1a01000 	mov	r1, r0
    c27c:	e59f0008 	ldr	r0, [pc, #8]	; c28c <get_time_rem_readable+0x40>
    c280:	ebffffba 	bl	c170 <readable_concat>
    c284:	e8bd8070 	pop	{r4, r5, r6, pc}
    c288:	88888889 	.word	0x88888889
    c28c:	0019b914 	.word	0x0019b914

0000c290 <get_start_readable>:
    c290:	e92d4010 	push	{r4, lr}
    c294:	e59f0010 	ldr	r0, [pc, #16]	; c2ac <get_start_readable+0x1c>
    c298:	ebfffeb7 	bl	bd7c <get_field_data>
    c29c:	e1a01000 	mov	r1, r0
    c2a0:	e59f0008 	ldr	r0, [pc, #8]	; c2b0 <get_start_readable+0x20>
    c2a4:	ebffffb1 	bl	c170 <readable_concat>
    c2a8:	e8bd8010 	pop	{r4, pc}
    c2ac:	0019b8a8 	.word	0x0019b8a8
    c2b0:	0019b920 	.word	0x0019b920

0000c2b4 <get_peak_readable>:
    c2b4:	e92d4010 	push	{r4, lr}
    c2b8:	e59f0010 	ldr	r0, [pc, #16]	; c2d0 <get_peak_readable+0x1c>
    c2bc:	ebfffeae 	bl	bd7c <get_field_data>
    c2c0:	e1a01000 	mov	r1, r0
    c2c4:	e59f0008 	ldr	r0, [pc, #8]	; c2d4 <get_peak_readable+0x20>
    c2c8:	ebffffa8 	bl	c170 <readable_concat>
    c2cc:	e8bd8010 	pop	{r4, pc}
    c2d0:	000134a8 	.word	0x000134a8
    c2d4:	0019b928 	.word	0x0019b928

0000c2d8 <get_level_readable>:
    c2d8:	e92d4010 	push	{r4, lr}
    c2dc:	e59f0010 	ldr	r0, [pc, #16]	; c2f4 <get_level_readable+0x1c>
    c2e0:	ebfffea5 	bl	bd7c <get_field_data>
    c2e4:	e1a01000 	mov	r1, r0
    c2e8:	e59f0008 	ldr	r0, [pc, #8]	; c2f8 <get_level_readable+0x20>
    c2ec:	ebffff9f 	bl	c170 <readable_concat>
    c2f0:	e8bd8010 	pop	{r4, pc}
    c2f4:	0001349c 	.word	0x0001349c
    c2f8:	0019b930 	.word	0x0019b930

0000c2fc <get_state_readable>:
    c2fc:	e92d4010 	push	{r4, lr}
    c300:	e59f0010 	ldr	r0, [pc, #16]	; c318 <get_state_readable+0x1c>
    c304:	ebfffe9c 	bl	bd7c <get_field_data>
    c308:	e1a01000 	mov	r1, r0
    c30c:	e59f0008 	ldr	r0, [pc, #8]	; c31c <get_state_readable+0x20>
    c310:	ebffff96 	bl	c170 <readable_concat>
    c314:	e8bd8010 	pop	{r4, pc}
    c318:	00013494 	.word	0x00013494
    c31c:	0019b938 	.word	0x0019b938

0000c320 <get_num_trades_readable>:
    c320:	e92d4010 	push	{r4, lr}
    c324:	ebffff06 	bl	bf44 <get_num_trades>
    c328:	e1a01000 	mov	r1, r0
    c32c:	e59f0004 	ldr	r0, [pc, #4]	; c338 <get_num_trades_readable+0x18>
    c330:	ebffff8e 	bl	c170 <readable_concat>
    c334:	e8bd8010 	pop	{r4, pc}
    c338:	0019b940 	.word	0x0019b940

0000c33c <get_win_streak_readable>:
    c33c:	e92d4010 	push	{r4, lr}
    c340:	e59f0010 	ldr	r0, [pc, #16]	; c358 <get_win_streak_readable+0x1c>
    c344:	ebfffe8c 	bl	bd7c <get_field_data>
    c348:	e1a01000 	mov	r1, r0
    c34c:	e59f0008 	ldr	r0, [pc, #8]	; c35c <get_win_streak_readable+0x20>
    c350:	ebffff86 	bl	c170 <readable_concat>
    c354:	e8bd8010 	pop	{r4, pc}
    c358:	00013474 	.word	0x00013474
    c35c:	0019b948 	.word	0x0019b948

0000c360 <get_loss_streak_readable>:
    c360:	e92d4010 	push	{r4, lr}
    c364:	e59f0010 	ldr	r0, [pc, #16]	; c37c <get_loss_streak_readable+0x1c>
    c368:	ebfffe83 	bl	bd7c <get_field_data>
    c36c:	e1a01000 	mov	r1, r0
    c370:	e59f0008 	ldr	r0, [pc, #8]	; c380 <get_loss_streak_readable+0x20>
    c374:	ebffff7d 	bl	c170 <readable_concat>
    c378:	e8bd8010 	pop	{r4, pc}
    c37c:	00013468 	.word	0x00013468
    c380:	0019b954 	.word	0x0019b954

0000c384 <get_balance_readable>:
    c384:	e92d41f0 	push	{r4, r5, r6, r7, r8, lr}
    c388:	ebfffbff 	bl	b38c <kalshi_get_balance>
    c38c:	ebfffda2 	bl	ba1c <simple_itoa>
    c390:	e1a06000 	mov	r6, r0
    c394:	eb001a52 	bl	12ce4 <strlen>
    c398:	e1a04000 	mov	r4, r0
    c39c:	e3a00010 	mov	r0, #16, 0
    c3a0:	eb00160e 	bl	11be0 <kmalloc>
    c3a4:	e1a05000 	mov	r5, r0
    c3a8:	e3a02005 	mov	r2, #5, 0
    c3ac:	e59f1050 	ldr	r1, [pc, #80]	; c404 <get_balance_readable+0x80>
    c3b0:	eb0018a6 	bl	12650 <memcpy>
    c3b4:	e2447002 	sub	r7, r4, #2, 0
    c3b8:	e1a02007 	mov	r2, r7
    c3bc:	e1a01006 	mov	r1, r6
    c3c0:	e2850005 	add	r0, r5, #5, 0
    c3c4:	eb0018a1 	bl	12650 <memcpy>
    c3c8:	e2843003 	add	r3, r4, #3, 0
    c3cc:	e3a0202e 	mov	r2, #46, 0	; 0x2e
    c3d0:	e7c52003 	strb	r2, [r5, r3]
    c3d4:	e2843004 	add	r3, r4, #4, 0
    c3d8:	e7d62007 	ldrb	r2, [r6, r7]
    c3dc:	e7c52003 	strb	r2, [r5, r3]
    c3e0:	e2843005 	add	r3, r4, #5, 0
    c3e4:	e0866004 	add	r6, r6, r4
    c3e8:	e5562001 	ldrb	r2, [r6, #-1]
    c3ec:	e7c52003 	strb	r2, [r5, r3]
    c3f0:	e2844006 	add	r4, r4, #6, 0
    c3f4:	e3a03000 	mov	r3, #0, 0
    c3f8:	e7c53004 	strb	r3, [r5, r4]
    c3fc:	e1a00005 	mov	r0, r5
    c400:	e8bd81f0 	pop	{r4, r5, r6, r7, r8, pc}
    c404:	0019b964 	.word	0x0019b964

0000c408 <write_field_data>:
    c408:	e92d4ff0 	push	{r4, r5, r6, r7, r8, r9, sl, fp, lr}
    c40c:	e28db020 	add	fp, sp, #32, 0
    c410:	e24dd05c 	sub	sp, sp, #92, 0	; 0x5c
    c414:	e50b0064 	str	r0, [fp, #-100]	; 0xffffff9c
    c418:	e50b1070 	str	r1, [fp, #-112]	; 0xffffff90
    c41c:	ebfffdc3 	bl	bb30 <get_fs>
    c420:	e1a04000 	mov	r4, r0
    c424:	e50b0068 	str	r0, [fp, #-104]	; 0xffffff98
    c428:	e1a01000 	mov	r1, r0
    c42c:	e24b0050 	sub	r0, fp, #80, 0	; 0x50
    c430:	eb0010d2 	bl	10780 <fat32_get_root>
    c434:	e59f322c 	ldr	r3, [pc, #556]	; c668 <write_field_data+0x260>
    c438:	e5932000 	ldr	r2, [r3]
    c43c:	e24b1050 	sub	r1, fp, #80, 0	; 0x50
    c440:	e1a00004 	mov	r0, r4
    c444:	eb001184 	bl	10a5c <fat32_read>
    c448:	e2507000 	subs	r7, r0, #0, 0
    c44c:	0a00000c 	beq	c484 <write_field_data+0x7c>
    c450:	e5973004 	ldr	r3, [r7, #4]
    c454:	e2833007 	add	r3, r3, #7, 0
    c458:	e3c33007 	bic	r3, r3, #7, 0
    c45c:	e04dd003 	sub	sp, sp, r3
    c460:	e28d4008 	add	r4, sp, #8, 0
    c464:	e50b406c 	str	r4, [fp, #-108]	; 0xffffff94
    c468:	e5978008 	ldr	r8, [r7, #8]
    c46c:	e51b0064 	ldr	r0, [fp, #-100]	; 0xffffff9c
    c470:	eb001a1b 	bl	12ce4 <strlen>
    c474:	e1a0a000 	mov	sl, r0
    c478:	e3a05000 	mov	r5, #0, 0
    c47c:	e50b5060 	str	r5, [fp, #-96]	; 0xffffffa0
    c480:	ea000032 	b	c550 <write_field_data+0x148>
    c484:	e59f31dc 	ldr	r3, [pc, #476]	; c668 <write_field_data+0x260>
    c488:	e5933000 	ldr	r3, [r3]
    c48c:	e58d3000 	str	r3, [sp]
    c490:	e59f31d4 	ldr	r3, [pc, #468]	; c66c <write_field_data+0x264>
    c494:	e59f21d4 	ldr	r2, [pc, #468]	; c670 <write_field_data+0x268>
    c498:	e59f11d4 	ldr	r1, [pc, #468]	; c674 <write_field_data+0x26c>
    c49c:	e59f01d4 	ldr	r0, [pc, #468]	; c678 <write_field_data+0x270>
    c4a0:	eb0018dc 	bl	12818 <printk>
    c4a4:	eb001a20 	bl	12d2c <clean_reboot>
    c4a8:	e1a0200a 	mov	r2, sl
    c4ac:	e51b1064 	ldr	r1, [fp, #-100]	; 0xffffff9c
    c4b0:	e1a00004 	mov	r0, r4
    c4b4:	eb001865 	bl	12650 <memcpy>
    c4b8:	e084300a 	add	r3, r4, sl
    c4bc:	e3a0203d 	mov	r2, #61, 0	; 0x3d
    c4c0:	e7c4200a 	strb	r2, [r4, sl]
    c4c4:	e2835002 	add	r5, r3, #2, 0
    c4c8:	e3a09022 	mov	r9, #34, 0	; 0x22
    c4cc:	e5c39001 	strb	r9, [r3, #1]
    c4d0:	e51b0070 	ldr	r0, [fp, #-112]	; 0xffffff90
    c4d4:	eb001a02 	bl	12ce4 <strlen>
    c4d8:	e1a04000 	mov	r4, r0
    c4dc:	e1a02000 	mov	r2, r0
    c4e0:	e51b1070 	ldr	r1, [fp, #-112]	; 0xffffff90
    c4e4:	e1a00005 	mov	r0, r5
    c4e8:	eb001858 	bl	12650 <memcpy>
    c4ec:	e0853004 	add	r3, r5, r4
    c4f0:	e7c59004 	strb	r9, [r5, r4]
    c4f4:	e2834002 	add	r4, r3, #2, 0
    c4f8:	e3a0200a 	mov	r2, #10, 0
    c4fc:	e5c32001 	strb	r2, [r3, #1]
    c500:	e1560008 	cmp	r6, r8
    c504:	2a000004 	bcs	c51c <write_field_data+0x114>
    c508:	e5973000 	ldr	r3, [r7]
    c50c:	e7d33006 	ldrb	r3, [r3, r6]
    c510:	e3530022 	cmp	r3, #34, 0	; 0x22
    c514:	12866001 	addne	r6, r6, #1, 0
    c518:	1afffff8 	bne	c500 <write_field_data+0xf8>
    c51c:	e2865001 	add	r5, r6, #1, 0
    c520:	e1550008 	cmp	r5, r8
    c524:	2a000004 	bcs	c53c <write_field_data+0x134>
    c528:	e5973000 	ldr	r3, [r7]
    c52c:	e7d33005 	ldrb	r3, [r3, r5]
    c530:	e353000a 	cmp	r3, #10, 0
    c534:	12855001 	addne	r5, r5, #1, 0
    c538:	1afffff8 	bne	c520 <write_field_data+0x118>
    c53c:	e2855001 	add	r5, r5, #1, 0
    c540:	e3a03001 	mov	r3, #1, 0
    c544:	e50b3060 	str	r3, [fp, #-96]	; 0xffffffa0
    c548:	ea000000 	b	c550 <write_field_data+0x148>
    c54c:	e2855001 	add	r5, r5, #1, 0
    c550:	e1550008 	cmp	r5, r8
    c554:	2a000020 	bcs	c5dc <write_field_data+0x1d4>
    c558:	e51b3060 	ldr	r3, [fp, #-96]	; 0xffffffa0
    c55c:	e3530000 	cmp	r3, #0, 0
    c560:	1a000012 	bne	c5b0 <write_field_data+0x1a8>
    c564:	e085900a 	add	r9, r5, sl
    c568:	e2896002 	add	r6, r9, #2, 0
    c56c:	e1560008 	cmp	r6, r8
    c570:	2a00000e 	bcs	c5b0 <write_field_data+0x1a8>
    c574:	e5970000 	ldr	r0, [r7]
    c578:	e1a0200a 	mov	r2, sl
    c57c:	e51b1064 	ldr	r1, [fp, #-100]	; 0xffffff9c
    c580:	e0800005 	add	r0, r0, r5
    c584:	eb0019dd 	bl	12d00 <strncmp>
    c588:	e3500000 	cmp	r0, #0, 0
    c58c:	1a000007 	bne	c5b0 <write_field_data+0x1a8>
    c590:	e5973000 	ldr	r3, [r7]
    c594:	e7d32009 	ldrb	r2, [r3, r9]
    c598:	e352003d 	cmp	r2, #61, 0	; 0x3d
    c59c:	1a000003 	bne	c5b0 <write_field_data+0x1a8>
    c5a0:	e0839009 	add	r9, r3, r9
    c5a4:	e5d93001 	ldrb	r3, [r9, #1]
    c5a8:	e3530022 	cmp	r3, #34, 0	; 0x22
    c5ac:	0affffbd 	beq	c4a8 <write_field_data+0xa0>
    c5b0:	e1550008 	cmp	r5, r8
    c5b4:	2affffe5 	bcs	c550 <write_field_data+0x148>
    c5b8:	e5973000 	ldr	r3, [r7]
    c5bc:	e7d33005 	ldrb	r3, [r3, r5]
    c5c0:	e4c43001 	strb	r3, [r4], #1
    c5c4:	e5973000 	ldr	r3, [r7]
    c5c8:	e7d33005 	ldrb	r3, [r3, r5]
    c5cc:	e353000a 	cmp	r3, #10, 0
    c5d0:	0affffdd 	beq	c54c <write_field_data+0x144>
    c5d4:	e2855001 	add	r5, r5, #1, 0
    c5d8:	eafffff4 	b	c5b0 <write_field_data+0x1a8>
    c5dc:	e51b3060 	ldr	r3, [fp, #-96]	; 0xffffffa0
    c5e0:	e3530000 	cmp	r3, #0, 0
    c5e4:	0a00000f 	beq	c628 <write_field_data+0x220>
    c5e8:	e51b206c 	ldr	r2, [fp, #-108]	; 0xffffff94
    c5ec:	e50b205c 	str	r2, [fp, #-92]	; 0xffffffa4
    c5f0:	e5973004 	ldr	r3, [r7, #4]
    c5f4:	e50b3058 	str	r3, [fp, #-88]	; 0xffffffa8
    c5f8:	e0444002 	sub	r4, r4, r2
    c5fc:	e50b4054 	str	r4, [fp, #-84]	; 0xffffffac
    c600:	e24b305c 	sub	r3, fp, #92, 0	; 0x5c
    c604:	e59f205c 	ldr	r2, [pc, #92]	; c668 <write_field_data+0x260>
    c608:	e5922000 	ldr	r2, [r2]
    c60c:	e24b1050 	sub	r1, fp, #80, 0	; 0x50
    c610:	e51b0068 	ldr	r0, [fp, #-104]	; 0xffffff98
    c614:	eb0012f9 	bl	11200 <fat32_write>
    c618:	e3500000 	cmp	r0, #0, 0
    c61c:	0a000009 	beq	c648 <write_field_data+0x240>
    c620:	e24bd020 	sub	sp, fp, #32, 0
    c624:	e8bd8ff0 	pop	{r4, r5, r6, r7, r8, r9, sl, fp, pc}
    c628:	e51b3064 	ldr	r3, [fp, #-100]	; 0xffffff9c
    c62c:	e58d3000 	str	r3, [sp]
    c630:	e59f3044 	ldr	r3, [pc, #68]	; c67c <write_field_data+0x274>
    c634:	e59f2034 	ldr	r2, [pc, #52]	; c670 <write_field_data+0x268>
    c638:	e59f1034 	ldr	r1, [pc, #52]	; c674 <write_field_data+0x26c>
    c63c:	e59f003c 	ldr	r0, [pc, #60]	; c680 <write_field_data+0x278>
    c640:	eb001874 	bl	12818 <printk>
    c644:	eb0019b8 	bl	12d2c <clean_reboot>
    c648:	e59f3034 	ldr	r3, [pc, #52]	; c684 <write_field_data+0x27c>
    c64c:	e58d3000 	str	r3, [sp]
    c650:	e3a03d06 	mov	r3, #384	; 0x180
    c654:	e59f2014 	ldr	r2, [pc, #20]	; c670 <write_field_data+0x268>
    c658:	e59f1014 	ldr	r1, [pc, #20]	; c674 <write_field_data+0x26c>
    c65c:	e59f0024 	ldr	r0, [pc, #36]	; c688 <write_field_data+0x280>
    c660:	eb00186c 	bl	12818 <printk>
    c664:	eb0019b0 	bl	12d2c <clean_reboot>
    c668:	0019ed7c 	.word	0x0019ed7c
    c66c:	00000142 	.word	0x00000142
    c670:	0019b9ec 	.word	0x0019b9ec
    c674:	0019b7ac 	.word	0x0019b7ac
    c678:	0019b858 	.word	0x0019b858
    c67c:	00000176 	.word	0x00000176
    c680:	0019b87c 	.word	0x0019b87c
    c684:	0019b96c 	.word	0x0019b96c
    c688:	0019b6f4 	.word	0x0019b6f4

0000c68c <write_last_trade>:
    c68c:	e92d43f0 	push	{r4, r5, r6, r7, r8, r9, lr}
    c690:	e24dd014 	sub	sp, sp, #20, 0
    c694:	e1a09000 	mov	r9, r0
    c698:	ebfff98c 	bl	acd0 <rtc_get_years>
    c69c:	e6ff4070 	uxth	r4, r0
    c6a0:	e2844e7d 	add	r4, r4, #2000	; 0x7d0
    c6a4:	e6ff4074 	uxth	r4, r4
    c6a8:	e1a00009 	mov	r0, r9
    c6ac:	ebfff980 	bl	acb4 <rtc_get_months>
    c6b0:	e1a08000 	mov	r8, r0
    c6b4:	e1a00009 	mov	r0, r9
    c6b8:	ebfff971 	bl	ac84 <rtc_get_days>
    c6bc:	e1a07000 	mov	r7, r0
    c6c0:	e1a00009 	mov	r0, r9
    c6c4:	ebfff967 	bl	ac68 <rtc_get_hours>
    c6c8:	e1a06000 	mov	r6, r0
    c6cc:	e1a00009 	mov	r0, r9
    c6d0:	ebfff95d 	bl	ac4c <rtc_get_minutes>
    c6d4:	e1a05000 	mov	r5, r0
    c6d8:	e1a00009 	mov	r0, r9
    c6dc:	ebfff953 	bl	ac30 <rtc_get_seconds>
    c6e0:	e59f3120 	ldr	r3, [pc, #288]	; c808 <write_last_trade+0x17c>
    c6e4:	e0832493 	umull	r2, r3, r3, r4
    c6e8:	e1a03323 	lsr	r3, r3, #6
    c6ec:	e2833030 	add	r3, r3, #48, 0	; 0x30
    c6f0:	e5cd3000 	strb	r3, [sp]
    c6f4:	e59f2110 	ldr	r2, [pc, #272]	; c80c <write_last_trade+0x180>
    c6f8:	e0823492 	umull	r3, r2, r2, r4
    c6fc:	e1a022a2 	lsr	r2, r2, #5
    c700:	e59f3108 	ldr	r3, [pc, #264]	; c810 <write_last_trade+0x184>
    c704:	e081c293 	umull	ip, r1, r3, r2
    c708:	e1a011a1 	lsr	r1, r1, #3
    c70c:	e0811101 	add	r1, r1, r1, lsl #2
    c710:	e0422081 	sub	r2, r2, r1, lsl #1
    c714:	e2822030 	add	r2, r2, #48, 0	; 0x30
    c718:	e5cd2001 	strb	r2, [sp, #1]
    c71c:	e0821493 	umull	r1, r2, r3, r4
    c720:	e1a0c1a2 	lsr	ip, r2, #3
    c724:	e081ec93 	umull	lr, r1, r3, ip
    c728:	e1a011a1 	lsr	r1, r1, #3
    c72c:	e0811101 	add	r1, r1, r1, lsl #2
    c730:	e04c2081 	sub	r2, ip, r1, lsl #1
    c734:	e2822030 	add	r2, r2, #48, 0	; 0x30
    c738:	e5cd2002 	strb	r2, [sp, #2]
    c73c:	e08cc10c 	add	ip, ip, ip, lsl #2
    c740:	e044408c 	sub	r4, r4, ip, lsl #1
    c744:	e2844030 	add	r4, r4, #48, 0	; 0x30
    c748:	e5cd4003 	strb	r4, [sp, #3]
    c74c:	e0821893 	umull	r1, r2, r3, r8
    c750:	e1a021a2 	lsr	r2, r2, #3
    c754:	e2821030 	add	r1, r2, #48, 0	; 0x30
    c758:	e5cd1004 	strb	r1, [sp, #4]
    c75c:	e0822102 	add	r2, r2, r2, lsl #2
    c760:	e0482082 	sub	r2, r8, r2, lsl #1
    c764:	e2822030 	add	r2, r2, #48, 0	; 0x30
    c768:	e5cd2005 	strb	r2, [sp, #5]
    c76c:	e0821793 	umull	r1, r2, r3, r7
    c770:	e1a021a2 	lsr	r2, r2, #3
    c774:	e2821030 	add	r1, r2, #48, 0	; 0x30
    c778:	e5cd1006 	strb	r1, [sp, #6]
    c77c:	e0822102 	add	r2, r2, r2, lsl #2
    c780:	e0472082 	sub	r2, r7, r2, lsl #1
    c784:	e2822030 	add	r2, r2, #48, 0	; 0x30
    c788:	e5cd2007 	strb	r2, [sp, #7]
    c78c:	e0821693 	umull	r1, r2, r3, r6
    c790:	e1a021a2 	lsr	r2, r2, #3
    c794:	e2821030 	add	r1, r2, #48, 0	; 0x30
    c798:	e5cd1008 	strb	r1, [sp, #8]
    c79c:	e0822102 	add	r2, r2, r2, lsl #2
    c7a0:	e0462082 	sub	r2, r6, r2, lsl #1
    c7a4:	e2822030 	add	r2, r2, #48, 0	; 0x30
    c7a8:	e5cd2009 	strb	r2, [sp, #9]
    c7ac:	e0821593 	umull	r1, r2, r3, r5
    c7b0:	e1a021a2 	lsr	r2, r2, #3
    c7b4:	e2821030 	add	r1, r2, #48, 0	; 0x30
    c7b8:	e5cd100a 	strb	r1, [sp, #10]
    c7bc:	e0822102 	add	r2, r2, r2, lsl #2
    c7c0:	e0452082 	sub	r2, r5, r2, lsl #1
    c7c4:	e2822030 	add	r2, r2, #48, 0	; 0x30
    c7c8:	e5cd200b 	strb	r2, [sp, #11]
    c7cc:	e0832093 	umull	r2, r3, r3, r0
    c7d0:	e1a031a3 	lsr	r3, r3, #3
    c7d4:	e2832030 	add	r2, r3, #48, 0	; 0x30
    c7d8:	e5cd200c 	strb	r2, [sp, #12]
    c7dc:	e0833103 	add	r3, r3, r3, lsl #2
    c7e0:	e0403083 	sub	r3, r0, r3, lsl #1
    c7e4:	e2833030 	add	r3, r3, #48, 0	; 0x30
    c7e8:	e5cd300d 	strb	r3, [sp, #13]
    c7ec:	e3a03000 	mov	r3, #0, 0
    c7f0:	e5cd300e 	strb	r3, [sp, #14]
    c7f4:	e1a0100d 	mov	r1, sp
    c7f8:	e59f0014 	ldr	r0, [pc, #20]	; c814 <write_last_trade+0x188>
    c7fc:	ebffff01 	bl	c408 <write_field_data>
    c800:	e28dd014 	add	sp, sp, #20, 0
    c804:	e8bd83f0 	pop	{r4, r5, r6, r7, r8, r9, pc}
    c808:	10624dd3 	.word	0x10624dd3
    c80c:	51eb851f 	.word	0x51eb851f
    c810:	cccccccd 	.word	0xcccccccd
    c814:	0019b8f8 	.word	0x0019b8f8

0000c818 <write_level>:
    c818:	e92d4010 	push	{r4, lr}
    c81c:	ebfffc7e 	bl	ba1c <simple_itoa>
    c820:	e1a01000 	mov	r1, r0
    c824:	e59f0004 	ldr	r0, [pc, #4]	; c830 <write_level+0x18>
    c828:	ebfffef6 	bl	c408 <write_field_data>
    c82c:	e8bd8010 	pop	{r4, pc}
    c830:	0001349c 	.word	0x0001349c

0000c834 <write_win_streak>:
    c834:	e92d4010 	push	{r4, lr}
    c838:	ebfffc77 	bl	ba1c <simple_itoa>
    c83c:	e1a01000 	mov	r1, r0
    c840:	e59f0004 	ldr	r0, [pc, #4]	; c84c <write_win_streak+0x18>
    c844:	ebfffeef 	bl	c408 <write_field_data>
    c848:	e8bd8010 	pop	{r4, pc}
    c84c:	00013474 	.word	0x00013474

0000c850 <write_loss_streak>:
    c850:	e92d4010 	push	{r4, lr}
    c854:	ebfffc70 	bl	ba1c <simple_itoa>
    c858:	e1a01000 	mov	r1, r0
    c85c:	e59f0004 	ldr	r0, [pc, #4]	; c868 <write_loss_streak+0x18>
    c860:	ebfffee8 	bl	c408 <write_field_data>
    c864:	e8bd8010 	pop	{r4, pc}
    c868:	00013468 	.word	0x00013468

0000c86c <pi_sd_trace>:
    c86c:	e59f3004 	ldr	r3, [pc, #4]	; c878 <pi_sd_trace+0xc>
    c870:	e5830000 	str	r0, [r3]
    c874:	e12fff1e 	bx	lr
    c878:	0019eed0 	.word	0x0019eed0

0000c87c <pi_sd_init>:
    c87c:	e92d4010 	push	{r4, lr}
    c880:	eb000dc6 	bl	ffa0 <emmc_init>
    c884:	e3500000 	cmp	r0, #0, 0
    c888:	0a000003 	beq	c89c <pi_sd_init+0x20>
    c88c:	e3a00001 	mov	r0, #1, 0
    c890:	e59f301c 	ldr	r3, [pc, #28]	; c8b4 <pi_sd_init+0x38>
    c894:	e5830004 	str	r0, [r3, #4]
    c898:	e8bd8010 	pop	{r4, pc}
    c89c:	e3a0301d 	mov	r3, #29, 0
    c8a0:	e59f2010 	ldr	r2, [pc, #16]	; c8b8 <pi_sd_init+0x3c>
    c8a4:	e59f1010 	ldr	r1, [pc, #16]	; c8bc <pi_sd_init+0x40>
    c8a8:	e59f0010 	ldr	r0, [pc, #16]	; c8c0 <pi_sd_init+0x44>
    c8ac:	eb0017d9 	bl	12818 <printk>
    c8b0:	eb00191d 	bl	12d2c <clean_reboot>
    c8b4:	0019eed0 	.word	0x0019eed0
    c8b8:	0019bbe0 	.word	0x0019bbe0
    c8bc:	0019ba00 	.word	0x0019ba00
    c8c0:	0019ba2c 	.word	0x0019ba2c

0000c8c4 <pi_sd_read>:
    c8c4:	e92d4070 	push	{r4, r5, r6, lr}
    c8c8:	e24dd008 	sub	sp, sp, #8, 0
    c8cc:	e59f3110 	ldr	r3, [pc, #272]	; c9e4 <pi_sd_read+0x120>
    c8d0:	e5933004 	ldr	r3, [r3, #4]
    c8d4:	e3530000 	cmp	r3, #0, 0
    c8d8:	0a00000f 	beq	c91c <pi_sd_read+0x58>
    c8dc:	e1a06000 	mov	r6, r0
    c8e0:	e1a05001 	mov	r5, r1
    c8e4:	e1a04482 	lsl	r4, r2, #9
    c8e8:	e1a02004 	mov	r2, r4
    c8ec:	e1a01000 	mov	r1, r0
    c8f0:	e1a00005 	mov	r0, r5
    c8f4:	eb000d63 	bl	fe88 <emmc_read>
    c8f8:	e1500004 	cmp	r0, r4
    c8fc:	1a00000e 	bne	c93c <pi_sd_read+0x78>
    c900:	e59f30dc 	ldr	r3, [pc, #220]	; c9e4 <pi_sd_read+0x120>
    c904:	e5933000 	ldr	r3, [r3]
    c908:	e3530000 	cmp	r3, #0, 0
    c90c:	1a000011 	bne	c958 <pi_sd_read+0x94>
    c910:	e3a00001 	mov	r0, #1, 0
    c914:	e28dd008 	add	sp, sp, #8, 0
    c918:	e8bd8070 	pop	{r4, r5, r6, pc}
    c91c:	e59f30c4 	ldr	r3, [pc, #196]	; c9e8 <pi_sd_read+0x124>
    c920:	e58d3000 	str	r3, [sp]
    c924:	e3a03023 	mov	r3, #35, 0	; 0x23
    c928:	e59f20bc 	ldr	r2, [pc, #188]	; c9ec <pi_sd_read+0x128>
    c92c:	e59f10bc 	ldr	r1, [pc, #188]	; c9f0 <pi_sd_read+0x12c>
    c930:	e59f00bc 	ldr	r0, [pc, #188]	; c9f4 <pi_sd_read+0x130>
    c934:	eb0017b7 	bl	12818 <printk>
    c938:	eb0018fb 	bl	12d2c <clean_reboot>
    c93c:	e58d0000 	str	r0, [sp]
    c940:	e3a03026 	mov	r3, #38, 0	; 0x26
    c944:	e59f20a0 	ldr	r2, [pc, #160]	; c9ec <pi_sd_read+0x128>
    c948:	e59f10a0 	ldr	r1, [pc, #160]	; c9f0 <pi_sd_read+0x12c>
    c94c:	e59f00a4 	ldr	r0, [pc, #164]	; c9f8 <pi_sd_read+0x134>
    c950:	eb0017b0 	bl	12818 <printk>
    c954:	eb0018f4 	bl	12d2c <clean_reboot>
    c958:	e16f3f16 	clz	r3, r6
    c95c:	e1a032a3 	lsr	r3, r3, #5
    c960:	e3540000 	cmp	r4, #0, 0
    c964:	03a03001 	moveq	r3, #1, 0
    c968:	e3530000 	cmp	r3, #0, 0
    c96c:	1a00001a 	bne	c9dc <pi_sd_read+0x118>
    c970:	e1a03124 	lsr	r3, r4, #2
    c974:	e3530000 	cmp	r3, #0, 0
    c978:	0a00000c 	beq	c9b0 <pi_sd_read+0xec>
    c97c:	e5d61001 	ldrb	r1, [r6, #1]
    c980:	e5d62000 	ldrb	r2, [r6]
    c984:	e1822401 	orr	r2, r2, r1, lsl #8
    c988:	e0822004 	add	r2, r2, r4
    c98c:	e5d61003 	ldrb	r1, [r6, #3]
    c990:	e5d64002 	ldrb	r4, [r6, #2]
    c994:	e1844401 	orr	r4, r4, r1, lsl #8
    c998:	e0224584 	eor	r4, r2, r4, lsl #11
    c99c:	e0244802 	eor	r4, r4, r2, lsl #16
    c9a0:	e2866004 	add	r6, r6, #4, 0
    c9a4:	e08445a4 	add	r4, r4, r4, lsr #11
    c9a8:	e2433001 	sub	r3, r3, #1, 0
    c9ac:	eafffff0 	b	c974 <pi_sd_read+0xb0>
    c9b0:	e0243184 	eor	r3, r4, r4, lsl #3
    c9b4:	e08332a3 	add	r3, r3, r3, lsr #5
    c9b8:	e0233203 	eor	r3, r3, r3, lsl #4
    c9bc:	e08338a3 	add	r3, r3, r3, lsr #17
    c9c0:	e0233c83 	eor	r3, r3, r3, lsl #25
    c9c4:	e0833323 	add	r3, r3, r3, lsr #6
    c9c8:	e1a02005 	mov	r2, r5
    c9cc:	e59f1018 	ldr	r1, [pc, #24]	; c9ec <pi_sd_read+0x128>
    c9d0:	e59f0024 	ldr	r0, [pc, #36]	; c9fc <pi_sd_read+0x138>
    c9d4:	eb00178f 	bl	12818 <printk>
    c9d8:	eaffffcc 	b	c910 <pi_sd_read+0x4c>
    c9dc:	e3a03000 	mov	r3, #0, 0
    c9e0:	eafffff8 	b	c9c8 <pi_sd_read+0x104>
    c9e4:	0019eed0 	.word	0x0019eed0
    c9e8:	0019ba94 	.word	0x0019ba94
    c9ec:	0019bbec 	.word	0x0019bbec
    c9f0:	0019ba00 	.word	0x0019ba00
    c9f4:	0019ba4c 	.word	0x0019ba4c
    c9f8:	0019ba9c 	.word	0x0019ba9c
    c9fc:	0019bad8 	.word	0x0019bad8

0000ca00 <pi_sec_read>:
    ca00:	e92d4070 	push	{r4, r5, r6, lr}
    ca04:	e24dd008 	sub	sp, sp, #8, 0
    ca08:	e59f3074 	ldr	r3, [pc, #116]	; ca84 <pi_sec_read+0x84>
    ca0c:	e5933004 	ldr	r3, [r3, #4]
    ca10:	e3530000 	cmp	r3, #0, 0
    ca14:	0a00000c 	beq	ca4c <pi_sec_read+0x4c>
    ca18:	e1a05000 	mov	r5, r0
    ca1c:	e1a04001 	mov	r4, r1
    ca20:	e1a00481 	lsl	r0, r1, #9
    ca24:	eb00146d 	bl	11be0 <kmalloc>
    ca28:	e1a06000 	mov	r6, r0
    ca2c:	e1a02004 	mov	r2, r4
    ca30:	e1a01005 	mov	r1, r5
    ca34:	ebffffa2 	bl	c8c4 <pi_sd_read>
    ca38:	e3500000 	cmp	r0, #0, 0
    ca3c:	0a00000a 	beq	ca6c <pi_sec_read+0x6c>
    ca40:	e1a00006 	mov	r0, r6
    ca44:	e28dd008 	add	sp, sp, #8, 0
    ca48:	e8bd8070 	pop	{r4, r5, r6, pc}
    ca4c:	e59f3034 	ldr	r3, [pc, #52]	; ca88 <pi_sec_read+0x88>
    ca50:	e58d3000 	str	r3, [sp]
    ca54:	e3a03030 	mov	r3, #48, 0	; 0x30
    ca58:	e59f202c 	ldr	r2, [pc, #44]	; ca8c <pi_sec_read+0x8c>
    ca5c:	e59f102c 	ldr	r1, [pc, #44]	; ca90 <pi_sec_read+0x90>
    ca60:	e59f002c 	ldr	r0, [pc, #44]	; ca94 <pi_sec_read+0x94>
    ca64:	eb00176b 	bl	12818 <printk>
    ca68:	eb0018af 	bl	12d2c <clean_reboot>
    ca6c:	e3a03034 	mov	r3, #52, 0	; 0x34
    ca70:	e59f2014 	ldr	r2, [pc, #20]	; ca8c <pi_sec_read+0x8c>
    ca74:	e59f1014 	ldr	r1, [pc, #20]	; ca90 <pi_sec_read+0x90>
    ca78:	e59f0018 	ldr	r0, [pc, #24]	; ca98 <pi_sec_read+0x98>
    ca7c:	eb001765 	bl	12818 <printk>
    ca80:	eb0018a9 	bl	12d2c <clean_reboot>
    ca84:	0019eed0 	.word	0x0019eed0
    ca88:	0019ba94 	.word	0x0019ba94
    ca8c:	0019bbf8 	.word	0x0019bbf8
    ca90:	0019ba00 	.word	0x0019ba00
    ca94:	0019ba4c 	.word	0x0019ba4c
    ca98:	0019bb00 	.word	0x0019bb00

0000ca9c <pi_sd_write>:
    ca9c:	e92d4070 	push	{r4, r5, r6, lr}
    caa0:	e24dd008 	sub	sp, sp, #8, 0
    caa4:	e59f30a8 	ldr	r3, [pc, #168]	; cb54 <pi_sd_write+0xb8>
    caa8:	e5933004 	ldr	r3, [r3, #4]
    caac:	e3530000 	cmp	r3, #0, 0
    cab0:	0a00000f 	beq	caf4 <pi_sd_write+0x58>
    cab4:	e1a06000 	mov	r6, r0
    cab8:	e1a05001 	mov	r5, r1
    cabc:	e1a04482 	lsl	r4, r2, #9
    cac0:	e1a02004 	mov	r2, r4
    cac4:	e1a01000 	mov	r1, r0
    cac8:	e1a00005 	mov	r0, r5
    cacc:	eb000d11 	bl	ff18 <emmc_write>
    cad0:	e1500004 	cmp	r0, r4
    cad4:	1a00000e 	bne	cb14 <pi_sd_write+0x78>
    cad8:	e59f3074 	ldr	r3, [pc, #116]	; cb54 <pi_sd_write+0xb8>
    cadc:	e5933000 	ldr	r3, [r3]
    cae0:	e3530000 	cmp	r3, #0, 0
    cae4:	1a000011 	bne	cb30 <pi_sd_write+0x94>
    cae8:	e3a00001 	mov	r0, #1, 0
    caec:	e28dd008 	add	sp, sp, #8, 0
    caf0:	e8bd8070 	pop	{r4, r5, r6, pc}
    caf4:	e59f305c 	ldr	r3, [pc, #92]	; cb58 <pi_sd_write+0xbc>
    caf8:	e58d3000 	str	r3, [sp]
    cafc:	e3a0303b 	mov	r3, #59, 0	; 0x3b
    cb00:	e59f2054 	ldr	r2, [pc, #84]	; cb5c <pi_sd_write+0xc0>
    cb04:	e59f1054 	ldr	r1, [pc, #84]	; cb60 <pi_sd_write+0xc4>
    cb08:	e59f0054 	ldr	r0, [pc, #84]	; cb64 <pi_sd_write+0xc8>
    cb0c:	eb001741 	bl	12818 <printk>
    cb10:	eb001885 	bl	12d2c <clean_reboot>
    cb14:	e58d0000 	str	r0, [sp]
    cb18:	e3a0303e 	mov	r3, #62, 0	; 0x3e
    cb1c:	e59f2038 	ldr	r2, [pc, #56]	; cb5c <pi_sd_write+0xc0>
    cb20:	e59f1038 	ldr	r1, [pc, #56]	; cb60 <pi_sd_write+0xc4>
    cb24:	e59f003c 	ldr	r0, [pc, #60]	; cb68 <pi_sd_write+0xcc>
    cb28:	eb00173a 	bl	12818 <printk>
    cb2c:	eb00187e 	bl	12d2c <clean_reboot>
    cb30:	e1a01004 	mov	r1, r4
    cb34:	e1a00006 	mov	r0, r6
    cb38:	eb001732 	bl	12808 <our_crc32>
    cb3c:	e1a03000 	mov	r3, r0
    cb40:	e1a02005 	mov	r2, r5
    cb44:	e59f1010 	ldr	r1, [pc, #16]	; cb5c <pi_sd_write+0xc0>
    cb48:	e59f001c 	ldr	r0, [pc, #28]	; cb6c <pi_sd_write+0xd0>
    cb4c:	eb001731 	bl	12818 <printk>
    cb50:	eaffffe4 	b	cae8 <pi_sd_write+0x4c>
    cb54:	0019eed0 	.word	0x0019eed0
    cb58:	0019ba94 	.word	0x0019ba94
    cb5c:	0019bc04 	.word	0x0019bc04
    cb60:	0019ba00 	.word	0x0019ba00
    cb64:	0019ba4c 	.word	0x0019ba4c
    cb68:	0019bb30 	.word	0x0019bb30
    cb6c:	0019bb6c 	.word	0x0019bb6c

0000cb70 <pi_sec_write>:
    cb70:	e52de004 	push	{lr}		; (str lr, [sp, #-4]!)
    cb74:	e24dd00c 	sub	sp, sp, #12, 0
    cb78:	e1a03000 	mov	r3, r0
    cb7c:	e1a00001 	mov	r0, r1
    cb80:	e59f1060 	ldr	r1, [pc, #96]	; cbe8 <pi_sec_write+0x78>
    cb84:	e5911004 	ldr	r1, [r1, #4]
    cb88:	e3510000 	cmp	r1, #0, 0
    cb8c:	0a000005 	beq	cba8 <pi_sec_write+0x38>
    cb90:	e1a01003 	mov	r1, r3
    cb94:	ebffffc0 	bl	ca9c <pi_sd_write>
    cb98:	e3500001 	cmp	r0, #1, 0
    cb9c:	1a000009 	bne	cbc8 <pi_sec_write+0x58>
    cba0:	e28dd00c 	add	sp, sp, #12, 0
    cba4:	e49df004 	pop	{pc}		; (ldr pc, [sp], #4)
    cba8:	e59f303c 	ldr	r3, [pc, #60]	; cbec <pi_sec_write+0x7c>
    cbac:	e58d3000 	str	r3, [sp]
    cbb0:	e3a03046 	mov	r3, #70, 0	; 0x46
    cbb4:	e59f2034 	ldr	r2, [pc, #52]	; cbf0 <pi_sec_write+0x80>
    cbb8:	e59f1034 	ldr	r1, [pc, #52]	; cbf4 <pi_sec_write+0x84>
    cbbc:	e59f0034 	ldr	r0, [pc, #52]	; cbf8 <pi_sec_write+0x88>
    cbc0:	eb001714 	bl	12818 <printk>
    cbc4:	eb001858 	bl	12d2c <clean_reboot>
    cbc8:	e59f302c 	ldr	r3, [pc, #44]	; cbfc <pi_sec_write+0x8c>
    cbcc:	e58d3000 	str	r3, [sp]
    cbd0:	e3a03048 	mov	r3, #72, 0	; 0x48
    cbd4:	e59f2014 	ldr	r2, [pc, #20]	; cbf0 <pi_sec_write+0x80>
    cbd8:	e59f1014 	ldr	r1, [pc, #20]	; cbf4 <pi_sec_write+0x84>
    cbdc:	e59f001c 	ldr	r0, [pc, #28]	; cc00 <pi_sec_write+0x90>
    cbe0:	eb00170c 	bl	12818 <printk>
    cbe4:	eb001850 	bl	12d2c <clean_reboot>
    cbe8:	0019eed0 	.word	0x0019eed0
    cbec:	0019ba94 	.word	0x0019ba94
    cbf0:	0019bc10 	.word	0x0019bc10
    cbf4:	0019ba00 	.word	0x0019ba00
    cbf8:	0019ba4c 	.word	0x0019ba4c
    cbfc:	0019bbd4 	.word	0x0019bbd4
    cc00:	0019bb94 	.word	0x0019bb94

0000cc04 <mbr_get_partition>:
    cc04:	e92d4010 	push	{r4, lr}
    cc08:	e24dd018 	sub	sp, sp, #24, 0
    cc0c:	e3520003 	cmp	r2, #3, 0
    cc10:	8a00000e 	bhi	cc50 <mbr_get_partition+0x4c>
    cc14:	e1a04000 	mov	r4, r0
    cc18:	e1a03002 	mov	r3, r2
    cc1c:	e2811f6f 	add	r1, r1, #444	; 0x1bc
    cc20:	e2811002 	add	r1, r1, #2, 0
    cc24:	e3a02010 	mov	r2, #16, 0
    cc28:	e0811203 	add	r1, r1, r3, lsl #4
    cc2c:	e28d0008 	add	r0, sp, #8, 0
    cc30:	eb001686 	bl	12650 <memcpy>
    cc34:	e3a02010 	mov	r2, #16, 0
    cc38:	e28d1008 	add	r1, sp, #8, 0
    cc3c:	e1a00004 	mov	r0, r4
    cc40:	eb001682 	bl	12650 <memcpy>
    cc44:	e1a00004 	mov	r0, r4
    cc48:	e28dd018 	add	sp, sp, #24, 0
    cc4c:	e8bd8010 	pop	{r4, pc}
    cc50:	e59f3018 	ldr	r3, [pc, #24]	; cc70 <mbr_get_partition+0x6c>
    cc54:	e58d3000 	str	r3, [sp]
    cc58:	e3a0301c 	mov	r3, #28, 0
    cc5c:	e59f2010 	ldr	r2, [pc, #16]	; cc74 <mbr_get_partition+0x70>
    cc60:	e59f1010 	ldr	r1, [pc, #16]	; cc78 <mbr_get_partition+0x74>
    cc64:	e59f0010 	ldr	r0, [pc, #16]	; cc7c <mbr_get_partition+0x78>
    cc68:	eb0016ea 	bl	12818 <printk>
    cc6c:	eb00182e 	bl	12d2c <clean_reboot>
    cc70:	0019bc50 	.word	0x0019bc50
    cc74:	0019c074 	.word	0x0019c074
    cc78:	0019bc20 	.word	0x0019bc20
    cc7c:	0019b6f4 	.word	0x0019b6f4

0000cc80 <mbr_part_str>:
    cc80:	e35000fc 	cmp	r0, #252, 0	; 0xfc
    cc84:	979ff100 	ldrls	pc, [pc, r0, lsl #2]
    cc88:	ea000140 	b	d190 <mbr_part_str+0x510>
    cc8c:	0000d1b4 	.word	0x0000d1b4
    cc90:	0000d1bc 	.word	0x0000d1bc
    cc94:	0000d190 	.word	0x0000d190
    cc98:	0000d190 	.word	0x0000d190
    cc9c:	0000d080 	.word	0x0000d080
    cca0:	0000d088 	.word	0x0000d088
    cca4:	0000d090 	.word	0x0000d090
    cca8:	0000d098 	.word	0x0000d098
    ccac:	0000d190 	.word	0x0000d190
    ccb0:	0000d190 	.word	0x0000d190
    ccb4:	0000d190 	.word	0x0000d190
    ccb8:	0000d0a0 	.word	0x0000d0a0
    ccbc:	0000d0a8 	.word	0x0000d0a8
    ccc0:	0000d190 	.word	0x0000d190
    ccc4:	0000d0b0 	.word	0x0000d0b0
    ccc8:	0000d0b8 	.word	0x0000d0b8
    cccc:	0000d190 	.word	0x0000d190
    ccd0:	0000d0c0 	.word	0x0000d0c0
    ccd4:	0000d190 	.word	0x0000d190
    ccd8:	0000d190 	.word	0x0000d190
    ccdc:	0000d0c8 	.word	0x0000d0c8
    cce0:	0000d190 	.word	0x0000d190
    cce4:	0000d0d0 	.word	0x0000d0d0
    cce8:	0000d190 	.word	0x0000d190
    ccec:	0000d190 	.word	0x0000d190
    ccf0:	0000d190 	.word	0x0000d190
    ccf4:	0000d190 	.word	0x0000d190
    ccf8:	0000d0d8 	.word	0x0000d0d8
    ccfc:	0000d0e0 	.word	0x0000d0e0
    cd00:	0000d190 	.word	0x0000d190
    cd04:	0000d0e8 	.word	0x0000d0e8
    cd08:	0000d190 	.word	0x0000d190
    cd0c:	0000d190 	.word	0x0000d190
    cd10:	0000d190 	.word	0x0000d190
    cd14:	0000d190 	.word	0x0000d190
    cd18:	0000d190 	.word	0x0000d190
    cd1c:	0000d190 	.word	0x0000d190
    cd20:	0000d190 	.word	0x0000d190
    cd24:	0000d190 	.word	0x0000d190
    cd28:	0000d190 	.word	0x0000d190
    cd2c:	0000d190 	.word	0x0000d190
    cd30:	0000d190 	.word	0x0000d190
    cd34:	0000d190 	.word	0x0000d190
    cd38:	0000d190 	.word	0x0000d190
    cd3c:	0000d190 	.word	0x0000d190
    cd40:	0000d190 	.word	0x0000d190
    cd44:	0000d190 	.word	0x0000d190
    cd48:	0000d190 	.word	0x0000d190
    cd4c:	0000d190 	.word	0x0000d190
    cd50:	0000d190 	.word	0x0000d190
    cd54:	0000d190 	.word	0x0000d190
    cd58:	0000d190 	.word	0x0000d190
    cd5c:	0000d190 	.word	0x0000d190
    cd60:	0000d190 	.word	0x0000d190
    cd64:	0000d190 	.word	0x0000d190
    cd68:	0000d190 	.word	0x0000d190
    cd6c:	0000d190 	.word	0x0000d190
    cd70:	0000d190 	.word	0x0000d190
    cd74:	0000d190 	.word	0x0000d190
    cd78:	0000d190 	.word	0x0000d190
    cd7c:	0000d190 	.word	0x0000d190
    cd80:	0000d190 	.word	0x0000d190
    cd84:	0000d190 	.word	0x0000d190
    cd88:	0000d190 	.word	0x0000d190
    cd8c:	0000d190 	.word	0x0000d190
    cd90:	0000d190 	.word	0x0000d190
    cd94:	0000d0f0 	.word	0x0000d0f0
    cd98:	0000d190 	.word	0x0000d190
    cd9c:	0000d190 	.word	0x0000d190
    cda0:	0000d190 	.word	0x0000d190
    cda4:	0000d190 	.word	0x0000d190
    cda8:	0000d190 	.word	0x0000d190
    cdac:	0000d190 	.word	0x0000d190
    cdb0:	0000d190 	.word	0x0000d190
    cdb4:	0000d190 	.word	0x0000d190
    cdb8:	0000d190 	.word	0x0000d190
    cdbc:	0000d190 	.word	0x0000d190
    cdc0:	0000d190 	.word	0x0000d190
    cdc4:	0000d190 	.word	0x0000d190
    cdc8:	0000d190 	.word	0x0000d190
    cdcc:	0000d190 	.word	0x0000d190
    cdd0:	0000d190 	.word	0x0000d190
    cdd4:	0000d190 	.word	0x0000d190
    cdd8:	0000d190 	.word	0x0000d190
    cddc:	0000d190 	.word	0x0000d190
    cde0:	0000d190 	.word	0x0000d190
    cde4:	0000d190 	.word	0x0000d190
    cde8:	0000d190 	.word	0x0000d190
    cdec:	0000d190 	.word	0x0000d190
    cdf0:	0000d190 	.word	0x0000d190
    cdf4:	0000d190 	.word	0x0000d190
    cdf8:	0000d190 	.word	0x0000d190
    cdfc:	0000d190 	.word	0x0000d190
    ce00:	0000d190 	.word	0x0000d190
    ce04:	0000d190 	.word	0x0000d190
    ce08:	0000d190 	.word	0x0000d190
    ce0c:	0000d190 	.word	0x0000d190
    ce10:	0000d190 	.word	0x0000d190
    ce14:	0000d190 	.word	0x0000d190
    ce18:	0000d190 	.word	0x0000d190
    ce1c:	0000d190 	.word	0x0000d190
    ce20:	0000d190 	.word	0x0000d190
    ce24:	0000d190 	.word	0x0000d190
    ce28:	0000d190 	.word	0x0000d190
    ce2c:	0000d190 	.word	0x0000d190
    ce30:	0000d190 	.word	0x0000d190
    ce34:	0000d190 	.word	0x0000d190
    ce38:	0000d190 	.word	0x0000d190
    ce3c:	0000d190 	.word	0x0000d190
    ce40:	0000d190 	.word	0x0000d190
    ce44:	0000d190 	.word	0x0000d190
    ce48:	0000d190 	.word	0x0000d190
    ce4c:	0000d190 	.word	0x0000d190
    ce50:	0000d190 	.word	0x0000d190
    ce54:	0000d190 	.word	0x0000d190
    ce58:	0000d190 	.word	0x0000d190
    ce5c:	0000d190 	.word	0x0000d190
    ce60:	0000d190 	.word	0x0000d190
    ce64:	0000d190 	.word	0x0000d190
    ce68:	0000d190 	.word	0x0000d190
    ce6c:	0000d190 	.word	0x0000d190
    ce70:	0000d190 	.word	0x0000d190
    ce74:	0000d190 	.word	0x0000d190
    ce78:	0000d190 	.word	0x0000d190
    ce7c:	0000d190 	.word	0x0000d190
    ce80:	0000d190 	.word	0x0000d190
    ce84:	0000d190 	.word	0x0000d190
    ce88:	0000d190 	.word	0x0000d190
    ce8c:	0000d190 	.word	0x0000d190
    ce90:	0000d190 	.word	0x0000d190
    ce94:	0000d0f8 	.word	0x0000d0f8
    ce98:	0000d100 	.word	0x0000d100
    ce9c:	0000d108 	.word	0x0000d108
    cea0:	0000d110 	.word	0x0000d110
    cea4:	0000d118 	.word	0x0000d118
    cea8:	0000d120 	.word	0x0000d120
    ceac:	0000d190 	.word	0x0000d190
    ceb0:	0000d190 	.word	0x0000d190
    ceb4:	0000d190 	.word	0x0000d190
    ceb8:	0000d190 	.word	0x0000d190
    cebc:	0000d190 	.word	0x0000d190
    cec0:	0000d190 	.word	0x0000d190
    cec4:	0000d190 	.word	0x0000d190
    cec8:	0000d190 	.word	0x0000d190
    cecc:	0000d190 	.word	0x0000d190
    ced0:	0000d190 	.word	0x0000d190
    ced4:	0000d190 	.word	0x0000d190
    ced8:	0000d190 	.word	0x0000d190
    cedc:	0000d190 	.word	0x0000d190
    cee0:	0000d190 	.word	0x0000d190
    cee4:	0000d190 	.word	0x0000d190
    cee8:	0000d190 	.word	0x0000d190
    ceec:	0000d190 	.word	0x0000d190
    cef0:	0000d190 	.word	0x0000d190
    cef4:	0000d190 	.word	0x0000d190
    cef8:	0000d190 	.word	0x0000d190
    cefc:	0000d190 	.word	0x0000d190
    cf00:	0000d190 	.word	0x0000d190
    cf04:	0000d190 	.word	0x0000d190
    cf08:	0000d190 	.word	0x0000d190
    cf0c:	0000d128 	.word	0x0000d128
    cf10:	0000d130 	.word	0x0000d130
    cf14:	0000d190 	.word	0x0000d190
    cf18:	0000d190 	.word	0x0000d190
    cf1c:	0000d190 	.word	0x0000d190
    cf20:	0000d138 	.word	0x0000d138
    cf24:	0000d140 	.word	0x0000d140
    cf28:	0000d190 	.word	0x0000d190
    cf2c:	0000d148 	.word	0x0000d148
    cf30:	0000d150 	.word	0x0000d150
    cf34:	0000d190 	.word	0x0000d190
    cf38:	0000d158 	.word	0x0000d158
    cf3c:	0000d190 	.word	0x0000d190
    cf40:	0000d190 	.word	0x0000d190
    cf44:	0000d190 	.word	0x0000d190
    cf48:	0000d190 	.word	0x0000d190
    cf4c:	0000d190 	.word	0x0000d190
    cf50:	0000d190 	.word	0x0000d190
    cf54:	0000d190 	.word	0x0000d190
    cf58:	0000d190 	.word	0x0000d190
    cf5c:	0000d190 	.word	0x0000d190
    cf60:	0000d190 	.word	0x0000d190
    cf64:	0000d190 	.word	0x0000d190
    cf68:	0000d160 	.word	0x0000d160
    cf6c:	0000d168 	.word	0x0000d168
    cf70:	0000d190 	.word	0x0000d190
    cf74:	0000d190 	.word	0x0000d190
    cf78:	0000d190 	.word	0x0000d190
    cf7c:	0000d190 	.word	0x0000d190
    cf80:	0000d190 	.word	0x0000d190
    cf84:	0000d190 	.word	0x0000d190
    cf88:	0000d190 	.word	0x0000d190
    cf8c:	0000d190 	.word	0x0000d190
    cf90:	0000d190 	.word	0x0000d190
    cf94:	0000d190 	.word	0x0000d190
    cf98:	0000d190 	.word	0x0000d190
    cf9c:	0000d190 	.word	0x0000d190
    cfa0:	0000d190 	.word	0x0000d190
    cfa4:	0000d190 	.word	0x0000d190
    cfa8:	0000d190 	.word	0x0000d190
    cfac:	0000d190 	.word	0x0000d190
    cfb0:	0000d190 	.word	0x0000d190
    cfb4:	0000d190 	.word	0x0000d190
    cfb8:	0000d190 	.word	0x0000d190
    cfbc:	0000d190 	.word	0x0000d190
    cfc0:	0000d190 	.word	0x0000d190
    cfc4:	0000d190 	.word	0x0000d190
    cfc8:	0000d190 	.word	0x0000d190
    cfcc:	0000d190 	.word	0x0000d190
    cfd0:	0000d190 	.word	0x0000d190
    cfd4:	0000d190 	.word	0x0000d190
    cfd8:	0000d190 	.word	0x0000d190
    cfdc:	0000d190 	.word	0x0000d190
    cfe0:	0000d190 	.word	0x0000d190
    cfe4:	0000d190 	.word	0x0000d190
    cfe8:	0000d190 	.word	0x0000d190
    cfec:	0000d190 	.word	0x0000d190
    cff0:	0000d190 	.word	0x0000d190
    cff4:	0000d190 	.word	0x0000d190
    cff8:	0000d190 	.word	0x0000d190
    cffc:	0000d190 	.word	0x0000d190
    d000:	0000d190 	.word	0x0000d190
    d004:	0000d190 	.word	0x0000d190
    d008:	0000d190 	.word	0x0000d190
    d00c:	0000d190 	.word	0x0000d190
    d010:	0000d190 	.word	0x0000d190
    d014:	0000d190 	.word	0x0000d190
    d018:	0000d190 	.word	0x0000d190
    d01c:	0000d190 	.word	0x0000d190
    d020:	0000d190 	.word	0x0000d190
    d024:	0000d190 	.word	0x0000d190
    d028:	0000d190 	.word	0x0000d190
    d02c:	0000d190 	.word	0x0000d190
    d030:	0000d190 	.word	0x0000d190
    d034:	0000d190 	.word	0x0000d190
    d038:	0000d190 	.word	0x0000d190
    d03c:	0000d190 	.word	0x0000d190
    d040:	0000d190 	.word	0x0000d190
    d044:	0000d170 	.word	0x0000d170
    d048:	0000d178 	.word	0x0000d178
    d04c:	0000d190 	.word	0x0000d190
    d050:	0000d190 	.word	0x0000d190
    d054:	0000d190 	.word	0x0000d190
    d058:	0000d190 	.word	0x0000d190
    d05c:	0000d190 	.word	0x0000d190
    d060:	0000d190 	.word	0x0000d190
    d064:	0000d190 	.word	0x0000d190
    d068:	0000d190 	.word	0x0000d190
    d06c:	0000d190 	.word	0x0000d190
    d070:	0000d190 	.word	0x0000d190
    d074:	0000d190 	.word	0x0000d190
    d078:	0000d180 	.word	0x0000d180
    d07c:	0000d188 	.word	0x0000d188
    d080:	e59f013c 	ldr	r0, [pc, #316]	; d1c4 <mbr_part_str+0x544>
    d084:	e12fff1e 	bx	lr
    d088:	e59f0138 	ldr	r0, [pc, #312]	; d1c8 <mbr_part_str+0x548>
    d08c:	e12fff1e 	bx	lr
    d090:	e59f0134 	ldr	r0, [pc, #308]	; d1cc <mbr_part_str+0x54c>
    d094:	e12fff1e 	bx	lr
    d098:	e59f0130 	ldr	r0, [pc, #304]	; d1d0 <mbr_part_str+0x550>
    d09c:	e12fff1e 	bx	lr
    d0a0:	e59f012c 	ldr	r0, [pc, #300]	; d1d4 <mbr_part_str+0x554>
    d0a4:	e12fff1e 	bx	lr
    d0a8:	e59f0128 	ldr	r0, [pc, #296]	; d1d8 <mbr_part_str+0x558>
    d0ac:	e12fff1e 	bx	lr
    d0b0:	e59f0124 	ldr	r0, [pc, #292]	; d1dc <mbr_part_str+0x55c>
    d0b4:	e12fff1e 	bx	lr
    d0b8:	e59f0120 	ldr	r0, [pc, #288]	; d1e0 <mbr_part_str+0x560>
    d0bc:	e12fff1e 	bx	lr
    d0c0:	e59f011c 	ldr	r0, [pc, #284]	; d1e4 <mbr_part_str+0x564>
    d0c4:	e12fff1e 	bx	lr
    d0c8:	e59f0118 	ldr	r0, [pc, #280]	; d1e8 <mbr_part_str+0x568>
    d0cc:	e12fff1e 	bx	lr
    d0d0:	e59f0114 	ldr	r0, [pc, #276]	; d1ec <mbr_part_str+0x56c>
    d0d4:	e12fff1e 	bx	lr
    d0d8:	e59f0110 	ldr	r0, [pc, #272]	; d1f0 <mbr_part_str+0x570>
    d0dc:	e12fff1e 	bx	lr
    d0e0:	e59f010c 	ldr	r0, [pc, #268]	; d1f4 <mbr_part_str+0x574>
    d0e4:	e12fff1e 	bx	lr
    d0e8:	e59f0108 	ldr	r0, [pc, #264]	; d1f8 <mbr_part_str+0x578>
    d0ec:	e12fff1e 	bx	lr
    d0f0:	e59f0104 	ldr	r0, [pc, #260]	; d1fc <mbr_part_str+0x57c>
    d0f4:	e12fff1e 	bx	lr
    d0f8:	e59f0100 	ldr	r0, [pc, #256]	; d200 <mbr_part_str+0x580>
    d0fc:	e12fff1e 	bx	lr
    d100:	e59f00fc 	ldr	r0, [pc, #252]	; d204 <mbr_part_str+0x584>
    d104:	e12fff1e 	bx	lr
    d108:	e59f00f8 	ldr	r0, [pc, #248]	; d208 <mbr_part_str+0x588>
    d10c:	e12fff1e 	bx	lr
    d110:	e59f00f4 	ldr	r0, [pc, #244]	; d20c <mbr_part_str+0x58c>
    d114:	e12fff1e 	bx	lr
    d118:	e59f00f0 	ldr	r0, [pc, #240]	; d210 <mbr_part_str+0x590>
    d11c:	e12fff1e 	bx	lr
    d120:	e59f00e8 	ldr	r0, [pc, #232]	; d210 <mbr_part_str+0x590>
    d124:	e12fff1e 	bx	lr
    d128:	e59f00d8 	ldr	r0, [pc, #216]	; d208 <mbr_part_str+0x588>
    d12c:	e12fff1e 	bx	lr
    d130:	e59f00d0 	ldr	r0, [pc, #208]	; d208 <mbr_part_str+0x588>
    d134:	e12fff1e 	bx	lr
    d138:	e59f00d4 	ldr	r0, [pc, #212]	; d214 <mbr_part_str+0x594>
    d13c:	e12fff1e 	bx	lr
    d140:	e59f00d0 	ldr	r0, [pc, #208]	; d218 <mbr_part_str+0x598>
    d144:	e12fff1e 	bx	lr
    d148:	e59f00cc 	ldr	r0, [pc, #204]	; d21c <mbr_part_str+0x59c>
    d14c:	e12fff1e 	bx	lr
    d150:	e59f00c8 	ldr	r0, [pc, #200]	; d220 <mbr_part_str+0x5a0>
    d154:	e12fff1e 	bx	lr
    d158:	e59f00c4 	ldr	r0, [pc, #196]	; d224 <mbr_part_str+0x5a4>
    d15c:	e12fff1e 	bx	lr
    d160:	e59f00c0 	ldr	r0, [pc, #192]	; d228 <mbr_part_str+0x5a8>
    d164:	e12fff1e 	bx	lr
    d168:	e59f00bc 	ldr	r0, [pc, #188]	; d22c <mbr_part_str+0x5ac>
    d16c:	e12fff1e 	bx	lr
    d170:	e59f00b8 	ldr	r0, [pc, #184]	; d230 <mbr_part_str+0x5b0>
    d174:	e12fff1e 	bx	lr
    d178:	e59f00b4 	ldr	r0, [pc, #180]	; d234 <mbr_part_str+0x5b4>
    d17c:	e12fff1e 	bx	lr
    d180:	e59f00b0 	ldr	r0, [pc, #176]	; d238 <mbr_part_str+0x5b8>
    d184:	e12fff1e 	bx	lr
    d188:	e59f00ac 	ldr	r0, [pc, #172]	; d23c <mbr_part_str+0x5bc>
    d18c:	e12fff1e 	bx	lr
    d190:	e52de004 	push	{lr}		; (str lr, [sp, #-4]!)
    d194:	e24dd00c 	sub	sp, sp, #12, 0
    d198:	e58d0000 	str	r0, [sp]
    d19c:	e3a0304d 	mov	r3, #77, 0	; 0x4d
    d1a0:	e59f2098 	ldr	r2, [pc, #152]	; d240 <mbr_part_str+0x5c0>
    d1a4:	e59f1098 	ldr	r1, [pc, #152]	; d244 <mbr_part_str+0x5c4>
    d1a8:	e59f0098 	ldr	r0, [pc, #152]	; d248 <mbr_part_str+0x5c8>
    d1ac:	eb001599 	bl	12818 <printk>
    d1b0:	eb0016dd 	bl	12d2c <clean_reboot>
    d1b4:	e59f0090 	ldr	r0, [pc, #144]	; d24c <mbr_part_str+0x5cc>
    d1b8:	e12fff1e 	bx	lr
    d1bc:	e59f008c 	ldr	r0, [pc, #140]	; d250 <mbr_part_str+0x5d0>
    d1c0:	e12fff1e 	bx	lr
    d1c4:	0019bc74 	.word	0x0019bc74
    d1c8:	0019bc8c 	.word	0x0019bc8c
    d1cc:	0019bca8 	.word	0x0019bca8
    d1d0:	0019bcc4 	.word	0x0019bcc4
    d1d4:	0019bccc 	.word	0x0019bccc
    d1d8:	0019bcd8 	.word	0x0019bcd8
    d1dc:	0019bce4 	.word	0x0019bce4
    d1e0:	0019bd00 	.word	0x0019bd00
    d1e4:	0019bd1c 	.word	0x0019bd1c
    d1e8:	0019bd30 	.word	0x0019bd30
    d1ec:	0019bd50 	.word	0x0019bd50
    d1f0:	0019bd70 	.word	0x0019bd70
    d1f4:	0019bd84 	.word	0x0019bd84
    d1f8:	0019bd98 	.word	0x0019bd98
    d1fc:	0019bdb8 	.word	0x0019bdb8
    d200:	0019bdd8 	.word	0x0019bdd8
    d204:	0019bdf4 	.word	0x0019bdf4
    d208:	0019bdfc 	.word	0x0019bdfc
    d20c:	0019be08 	.word	0x0019be08
    d210:	0019be18 	.word	0x0019be18
    d214:	0019be28 	.word	0x0019be28
    d218:	0019be30 	.word	0x0019be30
    d21c:	0019be38 	.word	0x0019be38
    d220:	0019be40 	.word	0x0019be40
    d224:	0019be48 	.word	0x0019be48
    d228:	0019be58 	.word	0x0019be58
    d22c:	0019be60 	.word	0x0019be60
    d230:	0019be6c 	.word	0x0019be6c
    d234:	0019be7c 	.word	0x0019be7c
    d238:	0019be94 	.word	0x0019be94
    d23c:	0019bc5c 	.word	0x0019bc5c
    d240:	0019c088 	.word	0x0019c088
    d244:	0019bc20 	.word	0x0019bc20
    d248:	0019beb0 	.word	0x0019beb0
    d24c:	0019bea8 	.word	0x0019bea8
    d250:	0019bc68 	.word	0x0019bc68

0000d254 <mbr_partition_empty>:
    d254:	e92d4010 	push	{r4, lr}
    d258:	e3a01010 	mov	r1, #16, 0
    d25c:	eb001526 	bl	126fc <memiszero>
    d260:	e8bd8010 	pop	{r4, pc}

0000d264 <mbr_partition_empty_raw>:
    d264:	e92d4010 	push	{r4, lr}
    d268:	e3a01010 	mov	r1, #16, 0
    d26c:	eb001522 	bl	126fc <memiszero>
    d270:	e8bd8010 	pop	{r4, pc}

0000d274 <mbr_check>:
    d274:	e92d4030 	push	{r4, r5, lr}
    d278:	e24dd01c 	sub	sp, sp, #28, 0
    d27c:	e2803f7f 	add	r3, r0, #508	; 0x1fc
    d280:	e1d320b2 	ldrh	r2, [r3, #2]
    d284:	e59f3144 	ldr	r3, [pc, #324]	; d3d0 <mbr_check+0x15c>
    d288:	e1520003 	cmp	r2, r3
    d28c:	1a00001f 	bne	d310 <mbr_check+0x9c>
    d290:	e1a04000 	mov	r4, r0
    d294:	e2805f6f 	add	r5, r0, #444	; 0x1bc
    d298:	e2855002 	add	r5, r5, #2, 0
    d29c:	e3a02010 	mov	r2, #16, 0
    d2a0:	e1a01005 	mov	r1, r5
    d2a4:	e28d0008 	add	r0, sp, #8, 0
    d2a8:	eb0014e8 	bl	12650 <memcpy>
    d2ac:	e5dd300c 	ldrb	r3, [sp, #12]
    d2b0:	e243300b 	sub	r3, r3, #11, 0
    d2b4:	e3530001 	cmp	r3, #1, 0
    d2b8:	8a00001c 	bhi	d330 <mbr_check+0xbc>
    d2bc:	e1a00005 	mov	r0, r5
    d2c0:	ebffffe7 	bl	d264 <mbr_partition_empty_raw>
    d2c4:	e3500000 	cmp	r0, #0, 0
    d2c8:	1a000020 	bne	d350 <mbr_check+0xdc>
    d2cc:	e2840f73 	add	r0, r4, #460	; 0x1cc
    d2d0:	e2800002 	add	r0, r0, #2, 0
    d2d4:	ebffffe2 	bl	d264 <mbr_partition_empty_raw>
    d2d8:	e3500000 	cmp	r0, #0, 0
    d2dc:	0a000023 	beq	d370 <mbr_check+0xfc>
    d2e0:	e2840f77 	add	r0, r4, #476	; 0x1dc
    d2e4:	e2800002 	add	r0, r0, #2, 0
    d2e8:	ebffffdd 	bl	d264 <mbr_partition_empty_raw>
    d2ec:	e3500000 	cmp	r0, #0, 0
    d2f0:	0a000026 	beq	d390 <mbr_check+0x11c>
    d2f4:	e2840f7b 	add	r0, r4, #492	; 0x1ec
    d2f8:	e2800002 	add	r0, r0, #2, 0
    d2fc:	ebffffd8 	bl	d264 <mbr_partition_empty_raw>
    d300:	e3500000 	cmp	r0, #0, 0
    d304:	0a000029 	beq	d3b0 <mbr_check+0x13c>
    d308:	e28dd01c 	add	sp, sp, #28, 0
    d30c:	e8bd8030 	pop	{r4, r5, pc}
    d310:	e59f30bc 	ldr	r3, [pc, #188]	; d3d4 <mbr_check+0x160>
    d314:	e58d3000 	str	r3, [sp]
    d318:	e3a03009 	mov	r3, #9, 0
    d31c:	e59f20b4 	ldr	r2, [pc, #180]	; d3d8 <mbr_check+0x164>
    d320:	e59f10b4 	ldr	r1, [pc, #180]	; d3dc <mbr_check+0x168>
    d324:	e59f00b4 	ldr	r0, [pc, #180]	; d3e0 <mbr_check+0x16c>
    d328:	eb00153a 	bl	12818 <printk>
    d32c:	eb00167e 	bl	12d2c <clean_reboot>
    d330:	e59f30ac 	ldr	r3, [pc, #172]	; d3e4 <mbr_check+0x170>
    d334:	e58d3000 	str	r3, [sp]
    d338:	e3a0300f 	mov	r3, #15, 0
    d33c:	e59f2094 	ldr	r2, [pc, #148]	; d3d8 <mbr_check+0x164>
    d340:	e59f1094 	ldr	r1, [pc, #148]	; d3dc <mbr_check+0x168>
    d344:	e59f0094 	ldr	r0, [pc, #148]	; d3e0 <mbr_check+0x16c>
    d348:	eb001532 	bl	12818 <printk>
    d34c:	eb001676 	bl	12d2c <clean_reboot>
    d350:	e59f3090 	ldr	r3, [pc, #144]	; d3e8 <mbr_check+0x174>
    d354:	e58d3000 	str	r3, [sp]
    d358:	e3a03015 	mov	r3, #21, 0
    d35c:	e59f2074 	ldr	r2, [pc, #116]	; d3d8 <mbr_check+0x164>
    d360:	e59f1074 	ldr	r1, [pc, #116]	; d3dc <mbr_check+0x168>
    d364:	e59f0074 	ldr	r0, [pc, #116]	; d3e0 <mbr_check+0x16c>
    d368:	eb00152a 	bl	12818 <printk>
    d36c:	eb00166e 	bl	12d2c <clean_reboot>
    d370:	e59f3074 	ldr	r3, [pc, #116]	; d3ec <mbr_check+0x178>
    d374:	e58d3000 	str	r3, [sp]
    d378:	e3a03016 	mov	r3, #22, 0
    d37c:	e59f2054 	ldr	r2, [pc, #84]	; d3d8 <mbr_check+0x164>
    d380:	e59f1054 	ldr	r1, [pc, #84]	; d3dc <mbr_check+0x168>
    d384:	e59f0054 	ldr	r0, [pc, #84]	; d3e0 <mbr_check+0x16c>
    d388:	eb001522 	bl	12818 <printk>
    d38c:	eb001666 	bl	12d2c <clean_reboot>
    d390:	e59f3058 	ldr	r3, [pc, #88]	; d3f0 <mbr_check+0x17c>
    d394:	e58d3000 	str	r3, [sp]
    d398:	e3a03017 	mov	r3, #23, 0
    d39c:	e59f2034 	ldr	r2, [pc, #52]	; d3d8 <mbr_check+0x164>
    d3a0:	e59f1034 	ldr	r1, [pc, #52]	; d3dc <mbr_check+0x168>
    d3a4:	e59f0034 	ldr	r0, [pc, #52]	; d3e0 <mbr_check+0x16c>
    d3a8:	eb00151a 	bl	12818 <printk>
    d3ac:	eb00165e 	bl	12d2c <clean_reboot>
    d3b0:	e59f303c 	ldr	r3, [pc, #60]	; d3f4 <mbr_check+0x180>
    d3b4:	e58d3000 	str	r3, [sp]
    d3b8:	e3a03018 	mov	r3, #24, 0
    d3bc:	e59f2014 	ldr	r2, [pc, #20]	; d3d8 <mbr_check+0x164>
    d3c0:	e59f1014 	ldr	r1, [pc, #20]	; d3dc <mbr_check+0x168>
    d3c4:	e59f0014 	ldr	r0, [pc, #20]	; d3e0 <mbr_check+0x16c>
    d3c8:	eb001512 	bl	12818 <printk>
    d3cc:	eb001656 	bl	12d2c <clean_reboot>
    d3d0:	0000aa55 	.word	0x0000aa55
    d3d4:	0019bed4 	.word	0x0019bed4
    d3d8:	0019c098 	.word	0x0019c098
    d3dc:	0019bc20 	.word	0x0019bc20
    d3e0:	0019b6f4 	.word	0x0019b6f4
    d3e4:	0019beec 	.word	0x0019beec
    d3e8:	0019bf0c 	.word	0x0019bf0c
    d3ec:	0019bf38 	.word	0x0019bf38
    d3f0:	0019bf60 	.word	0x0019bf60
    d3f4:	0019bf88 	.word	0x0019bf88

0000d3f8 <mbr_partition_print>:
    d3f8:	e92d4030 	push	{r4, r5, lr}
    d3fc:	e24dd00c 	sub	sp, sp, #12, 0
    d400:	e1a04001 	mov	r4, r1
    d404:	e1a01000 	mov	r1, r0
    d408:	e59f00fc 	ldr	r0, [pc, #252]	; d50c <mbr_partition_print+0x114>
    d40c:	eb001501 	bl	12818 <printk>
    d410:	e5d43000 	ldrb	r3, [r4]
    d414:	e3530000 	cmp	r3, #0, 0
    d418:	0a000031 	beq	d4e4 <mbr_partition_print+0xec>
    d41c:	e59f10ec 	ldr	r1, [pc, #236]	; d510 <mbr_partition_print+0x118>
    d420:	e59f00ec 	ldr	r0, [pc, #236]	; d514 <mbr_partition_print+0x11c>
    d424:	eb0014fb 	bl	12818 <printk>
    d428:	e5d43001 	ldrb	r3, [r4, #1]
    d42c:	e5d41002 	ldrb	r1, [r4, #2]
    d430:	e1833401 	orr	r3, r3, r1, lsl #8
    d434:	e5d41003 	ldrb	r1, [r4, #3]
    d438:	e1831801 	orr	r1, r3, r1, lsl #16
    d43c:	e59f00d4 	ldr	r0, [pc, #212]	; d518 <mbr_partition_print+0x120>
    d440:	eb0014f4 	bl	12818 <printk>
    d444:	e5d45004 	ldrb	r5, [r4, #4]
    d448:	e1a00005 	mov	r0, r5
    d44c:	ebfffe0b 	bl	cc80 <mbr_part_str>
    d450:	e1a02000 	mov	r2, r0
    d454:	e1a01005 	mov	r1, r5
    d458:	e59f00bc 	ldr	r0, [pc, #188]	; d51c <mbr_partition_print+0x124>
    d45c:	eb0014ed 	bl	12818 <printk>
    d460:	e5d43005 	ldrb	r3, [r4, #5]
    d464:	e5d41006 	ldrb	r1, [r4, #6]
    d468:	e1833401 	orr	r3, r3, r1, lsl #8
    d46c:	e5d41007 	ldrb	r1, [r4, #7]
    d470:	e1831801 	orr	r1, r3, r1, lsl #16
    d474:	e59f00a4 	ldr	r0, [pc, #164]	; d520 <mbr_partition_print+0x128>
    d478:	eb0014e6 	bl	12818 <printk>
    d47c:	e5d43008 	ldrb	r3, [r4, #8]
    d480:	e5d41009 	ldrb	r1, [r4, #9]
    d484:	e1833401 	orr	r3, r3, r1, lsl #8
    d488:	e5d4100a 	ldrb	r1, [r4, #10]
    d48c:	e1833801 	orr	r3, r3, r1, lsl #16
    d490:	e5d4100b 	ldrb	r1, [r4, #11]
    d494:	e1831c01 	orr	r1, r3, r1, lsl #24
    d498:	e59f0084 	ldr	r0, [pc, #132]	; d524 <mbr_partition_print+0x12c>
    d49c:	eb0014dd 	bl	12818 <printk>
    d4a0:	e5d4100c 	ldrb	r1, [r4, #12]
    d4a4:	e5d4300d 	ldrb	r3, [r4, #13]
    d4a8:	e1811403 	orr	r1, r1, r3, lsl #8
    d4ac:	e5d4300e 	ldrb	r3, [r4, #14]
    d4b0:	e1811803 	orr	r1, r1, r3, lsl #16
    d4b4:	e5d4300f 	ldrb	r3, [r4, #15]
    d4b8:	e1811c03 	orr	r1, r1, r3, lsl #24
    d4bc:	e1a02aa1 	lsr	r2, r1, #21
    d4c0:	e59f0060 	ldr	r0, [pc, #96]	; d528 <mbr_partition_print+0x130>
    d4c4:	eb0014d3 	bl	12818 <printk>
    d4c8:	e5d43004 	ldrb	r3, [r4, #4]
    d4cc:	e243300b 	sub	r3, r3, #11, 0
    d4d0:	e6ef3073 	uxtb	r3, r3
    d4d4:	e3530001 	cmp	r3, #1, 0
    d4d8:	8a000003 	bhi	d4ec <mbr_partition_print+0xf4>
    d4dc:	e28dd00c 	add	sp, sp, #12, 0
    d4e0:	e8bd8030 	pop	{r4, r5, pc}
    d4e4:	e59f1040 	ldr	r1, [pc, #64]	; d52c <mbr_partition_print+0x134>
    d4e8:	eaffffcc 	b	d420 <mbr_partition_print+0x28>
    d4ec:	e59f303c 	ldr	r3, [pc, #60]	; d530 <mbr_partition_print+0x138>
    d4f0:	e58d3000 	str	r3, [sp]
    d4f4:	e3a03061 	mov	r3, #97, 0	; 0x61
    d4f8:	e59f2034 	ldr	r2, [pc, #52]	; d534 <mbr_partition_print+0x13c>
    d4fc:	e59f1034 	ldr	r1, [pc, #52]	; d538 <mbr_partition_print+0x140>
    d500:	e59f0034 	ldr	r0, [pc, #52]	; d53c <mbr_partition_print+0x144>
    d504:	eb0014c3 	bl	12818 <printk>
    d508:	eb001607 	bl	12d2c <clean_reboot>
    d50c:	0019bfc0 	.word	0x0019bfc0
    d510:	0019bfb8 	.word	0x0019bfb8
    d514:	0019bfc8 	.word	0x0019bfc8
    d518:	0019bfdc 	.word	0x0019bfdc
    d51c:	0019bff0 	.word	0x0019bff0
    d520:	0019c008 	.word	0x0019c008
    d524:	0019c01c 	.word	0x0019c01c
    d528:	0019c030 	.word	0x0019c030
    d52c:	0019bfb0 	.word	0x0019bfb0
    d530:	0019c048 	.word	0x0019c048
    d534:	0019c0a4 	.word	0x0019c0a4
    d538:	0019bc20 	.word	0x0019bc20
    d53c:	0019b6f4 	.word	0x0019b6f4

0000d540 <to_8dot3>:
    d540:	e92d4010 	push	{r4, lr}
    d544:	e1a04000 	mov	r4, r0
    d548:	e3a02008 	mov	r2, #8, 0
    d54c:	e1a01000 	mov	r1, r0
    d550:	e59f0070 	ldr	r0, [pc, #112]	; d5c8 <to_8dot3+0x88>
    d554:	eb00143d 	bl	12650 <memcpy>
    d558:	e3a03007 	mov	r3, #7, 0
    d55c:	ea000000 	b	d564 <to_8dot3+0x24>
    d560:	e2433001 	sub	r3, r3, #1, 0
    d564:	e3530000 	cmp	r3, #0, 0
    d568:	ba000004 	blt	d580 <to_8dot3+0x40>
    d56c:	e59f2054 	ldr	r2, [pc, #84]	; d5c8 <to_8dot3+0x88>
    d570:	e7d22003 	ldrb	r2, [r2, r3]
    d574:	e3520020 	cmp	r2, #32, 0
    d578:	0afffff8 	beq	d560 <to_8dot3+0x20>
    d57c:	e2833001 	add	r3, r3, #1, 0
    d580:	e2832001 	add	r2, r3, #1, 0
    d584:	e59f103c 	ldr	r1, [pc, #60]	; d5c8 <to_8dot3+0x88>
    d588:	e3a0002e 	mov	r0, #46, 0	; 0x2e
    d58c:	e7c10003 	strb	r0, [r1, r3]
    d590:	e3a03000 	mov	r3, #0, 0
    d594:	e3530002 	cmp	r3, #2, 0
    d598:	ca000006 	bgt	d5b8 <to_8dot3+0x78>
    d59c:	e0841003 	add	r1, r4, r3
    d5a0:	e5d10008 	ldrb	r0, [r1, #8]
    d5a4:	e59f101c 	ldr	r1, [pc, #28]	; d5c8 <to_8dot3+0x88>
    d5a8:	e7c10002 	strb	r0, [r1, r2]
    d5ac:	e2833001 	add	r3, r3, #1, 0
    d5b0:	e2822001 	add	r2, r2, #1, 0
    d5b4:	eafffff6 	b	d594 <to_8dot3+0x54>
    d5b8:	e59f0008 	ldr	r0, [pc, #8]	; d5c8 <to_8dot3+0x88>
    d5bc:	e3a03000 	mov	r3, #0, 0
    d5c0:	e7c03002 	strb	r3, [r0, r2]
    d5c4:	e8bd8010 	pop	{r4, pc}
    d5c8:	0019eed8 	.word	0x0019eed8

0000d5cc <add_nul>:
    d5cc:	e92d4070 	push	{r4, r5, r6, lr}
    d5d0:	e1a01000 	mov	r1, r0
    d5d4:	e59f501c 	ldr	r5, [pc, #28]	; d5f8 <add_nul+0x2c>
    d5d8:	e2854010 	add	r4, r5, #16, 0
    d5dc:	e3a0200b 	mov	r2, #11, 0
    d5e0:	e1a00004 	mov	r0, r4
    d5e4:	eb001419 	bl	12650 <memcpy>
    d5e8:	e3a03000 	mov	r3, #0, 0
    d5ec:	e5c5301b 	strb	r3, [r5, #27]
    d5f0:	e1a00004 	mov	r0, r4
    d5f4:	e8bd8070 	pop	{r4, r5, r6, pc}
    d5f8:	0019eed8 	.word	0x0019eed8

0000d5fc <fat32_volume_id_check>:
    d5fc:	e52de004 	push	{lr}		; (str lr, [sp, #-4]!)
    d600:	e24dd00c 	sub	sp, sp, #12, 0
    d604:	e5d0300b 	ldrb	r3, [r0, #11]
    d608:	e5d0200c 	ldrb	r2, [r0, #12]
    d60c:	e1833402 	orr	r3, r3, r2, lsl #8
    d610:	e3530c02 	cmp	r3, #512	; 0x200
    d614:	1a000035 	bne	d6f0 <fat32_volume_id_check+0xf4>
    d618:	e5d02010 	ldrb	r2, [r0, #16]
    d61c:	e3520002 	cmp	r2, #2, 0
    d620:	1a00003a 	bne	d710 <fat32_volume_id_check+0x114>
    d624:	e5d021fe 	ldrb	r2, [r0, #510]	; 0x1fe
    d628:	e5d011ff 	ldrb	r1, [r0, #511]	; 0x1ff
    d62c:	e1822401 	orr	r2, r2, r1, lsl #8
    d630:	e59f1238 	ldr	r1, [pc, #568]	; d870 <fat32_volume_id_check+0x274>
    d634:	e1520001 	cmp	r2, r1
    d638:	1a00003c 	bne	d730 <fat32_volume_id_check+0x134>
    d63c:	e5d0200d 	ldrb	r2, [r0, #13]
    d640:	e2621000 	rsb	r1, r2, #0, 0
    d644:	e1d22001 	bics	r2, r2, r1
    d648:	1a000040 	bne	d750 <fat32_volume_id_check+0x154>
    d64c:	e3530b01 	cmp	r3, #1024	; 0x400
    d650:	13530c02 	cmpne	r3, #512	; 0x200
    d654:	0a000002 	beq	d664 <fat32_volume_id_check+0x68>
    d658:	e3530a01 	cmp	r3, #4096	; 0x1000
    d65c:	13530b02 	cmpne	r3, #2048	; 0x800
    d660:	1a000042 	bne	d770 <fat32_volume_id_check+0x174>
    d664:	e5d03011 	ldrb	r3, [r0, #17]
    d668:	e5d02012 	ldrb	r2, [r0, #18]
    d66c:	e1933402 	orrs	r3, r3, r2, lsl #8
    d670:	1a000046 	bne	d790 <fat32_volume_id_check+0x194>
    d674:	e5d03013 	ldrb	r3, [r0, #19]
    d678:	e5d02014 	ldrb	r2, [r0, #20]
    d67c:	e1933402 	orrs	r3, r3, r2, lsl #8
    d680:	1a00004a 	bne	d7b0 <fat32_volume_id_check+0x1b4>
    d684:	e5d03016 	ldrb	r3, [r0, #22]
    d688:	e5d02017 	ldrb	r2, [r0, #23]
    d68c:	e1933402 	orrs	r3, r3, r2, lsl #8
    d690:	1a00004e 	bne	d7d0 <fat32_volume_id_check+0x1d4>
    d694:	e5d03020 	ldrb	r3, [r0, #32]
    d698:	e5d02021 	ldrb	r2, [r0, #33]	; 0x21
    d69c:	e1833402 	orr	r3, r3, r2, lsl #8
    d6a0:	e5d02022 	ldrb	r2, [r0, #34]	; 0x22
    d6a4:	e1833802 	orr	r3, r3, r2, lsl #16
    d6a8:	e5d02023 	ldrb	r2, [r0, #35]	; 0x23
    d6ac:	e1933c02 	orrs	r3, r3, r2, lsl #24
    d6b0:	0a00004e 	beq	d7f0 <fat32_volume_id_check+0x1f4>
    d6b4:	e5d03030 	ldrb	r3, [r0, #48]	; 0x30
    d6b8:	e5d02031 	ldrb	r2, [r0, #49]	; 0x31
    d6bc:	e1833402 	orr	r3, r3, r2, lsl #8
    d6c0:	e3530001 	cmp	r3, #1, 0
    d6c4:	1a000051 	bne	d810 <fat32_volume_id_check+0x214>
    d6c8:	e5d03032 	ldrb	r3, [r0, #50]	; 0x32
    d6cc:	e5d02033 	ldrb	r2, [r0, #51]	; 0x33
    d6d0:	e1833402 	orr	r3, r3, r2, lsl #8
    d6d4:	e3530006 	cmp	r3, #6, 0
    d6d8:	1a000054 	bne	d830 <fat32_volume_id_check+0x234>
    d6dc:	e5d03042 	ldrb	r3, [r0, #66]	; 0x42
    d6e0:	e3530029 	cmp	r3, #41, 0	; 0x29
    d6e4:	1a000059 	bne	d850 <fat32_volume_id_check+0x254>
    d6e8:	e28dd00c 	add	sp, sp, #12, 0
    d6ec:	e49df004 	pop	{pc}		; (ldr pc, [sp], #4)
    d6f0:	e59f317c 	ldr	r3, [pc, #380]	; d874 <fat32_volume_id_check+0x278>
    d6f4:	e58d3000 	str	r3, [sp]
    d6f8:	e3a0300f 	mov	r3, #15, 0
    d6fc:	e59f2174 	ldr	r2, [pc, #372]	; d878 <fat32_volume_id_check+0x27c>
    d700:	e59f1174 	ldr	r1, [pc, #372]	; d87c <fat32_volume_id_check+0x280>
    d704:	e59f0174 	ldr	r0, [pc, #372]	; d880 <fat32_volume_id_check+0x284>
    d708:	eb001442 	bl	12818 <printk>
    d70c:	eb001586 	bl	12d2c <clean_reboot>
    d710:	e59f316c 	ldr	r3, [pc, #364]	; d884 <fat32_volume_id_check+0x288>
    d714:	e58d3000 	str	r3, [sp]
    d718:	e3a03010 	mov	r3, #16, 0
    d71c:	e59f2154 	ldr	r2, [pc, #340]	; d878 <fat32_volume_id_check+0x27c>
    d720:	e59f1154 	ldr	r1, [pc, #340]	; d87c <fat32_volume_id_check+0x280>
    d724:	e59f0154 	ldr	r0, [pc, #340]	; d880 <fat32_volume_id_check+0x284>
    d728:	eb00143a 	bl	12818 <printk>
    d72c:	eb00157e 	bl	12d2c <clean_reboot>
    d730:	e59f3150 	ldr	r3, [pc, #336]	; d888 <fat32_volume_id_check+0x28c>
    d734:	e58d3000 	str	r3, [sp]
    d738:	e3a03011 	mov	r3, #17, 0
    d73c:	e59f2134 	ldr	r2, [pc, #308]	; d878 <fat32_volume_id_check+0x27c>
    d740:	e59f1134 	ldr	r1, [pc, #308]	; d87c <fat32_volume_id_check+0x280>
    d744:	e59f0134 	ldr	r0, [pc, #308]	; d880 <fat32_volume_id_check+0x284>
    d748:	eb001432 	bl	12818 <printk>
    d74c:	eb001576 	bl	12d2c <clean_reboot>
    d750:	e59f3134 	ldr	r3, [pc, #308]	; d88c <fat32_volume_id_check+0x290>
    d754:	e58d3000 	str	r3, [sp]
    d758:	e3a03013 	mov	r3, #19, 0
    d75c:	e59f2114 	ldr	r2, [pc, #276]	; d878 <fat32_volume_id_check+0x27c>
    d760:	e59f1114 	ldr	r1, [pc, #276]	; d87c <fat32_volume_id_check+0x280>
    d764:	e59f0114 	ldr	r0, [pc, #276]	; d880 <fat32_volume_id_check+0x284>
    d768:	eb00142a 	bl	12818 <printk>
    d76c:	eb00156e 	bl	12d2c <clean_reboot>
    d770:	e59f3118 	ldr	r3, [pc, #280]	; d890 <fat32_volume_id_check+0x294>
    d774:	e58d3000 	str	r3, [sp]
    d778:	e3a03015 	mov	r3, #21, 0
    d77c:	e59f20f4 	ldr	r2, [pc, #244]	; d878 <fat32_volume_id_check+0x27c>
    d780:	e59f10f4 	ldr	r1, [pc, #244]	; d87c <fat32_volume_id_check+0x280>
    d784:	e59f00f4 	ldr	r0, [pc, #244]	; d880 <fat32_volume_id_check+0x284>
    d788:	eb001422 	bl	12818 <printk>
    d78c:	eb001566 	bl	12d2c <clean_reboot>
    d790:	e59f30fc 	ldr	r3, [pc, #252]	; d894 <fat32_volume_id_check+0x298>
    d794:	e58d3000 	str	r3, [sp]
    d798:	e3a03016 	mov	r3, #22, 0
    d79c:	e59f20d4 	ldr	r2, [pc, #212]	; d878 <fat32_volume_id_check+0x27c>
    d7a0:	e59f10d4 	ldr	r1, [pc, #212]	; d87c <fat32_volume_id_check+0x280>
    d7a4:	e59f00d4 	ldr	r0, [pc, #212]	; d880 <fat32_volume_id_check+0x284>
    d7a8:	eb00141a 	bl	12818 <printk>
    d7ac:	eb00155e 	bl	12d2c <clean_reboot>
    d7b0:	e59f30e0 	ldr	r3, [pc, #224]	; d898 <fat32_volume_id_check+0x29c>
    d7b4:	e58d3000 	str	r3, [sp]
    d7b8:	e3a03018 	mov	r3, #24, 0
    d7bc:	e59f20b4 	ldr	r2, [pc, #180]	; d878 <fat32_volume_id_check+0x27c>
    d7c0:	e59f10b4 	ldr	r1, [pc, #180]	; d87c <fat32_volume_id_check+0x280>
    d7c4:	e59f00b4 	ldr	r0, [pc, #180]	; d880 <fat32_volume_id_check+0x284>
    d7c8:	eb001412 	bl	12818 <printk>
    d7cc:	eb001556 	bl	12d2c <clean_reboot>
    d7d0:	e59f30c4 	ldr	r3, [pc, #196]	; d89c <fat32_volume_id_check+0x2a0>
    d7d4:	e58d3000 	str	r3, [sp]
    d7d8:	e3a0301b 	mov	r3, #27, 0
    d7dc:	e59f2094 	ldr	r2, [pc, #148]	; d878 <fat32_volume_id_check+0x27c>
    d7e0:	e59f1094 	ldr	r1, [pc, #148]	; d87c <fat32_volume_id_check+0x280>
    d7e4:	e59f0094 	ldr	r0, [pc, #148]	; d880 <fat32_volume_id_check+0x284>
    d7e8:	eb00140a 	bl	12818 <printk>
    d7ec:	eb00154e 	bl	12d2c <clean_reboot>
    d7f0:	e59f30a8 	ldr	r3, [pc, #168]	; d8a0 <fat32_volume_id_check+0x2a4>
    d7f4:	e58d3000 	str	r3, [sp]
    d7f8:	e3a0301c 	mov	r3, #28, 0
    d7fc:	e59f2074 	ldr	r2, [pc, #116]	; d878 <fat32_volume_id_check+0x27c>
    d800:	e59f1074 	ldr	r1, [pc, #116]	; d87c <fat32_volume_id_check+0x280>
    d804:	e59f0074 	ldr	r0, [pc, #116]	; d880 <fat32_volume_id_check+0x284>
    d808:	eb001402 	bl	12818 <printk>
    d80c:	eb001546 	bl	12d2c <clean_reboot>
    d810:	e59f308c 	ldr	r3, [pc, #140]	; d8a4 <fat32_volume_id_check+0x2a8>
    d814:	e58d3000 	str	r3, [sp]
    d818:	e3a0301f 	mov	r3, #31, 0
    d81c:	e59f2054 	ldr	r2, [pc, #84]	; d878 <fat32_volume_id_check+0x27c>
    d820:	e59f1054 	ldr	r1, [pc, #84]	; d87c <fat32_volume_id_check+0x280>
    d824:	e59f0054 	ldr	r0, [pc, #84]	; d880 <fat32_volume_id_check+0x284>
    d828:	eb0013fa 	bl	12818 <printk>
    d82c:	eb00153e 	bl	12d2c <clean_reboot>
    d830:	e59f3070 	ldr	r3, [pc, #112]	; d8a8 <fat32_volume_id_check+0x2ac>
    d834:	e58d3000 	str	r3, [sp]
    d838:	e3a03020 	mov	r3, #32, 0
    d83c:	e59f2034 	ldr	r2, [pc, #52]	; d878 <fat32_volume_id_check+0x27c>
    d840:	e59f1034 	ldr	r1, [pc, #52]	; d87c <fat32_volume_id_check+0x280>
    d844:	e59f0034 	ldr	r0, [pc, #52]	; d880 <fat32_volume_id_check+0x284>
    d848:	eb0013f2 	bl	12818 <printk>
    d84c:	eb001536 	bl	12d2c <clean_reboot>
    d850:	e59f3054 	ldr	r3, [pc, #84]	; d8ac <fat32_volume_id_check+0x2b0>
    d854:	e58d3000 	str	r3, [sp]
    d858:	e3a03021 	mov	r3, #33, 0	; 0x21
    d85c:	e59f2014 	ldr	r2, [pc, #20]	; d878 <fat32_volume_id_check+0x27c>
    d860:	e59f1014 	ldr	r1, [pc, #20]	; d87c <fat32_volume_id_check+0x280>
    d864:	e59f0014 	ldr	r0, [pc, #20]	; d880 <fat32_volume_id_check+0x284>
    d868:	eb0013ea 	bl	12818 <printk>
    d86c:	eb00152e 	bl	12d2c <clean_reboot>
    d870:	0000aa55 	.word	0x0000aa55
    d874:	0019c0ec 	.word	0x0019c0ec
    d878:	0019c850 	.word	0x0019c850
    d87c:	0019c0b8 	.word	0x0019c0b8
    d880:	0019b6f4 	.word	0x0019b6f4
    d884:	0019c104 	.word	0x0019c104
    d888:	0019c114 	.word	0x0019c114
    d88c:	0019c128 	.word	0x0019c128
    d890:	0019c144 	.word	0x0019c144
    d894:	0019c174 	.word	0x0019c174
    d898:	0019c184 	.word	0x0019c184
    d89c:	0019c194 	.word	0x0019c194
    d8a0:	0019c1a4 	.word	0x0019c1a4
    d8a4:	0019c1b8 	.word	0x0019c1b8
    d8a8:	0019c1d0 	.word	0x0019c1d0
    d8ac:	0019c1e8 	.word	0x0019c1e8

0000d8b0 <fat32_volume_id_print>:
    d8b0:	e92d4030 	push	{r4, r5, lr}
    d8b4:	e24dd02c 	sub	sp, sp, #44, 0	; 0x2c
    d8b8:	e1a04001 	mov	r4, r1
    d8bc:	e1a01000 	mov	r1, r0
    d8c0:	e59f0240 	ldr	r0, [pc, #576]	; db08 <fat32_volume_id_print+0x258>
    d8c4:	eb0013d3 	bl	12818 <printk>
    d8c8:	e3a02008 	mov	r2, #8, 0
    d8cc:	e2841003 	add	r1, r4, #3, 0
    d8d0:	e28d001c 	add	r0, sp, #28, 0
    d8d4:	eb00135d 	bl	12650 <memcpy>
    d8d8:	e3a05000 	mov	r5, #0, 0
    d8dc:	e5cd5024 	strb	r5, [sp, #36]	; 0x24
    d8e0:	e3a0200b 	mov	r2, #11, 0
    d8e4:	e2841047 	add	r1, r4, #71, 0	; 0x47
    d8e8:	e28d0010 	add	r0, sp, #16, 0
    d8ec:	eb001357 	bl	12650 <memcpy>
    d8f0:	e5cd5027 	strb	r5, [sp, #39]	; 0x27
    d8f4:	e3a02008 	mov	r2, #8, 0
    d8f8:	e2841052 	add	r1, r4, #82, 0	; 0x52
    d8fc:	e28d0004 	add	r0, sp, #4, 0
    d900:	eb001352 	bl	12650 <memcpy>
    d904:	e5cd500c 	strb	r5, [sp, #12]
    d908:	e28d101c 	add	r1, sp, #28, 0
    d90c:	e59f01f8 	ldr	r0, [pc, #504]	; db0c <fat32_volume_id_print+0x25c>
    d910:	eb0013c0 	bl	12818 <printk>
    d914:	e5d4300b 	ldrb	r3, [r4, #11]
    d918:	e5d4100c 	ldrb	r1, [r4, #12]
    d91c:	e1831401 	orr	r1, r3, r1, lsl #8
    d920:	e59f01e8 	ldr	r0, [pc, #488]	; db10 <fat32_volume_id_print+0x260>
    d924:	eb0013bb 	bl	12818 <printk>
    d928:	e5d4100d 	ldrb	r1, [r4, #13]
    d92c:	e59f01e0 	ldr	r0, [pc, #480]	; db14 <fat32_volume_id_print+0x264>
    d930:	eb0013b8 	bl	12818 <printk>
    d934:	e5d4300e 	ldrb	r3, [r4, #14]
    d938:	e5d4100f 	ldrb	r1, [r4, #15]
    d93c:	e1831401 	orr	r1, r3, r1, lsl #8
    d940:	e59f01d0 	ldr	r0, [pc, #464]	; db18 <fat32_volume_id_print+0x268>
    d944:	eb0013b3 	bl	12818 <printk>
    d948:	e5d41010 	ldrb	r1, [r4, #16]
    d94c:	e59f01c8 	ldr	r0, [pc, #456]	; db1c <fat32_volume_id_print+0x26c>
    d950:	eb0013b0 	bl	12818 <printk>
    d954:	e5d43011 	ldrb	r3, [r4, #17]
    d958:	e5d41012 	ldrb	r1, [r4, #18]
    d95c:	e1831401 	orr	r1, r3, r1, lsl #8
    d960:	e59f01b8 	ldr	r0, [pc, #440]	; db20 <fat32_volume_id_print+0x270>
    d964:	eb0013ab 	bl	12818 <printk>
    d968:	e5d43013 	ldrb	r3, [r4, #19]
    d96c:	e5d41014 	ldrb	r1, [r4, #20]
    d970:	e1831401 	orr	r1, r3, r1, lsl #8
    d974:	e59f01a8 	ldr	r0, [pc, #424]	; db24 <fat32_volume_id_print+0x274>
    d978:	eb0013a6 	bl	12818 <printk>
    d97c:	e5d41015 	ldrb	r1, [r4, #21]
    d980:	e59f01a0 	ldr	r0, [pc, #416]	; db28 <fat32_volume_id_print+0x278>
    d984:	eb0013a3 	bl	12818 <printk>
    d988:	e5d43018 	ldrb	r3, [r4, #24]
    d98c:	e5d41019 	ldrb	r1, [r4, #25]
    d990:	e1831401 	orr	r1, r3, r1, lsl #8
    d994:	e59f0190 	ldr	r0, [pc, #400]	; db2c <fat32_volume_id_print+0x27c>
    d998:	eb00139e 	bl	12818 <printk>
    d99c:	e5d4301a 	ldrb	r3, [r4, #26]
    d9a0:	e5d4101b 	ldrb	r1, [r4, #27]
    d9a4:	e1831401 	orr	r1, r3, r1, lsl #8
    d9a8:	e59f0180 	ldr	r0, [pc, #384]	; db30 <fat32_volume_id_print+0x280>
    d9ac:	eb001399 	bl	12818 <printk>
    d9b0:	e5d4301c 	ldrb	r3, [r4, #28]
    d9b4:	e5d4101d 	ldrb	r1, [r4, #29]
    d9b8:	e1833401 	orr	r3, r3, r1, lsl #8
    d9bc:	e5d4101e 	ldrb	r1, [r4, #30]
    d9c0:	e1833801 	orr	r3, r3, r1, lsl #16
    d9c4:	e5d4101f 	ldrb	r1, [r4, #31]
    d9c8:	e1831c01 	orr	r1, r3, r1, lsl #24
    d9cc:	e59f0160 	ldr	r0, [pc, #352]	; db34 <fat32_volume_id_print+0x284>
    d9d0:	eb001390 	bl	12818 <printk>
    d9d4:	e5d43020 	ldrb	r3, [r4, #32]
    d9d8:	e5d41021 	ldrb	r1, [r4, #33]	; 0x21
    d9dc:	e1833401 	orr	r3, r3, r1, lsl #8
    d9e0:	e5d41022 	ldrb	r1, [r4, #34]	; 0x22
    d9e4:	e1833801 	orr	r3, r3, r1, lsl #16
    d9e8:	e5d41023 	ldrb	r1, [r4, #35]	; 0x23
    d9ec:	e1831c01 	orr	r1, r3, r1, lsl #24
    d9f0:	e59f0140 	ldr	r0, [pc, #320]	; db38 <fat32_volume_id_print+0x288>
    d9f4:	eb001387 	bl	12818 <printk>
    d9f8:	e5d43024 	ldrb	r3, [r4, #36]	; 0x24
    d9fc:	e5d41025 	ldrb	r1, [r4, #37]	; 0x25
    da00:	e1833401 	orr	r3, r3, r1, lsl #8
    da04:	e5d41026 	ldrb	r1, [r4, #38]	; 0x26
    da08:	e1833801 	orr	r3, r3, r1, lsl #16
    da0c:	e5d41027 	ldrb	r1, [r4, #39]	; 0x27
    da10:	e1831c01 	orr	r1, r3, r1, lsl #24
    da14:	e59f0120 	ldr	r0, [pc, #288]	; db3c <fat32_volume_id_print+0x28c>
    da18:	eb00137e 	bl	12818 <printk>
    da1c:	e5d43028 	ldrb	r3, [r4, #40]	; 0x28
    da20:	e5d41029 	ldrb	r1, [r4, #41]	; 0x29
    da24:	e1831401 	orr	r1, r3, r1, lsl #8
    da28:	e59f0110 	ldr	r0, [pc, #272]	; db40 <fat32_volume_id_print+0x290>
    da2c:	eb001379 	bl	12818 <printk>
    da30:	e5d4302a 	ldrb	r3, [r4, #42]	; 0x2a
    da34:	e5d4102b 	ldrb	r1, [r4, #43]	; 0x2b
    da38:	e1831401 	orr	r1, r3, r1, lsl #8
    da3c:	e59f0100 	ldr	r0, [pc, #256]	; db44 <fat32_volume_id_print+0x294>
    da40:	eb001374 	bl	12818 <printk>
    da44:	e5d4302c 	ldrb	r3, [r4, #44]	; 0x2c
    da48:	e5d4102d 	ldrb	r1, [r4, #45]	; 0x2d
    da4c:	e1833401 	orr	r3, r3, r1, lsl #8
    da50:	e5d4102e 	ldrb	r1, [r4, #46]	; 0x2e
    da54:	e1833801 	orr	r3, r3, r1, lsl #16
    da58:	e5d4102f 	ldrb	r1, [r4, #47]	; 0x2f
    da5c:	e1831c01 	orr	r1, r3, r1, lsl #24
    da60:	e59f00e0 	ldr	r0, [pc, #224]	; db48 <fat32_volume_id_print+0x298>
    da64:	eb00136b 	bl	12818 <printk>
    da68:	e5d43030 	ldrb	r3, [r4, #48]	; 0x30
    da6c:	e5d41031 	ldrb	r1, [r4, #49]	; 0x31
    da70:	e1831401 	orr	r1, r3, r1, lsl #8
    da74:	e59f00d0 	ldr	r0, [pc, #208]	; db4c <fat32_volume_id_print+0x29c>
    da78:	eb001366 	bl	12818 <printk>
    da7c:	e5d43032 	ldrb	r3, [r4, #50]	; 0x32
    da80:	e5d41033 	ldrb	r1, [r4, #51]	; 0x33
    da84:	e1831401 	orr	r1, r3, r1, lsl #8
    da88:	e59f00c0 	ldr	r0, [pc, #192]	; db50 <fat32_volume_id_print+0x2a0>
    da8c:	eb001361 	bl	12818 <printk>
    da90:	e5d41040 	ldrb	r1, [r4, #64]	; 0x40
    da94:	e59f00b8 	ldr	r0, [pc, #184]	; db54 <fat32_volume_id_print+0x2a4>
    da98:	eb00135e 	bl	12818 <printk>
    da9c:	e5d41042 	ldrb	r1, [r4, #66]	; 0x42
    daa0:	e59f00b0 	ldr	r0, [pc, #176]	; db58 <fat32_volume_id_print+0x2a8>
    daa4:	eb00135b 	bl	12818 <printk>
    daa8:	e5d43043 	ldrb	r3, [r4, #67]	; 0x43
    daac:	e5d41044 	ldrb	r1, [r4, #68]	; 0x44
    dab0:	e1833401 	orr	r3, r3, r1, lsl #8
    dab4:	e5d41045 	ldrb	r1, [r4, #69]	; 0x45
    dab8:	e1833801 	orr	r3, r3, r1, lsl #16
    dabc:	e5d41046 	ldrb	r1, [r4, #70]	; 0x46
    dac0:	e1831c01 	orr	r1, r3, r1, lsl #24
    dac4:	e59f0090 	ldr	r0, [pc, #144]	; db5c <fat32_volume_id_print+0x2ac>
    dac8:	eb001352 	bl	12818 <printk>
    dacc:	e28d1010 	add	r1, sp, #16, 0
    dad0:	e59f0088 	ldr	r0, [pc, #136]	; db60 <fat32_volume_id_print+0x2b0>
    dad4:	eb00134f 	bl	12818 <printk>
    dad8:	e28d1004 	add	r1, sp, #4, 0
    dadc:	e59f0080 	ldr	r0, [pc, #128]	; db64 <fat32_volume_id_print+0x2b4>
    dae0:	eb00134c 	bl	12818 <printk>
    dae4:	e5d431fe 	ldrb	r3, [r4, #510]	; 0x1fe
    dae8:	e5d411ff 	ldrb	r1, [r4, #511]	; 0x1ff
    daec:	e1831401 	orr	r1, r3, r1, lsl #8
    daf0:	e59f0070 	ldr	r0, [pc, #112]	; db68 <fat32_volume_id_print+0x2b8>
    daf4:	eb001347 	bl	12818 <printk>
    daf8:	e1a00004 	mov	r0, r4
    dafc:	ebfffebe 	bl	d5fc <fat32_volume_id_check>
    db00:	e28dd02c 	add	sp, sp, #44, 0	; 0x2c
    db04:	e8bd8030 	pop	{r4, r5, pc}
    db08:	0019bfc0 	.word	0x0019bfc0
    db0c:	0019c200 	.word	0x0019c200
    db10:	0019c21c 	.word	0x0019c21c
    db14:	0019c238 	.word	0x0019c238
    db18:	0019c254 	.word	0x0019c254
    db1c:	0019c270 	.word	0x0019c270
    db20:	0019c28c 	.word	0x0019c28c
    db24:	0019c2a8 	.word	0x0019c2a8
    db28:	0019c2c4 	.word	0x0019c2c4
    db2c:	0019c2e0 	.word	0x0019c2e0
    db30:	0019c2fc 	.word	0x0019c2fc
    db34:	0019c318 	.word	0x0019c318
    db38:	0019c334 	.word	0x0019c334
    db3c:	0019c350 	.word	0x0019c350
    db40:	0019c36c 	.word	0x0019c36c
    db44:	0019c388 	.word	0x0019c388
    db48:	0019c3a4 	.word	0x0019c3a4
    db4c:	0019c3c0 	.word	0x0019c3c0
    db50:	0019c3dc 	.word	0x0019c3dc
    db54:	0019c3f8 	.word	0x0019c3f8
    db58:	0019c414 	.word	0x0019c414
    db5c:	0019c430 	.word	0x0019c430
    db60:	0019c44c 	.word	0x0019c44c
    db64:	0019c468 	.word	0x0019c468
    db68:	0019c484 	.word	0x0019c484

0000db6c <fat32_fsinfo_print>:
    db6c:	e92d4010 	push	{r4, lr}
    db70:	e1a04001 	mov	r4, r1
    db74:	e1a01000 	mov	r1, r0
    db78:	e59f0040 	ldr	r0, [pc, #64]	; dbc0 <fat32_fsinfo_print+0x54>
    db7c:	eb001325 	bl	12818 <printk>
    db80:	e5941000 	ldr	r1, [r4]
    db84:	e59f0038 	ldr	r0, [pc, #56]	; dbc4 <fat32_fsinfo_print+0x58>
    db88:	eb001322 	bl	12818 <printk>
    db8c:	e59411e4 	ldr	r1, [r4, #484]	; 0x1e4
    db90:	e59f0030 	ldr	r0, [pc, #48]	; dbc8 <fat32_fsinfo_print+0x5c>
    db94:	eb00131f 	bl	12818 <printk>
    db98:	e59411fc 	ldr	r1, [r4, #508]	; 0x1fc
    db9c:	e59f0028 	ldr	r0, [pc, #40]	; dbcc <fat32_fsinfo_print+0x60>
    dba0:	eb00131c 	bl	12818 <printk>
    dba4:	e59411e8 	ldr	r1, [r4, #488]	; 0x1e8
    dba8:	e59f0020 	ldr	r0, [pc, #32]	; dbd0 <fat32_fsinfo_print+0x64>
    dbac:	eb001319 	bl	12818 <printk>
    dbb0:	e59411ec 	ldr	r1, [r4, #492]	; 0x1ec
    dbb4:	e59f0018 	ldr	r0, [pc, #24]	; dbd4 <fat32_fsinfo_print+0x68>
    dbb8:	eb001316 	bl	12818 <printk>
    dbbc:	e8bd8010 	pop	{r4, pc}
    dbc0:	0019bfc0 	.word	0x0019bfc0
    dbc4:	0019c4a0 	.word	0x0019c4a0
    dbc8:	0019c4bc 	.word	0x0019c4bc
    dbcc:	0019c4d8 	.word	0x0019c4d8
    dbd0:	0019c4f4 	.word	0x0019c4f4
    dbd4:	0019c510 	.word	0x0019c510

0000dbd8 <fat32_fsinfo_check>:
    dbd8:	e52de004 	push	{lr}		; (str lr, [sp, #-4]!)
    dbdc:	e24dd00c 	sub	sp, sp, #12, 0
    dbe0:	e5902000 	ldr	r2, [r0]
    dbe4:	e59f308c 	ldr	r3, [pc, #140]	; dc78 <fat32_fsinfo_check+0xa0>
    dbe8:	e1520003 	cmp	r2, r3
    dbec:	1a000009 	bne	dc18 <fat32_fsinfo_check+0x40>
    dbf0:	e59021e4 	ldr	r2, [r0, #484]	; 0x1e4
    dbf4:	e59f3080 	ldr	r3, [pc, #128]	; dc7c <fat32_fsinfo_check+0xa4>
    dbf8:	e1520003 	cmp	r2, r3
    dbfc:	1a00000d 	bne	dc38 <fat32_fsinfo_check+0x60>
    dc00:	e59021fc 	ldr	r2, [r0, #508]	; 0x1fc
    dc04:	e59f3074 	ldr	r3, [pc, #116]	; dc80 <fat32_fsinfo_check+0xa8>
    dc08:	e1520003 	cmp	r2, r3
    dc0c:	1a000011 	bne	dc58 <fat32_fsinfo_check+0x80>
    dc10:	e28dd00c 	add	sp, sp, #12, 0
    dc14:	e49df004 	pop	{pc}		; (ldr pc, [sp], #4)
    dc18:	e59f3064 	ldr	r3, [pc, #100]	; dc84 <fat32_fsinfo_check+0xac>
    dc1c:	e58d3000 	str	r3, [sp]
    dc20:	e3a03058 	mov	r3, #88, 0	; 0x58
    dc24:	e59f205c 	ldr	r2, [pc, #92]	; dc88 <fat32_fsinfo_check+0xb0>
    dc28:	e59f105c 	ldr	r1, [pc, #92]	; dc8c <fat32_fsinfo_check+0xb4>
    dc2c:	e59f005c 	ldr	r0, [pc, #92]	; dc90 <fat32_fsinfo_check+0xb8>
    dc30:	eb0012f8 	bl	12818 <printk>
    dc34:	eb00143c 	bl	12d2c <clean_reboot>
    dc38:	e59f3054 	ldr	r3, [pc, #84]	; dc94 <fat32_fsinfo_check+0xbc>
    dc3c:	e58d3000 	str	r3, [sp]
    dc40:	e3a03059 	mov	r3, #89, 0	; 0x59
    dc44:	e59f203c 	ldr	r2, [pc, #60]	; dc88 <fat32_fsinfo_check+0xb0>
    dc48:	e59f103c 	ldr	r1, [pc, #60]	; dc8c <fat32_fsinfo_check+0xb4>
    dc4c:	e59f003c 	ldr	r0, [pc, #60]	; dc90 <fat32_fsinfo_check+0xb8>
    dc50:	eb0012f0 	bl	12818 <printk>
    dc54:	eb001434 	bl	12d2c <clean_reboot>
    dc58:	e59f3038 	ldr	r3, [pc, #56]	; dc98 <fat32_fsinfo_check+0xc0>
    dc5c:	e58d3000 	str	r3, [sp]
    dc60:	e3a0305a 	mov	r3, #90, 0	; 0x5a
    dc64:	e59f201c 	ldr	r2, [pc, #28]	; dc88 <fat32_fsinfo_check+0xb0>
    dc68:	e59f101c 	ldr	r1, [pc, #28]	; dc8c <fat32_fsinfo_check+0xb4>
    dc6c:	e59f001c 	ldr	r0, [pc, #28]	; dc90 <fat32_fsinfo_check+0xb8>
    dc70:	eb0012e8 	bl	12818 <printk>
    dc74:	eb00142c 	bl	12d2c <clean_reboot>
    dc78:	41615252 	.word	0x41615252
    dc7c:	61417272 	.word	0x61417272
    dc80:	aa550000 	.word	0xaa550000
    dc84:	0019c52c 	.word	0x0019c52c
    dc88:	0019c868 	.word	0x0019c868
    dc8c:	0019c0b8 	.word	0x0019c0b8
    dc90:	0019b6f4 	.word	0x0019b6f4
    dc94:	0019c548 	.word	0x0019c548
    dc98:	0019c564 	.word	0x0019c564

0000dc9c <fat32_fat_entry_type_str>:
    dc9c:	e370029f 	cmn	r0, #-268435447	; 0xf0000009
    dca0:	0a000015 	beq	dcfc <fat32_fat_entry_type_str+0x60>
    dca4:	8a000005 	bhi	dcc0 <fat32_fat_entry_type_str+0x24>
    dca8:	e3500000 	cmp	r0, #0, 0
    dcac:	0a000014 	beq	dd04 <fat32_fat_entry_type_str+0x68>
    dcb0:	e3500001 	cmp	r0, #1, 0
    dcb4:	1a000007 	bne	dcd8 <fat32_fat_entry_type_str+0x3c>
    dcb8:	e59f0054 	ldr	r0, [pc, #84]	; dd14 <fat32_fat_entry_type_str+0x78>
    dcbc:	e12fff1e 	bx	lr
    dcc0:	e370028f 	cmn	r0, #-268435448	; 0xf0000008
    dcc4:	0a000010 	beq	dd0c <fat32_fat_entry_type_str+0x70>
    dcc8:	e370027f 	cmn	r0, #-268435449	; 0xf0000007
    dccc:	1a000001 	bne	dcd8 <fat32_fat_entry_type_str+0x3c>
    dcd0:	e59f0040 	ldr	r0, [pc, #64]	; dd18 <fat32_fat_entry_type_str+0x7c>
    dcd4:	e12fff1e 	bx	lr
    dcd8:	e52de004 	push	{lr}		; (str lr, [sp, #-4]!)
    dcdc:	e24dd00c 	sub	sp, sp, #12, 0
    dce0:	e58d0000 	str	r0, [sp]
    dce4:	e3a03068 	mov	r3, #104, 0	; 0x68
    dce8:	e59f202c 	ldr	r2, [pc, #44]	; dd1c <fat32_fat_entry_type_str+0x80>
    dcec:	e59f102c 	ldr	r1, [pc, #44]	; dd20 <fat32_fat_entry_type_str+0x84>
    dcf0:	e59f002c 	ldr	r0, [pc, #44]	; dd24 <fat32_fat_entry_type_str+0x88>
    dcf4:	eb0012c7 	bl	12818 <printk>
    dcf8:	eb00140b 	bl	12d2c <clean_reboot>
    dcfc:	e59f0024 	ldr	r0, [pc, #36]	; dd28 <fat32_fat_entry_type_str+0x8c>
    dd00:	e12fff1e 	bx	lr
    dd04:	e59f0020 	ldr	r0, [pc, #32]	; dd2c <fat32_fat_entry_type_str+0x90>
    dd08:	e12fff1e 	bx	lr
    dd0c:	e59f001c 	ldr	r0, [pc, #28]	; dd30 <fat32_fat_entry_type_str+0x94>
    dd10:	e12fff1e 	bx	lr
    dd14:	0019c5ac 	.word	0x0019c5ac
    dd18:	0019c5c0 	.word	0x0019c5c0
    dd1c:	0019c87c 	.word	0x0019c87c
    dd20:	0019c0b8 	.word	0x0019c0b8
    dd24:	0019c5d0 	.word	0x0019c5d0
    dd28:	0019c580 	.word	0x0019c580
    dd2c:	0019c58c 	.word	0x0019c58c
    dd30:	0019c59c 	.word	0x0019c59c

0000dd34 <fat32_fat_entry_type>:
    dd34:	e3c0020f 	bic	r0, r0, #-268435456	; 0xf0000000
    dd38:	e3500001 	cmp	r0, #1, 0
    dd3c:	912fff1e 	bxls	lr
    dd40:	e370029f 	cmn	r0, #-268435447	; 0xf0000009
    dd44:	012fff1e 	bxeq	lr
    dd48:	e2402002 	sub	r2, r0, #2, 0
    dd4c:	e59f3074 	ldr	r3, [pc, #116]	; ddc8 <fat32_fat_entry_type+0x94>
    dd50:	e1520003 	cmp	r2, r3
    dd54:	9a000019 	bls	ddc0 <fat32_fat_entry_type+0x8c>
    dd58:	e52de004 	push	{lr}		; (str lr, [sp, #-4]!)
    dd5c:	e24dd00c 	sub	sp, sp, #12, 0
    dd60:	e280320f 	add	r3, r0, #-268435456	; 0xf0000000
    dd64:	e2833010 	add	r3, r3, #16, 0
    dd68:	e3530006 	cmp	r3, #6, 0
    dd6c:	9a000005 	bls	dd88 <fat32_fat_entry_type+0x54>
    dd70:	e280328f 	add	r3, r0, #-268435448	; 0xf0000008
    dd74:	e3530007 	cmp	r3, #7, 0
    dd78:	8a000009 	bhi	dda4 <fat32_fat_entry_type+0x70>
    dd7c:	e3e0027f 	mvn	r0, #-268435449	; 0xf0000007
    dd80:	e28dd00c 	add	sp, sp, #12, 0
    dd84:	e49df004 	pop	{pc}		; (ldr pc, [sp], #4)
    dd88:	e58d0000 	str	r0, [sp]
    dd8c:	e3a03078 	mov	r3, #120, 0	; 0x78
    dd90:	e59f2034 	ldr	r2, [pc, #52]	; ddcc <fat32_fat_entry_type+0x98>
    dd94:	e59f1034 	ldr	r1, [pc, #52]	; ddd0 <fat32_fat_entry_type+0x9c>
    dd98:	e59f0034 	ldr	r0, [pc, #52]	; ddd4 <fat32_fat_entry_type+0xa0>
    dd9c:	eb00129d 	bl	12818 <printk>
    dda0:	eb0013e1 	bl	12d2c <clean_reboot>
    dda4:	e58d0000 	str	r0, [sp]
    dda8:	e3a0307b 	mov	r3, #123, 0	; 0x7b
    ddac:	e59f2018 	ldr	r2, [pc, #24]	; ddcc <fat32_fat_entry_type+0x98>
    ddb0:	e59f1018 	ldr	r1, [pc, #24]	; ddd0 <fat32_fat_entry_type+0x9c>
    ddb4:	e59f001c 	ldr	r0, [pc, #28]	; ddd8 <fat32_fat_entry_type+0xa4>
    ddb8:	eb001296 	bl	12818 <printk>
    ddbc:	eb0013da 	bl	12d2c <clean_reboot>
    ddc0:	e3e0026f 	mvn	r0, #-268435450	; 0xf0000006
    ddc4:	e12fff1e 	bx	lr
    ddc8:	0fffffed 	.word	0x0fffffed
    ddcc:	0019c898 	.word	0x0019c898
    ddd0:	0019c0b8 	.word	0x0019c0b8
    ddd4:	0019c5f0 	.word	0x0019c5f0
    ddd8:	0019c614 	.word	0x0019c614

0000dddc <fat32_dirent_free>:
    dddc:	e5d03000 	ldrb	r3, [r0]
    dde0:	e5d0200b 	ldrb	r2, [r0, #11]
    dde4:	e352000f 	cmp	r2, #15, 0
    dde8:	0a000005 	beq	de04 <fat32_dirent_free+0x28>
    ddec:	e35300e5 	cmp	r3, #229, 0	; 0xe5
    ddf0:	13a00000 	movne	r0, #0, 0
    ddf4:	03a00001 	moveq	r0, #1, 0
    ddf8:	e3530000 	cmp	r3, #0, 0
    ddfc:	03a00001 	moveq	r0, #1, 0
    de00:	e12fff1e 	bx	lr
    de04:	e92d4010 	push	{r4, lr}
    de08:	eb00024f 	bl	e74c <fat32_dirent_is_deleted_lfn>
    de0c:	e8bd8010 	pop	{r4, pc}

0000de10 <fat32_dir_attr_str>:
    de10:	e350000f 	cmp	r0, #15, 0
    de14:	0a000063 	beq	dfa8 <fat32_dir_attr_str+0x198>
    de18:	e92d4010 	push	{r4, lr}
    de1c:	e24dd008 	sub	sp, sp, #8, 0
    de20:	e1a04000 	mov	r4, r0
    de24:	e59f3184 	ldr	r3, [pc, #388]	; dfb0 <fat32_dir_attr_str+0x1a0>
    de28:	e3a02000 	mov	r2, #0, 0
    de2c:	e5c32020 	strb	r2, [r3, #32]
    de30:	0a00002a 	beq	dee0 <fat32_dir_attr_str+0xd0>
    de34:	e2003001 	and	r3, r0, #1, 0
    de38:	e3530000 	cmp	r3, #0, 0
    de3c:	1a00002b 	bne	def0 <fat32_dir_attr_str+0xe0>
    de40:	e354000f 	cmp	r4, #15, 0
    de44:	0a00002e 	beq	df04 <fat32_dir_attr_str+0xf4>
    de48:	e3140002 	tst	r4, #2, 0
    de4c:	13a03001 	movne	r3, #1, 0
    de50:	03a03000 	moveq	r3, #0, 0
    de54:	e3530000 	cmp	r3, #0, 0
    de58:	1a00002d 	bne	df14 <fat32_dir_attr_str+0x104>
    de5c:	e2443004 	sub	r3, r4, #4, 0
    de60:	e353001c 	cmp	r3, #28, 0
    de64:	979ff103 	ldrls	pc, [pc, r3, lsl #2]
    de68:	ea000047 	b	df8c <fat32_dir_attr_str+0x17c>
    de6c:	0000df28 	.word	0x0000df28
    de70:	0000df8c 	.word	0x0000df8c
    de74:	0000df8c 	.word	0x0000df8c
    de78:	0000df8c 	.word	0x0000df8c
    de7c:	0000df44 	.word	0x0000df44
    de80:	0000df8c 	.word	0x0000df8c
    de84:	0000df8c 	.word	0x0000df8c
    de88:	0000df8c 	.word	0x0000df8c
    de8c:	0000df8c 	.word	0x0000df8c
    de90:	0000df8c 	.word	0x0000df8c
    de94:	0000df8c 	.word	0x0000df8c
    de98:	0000df8c 	.word	0x0000df8c
    de9c:	0000df5c 	.word	0x0000df5c
    dea0:	0000df8c 	.word	0x0000df8c
    dea4:	0000df8c 	.word	0x0000df8c
    dea8:	0000df8c 	.word	0x0000df8c
    deac:	0000df8c 	.word	0x0000df8c
    deb0:	0000df8c 	.word	0x0000df8c
    deb4:	0000df8c 	.word	0x0000df8c
    deb8:	0000df8c 	.word	0x0000df8c
    debc:	0000df8c 	.word	0x0000df8c
    dec0:	0000df8c 	.word	0x0000df8c
    dec4:	0000df8c 	.word	0x0000df8c
    dec8:	0000df8c 	.word	0x0000df8c
    decc:	0000df8c 	.word	0x0000df8c
    ded0:	0000df8c 	.word	0x0000df8c
    ded4:	0000df8c 	.word	0x0000df8c
    ded8:	0000df8c 	.word	0x0000df8c
    dedc:	0000df74 	.word	0x0000df74
    dee0:	e3500001 	cmp	r0, #1, 0
    dee4:	13a03000 	movne	r3, #0, 0
    dee8:	03a03001 	moveq	r3, #1, 0
    deec:	eaffffd1 	b	de38 <fat32_dir_attr_str+0x28>
    def0:	e59f10bc 	ldr	r1, [pc, #188]	; dfb4 <fat32_dir_attr_str+0x1a4>
    def4:	e59f00bc 	ldr	r0, [pc, #188]	; dfb8 <fat32_dir_attr_str+0x1a8>
    def8:	eb001359 	bl	12c64 <strcat>
    defc:	e3c44001 	bic	r4, r4, #1, 0
    df00:	eaffffce 	b	de40 <fat32_dir_attr_str+0x30>
    df04:	e3540002 	cmp	r4, #2, 0
    df08:	13a03000 	movne	r3, #0, 0
    df0c:	03a03001 	moveq	r3, #1, 0
    df10:	eaffffcf 	b	de54 <fat32_dir_attr_str+0x44>
    df14:	e59f10a0 	ldr	r1, [pc, #160]	; dfbc <fat32_dir_attr_str+0x1ac>
    df18:	e59f0098 	ldr	r0, [pc, #152]	; dfb8 <fat32_dir_attr_str+0x1a8>
    df1c:	eb001350 	bl	12c64 <strcat>
    df20:	e3c44002 	bic	r4, r4, #2, 0
    df24:	eaffffcc 	b	de5c <fat32_dir_attr_str+0x4c>
    df28:	e59f4088 	ldr	r4, [pc, #136]	; dfb8 <fat32_dir_attr_str+0x1a8>
    df2c:	e59f108c 	ldr	r1, [pc, #140]	; dfc0 <fat32_dir_attr_str+0x1b0>
    df30:	e1a00004 	mov	r0, r4
    df34:	eb00134a 	bl	12c64 <strcat>
    df38:	e1a00004 	mov	r0, r4
    df3c:	e28dd008 	add	sp, sp, #8, 0
    df40:	e8bd8010 	pop	{r4, pc}
    df44:	e59f406c 	ldr	r4, [pc, #108]	; dfb8 <fat32_dir_attr_str+0x1a8>
    df48:	e59f1074 	ldr	r1, [pc, #116]	; dfc4 <fat32_dir_attr_str+0x1b4>
    df4c:	e1a00004 	mov	r0, r4
    df50:	eb001343 	bl	12c64 <strcat>
    df54:	e1a00004 	mov	r0, r4
    df58:	eafffff7 	b	df3c <fat32_dir_attr_str+0x12c>
    df5c:	e59f4054 	ldr	r4, [pc, #84]	; dfb8 <fat32_dir_attr_str+0x1a8>
    df60:	e59f1060 	ldr	r1, [pc, #96]	; dfc8 <fat32_dir_attr_str+0x1b8>
    df64:	e1a00004 	mov	r0, r4
    df68:	eb00133d 	bl	12c64 <strcat>
    df6c:	e1a00004 	mov	r0, r4
    df70:	eafffff1 	b	df3c <fat32_dir_attr_str+0x12c>
    df74:	e59f403c 	ldr	r4, [pc, #60]	; dfb8 <fat32_dir_attr_str+0x1a8>
    df78:	e59f104c 	ldr	r1, [pc, #76]	; dfcc <fat32_dir_attr_str+0x1bc>
    df7c:	e1a00004 	mov	r0, r4
    df80:	eb001337 	bl	12c64 <strcat>
    df84:	e1a00004 	mov	r0, r4
    df88:	eaffffeb 	b	df3c <fat32_dir_attr_str+0x12c>
    df8c:	e58d4000 	str	r4, [sp]
    df90:	e3a0309e 	mov	r3, #158, 0	; 0x9e
    df94:	e59f2034 	ldr	r2, [pc, #52]	; dfd0 <fat32_dir_attr_str+0x1c0>
    df98:	e59f1034 	ldr	r1, [pc, #52]	; dfd4 <fat32_dir_attr_str+0x1c4>
    df9c:	e59f0034 	ldr	r0, [pc, #52]	; dfd8 <fat32_dir_attr_str+0x1c8>
    dfa0:	eb00121c 	bl	12818 <printk>
    dfa4:	eb001360 	bl	12d2c <clean_reboot>
    dfa8:	e59f002c 	ldr	r0, [pc, #44]	; dfdc <fat32_dir_attr_str+0x1cc>
    dfac:	e12fff1e 	bx	lr
    dfb0:	0019eed8 	.word	0x0019eed8
    dfb4:	0019c650 	.word	0x0019c650
    dfb8:	0019eef8 	.word	0x0019eef8
    dfbc:	0019c654 	.word	0x0019c654
    dfc0:	0019c65c 	.word	0x0019c65c
    dfc4:	0019c66c 	.word	0x0019c66c
    dfc8:	0019c67c 	.word	0x0019c67c
    dfcc:	0019c684 	.word	0x0019c684
    dfd0:	0019c8b0 	.word	0x0019c8b0
    dfd4:	0019c0b8 	.word	0x0019c0b8
    dfd8:	0019c690 	.word	0x0019c690
    dfdc:	0019c640 	.word	0x0019c640

0000dfe0 <fat32_dirent_name>:
    dfe0:	e92d4010 	push	{r4, lr}
    dfe4:	e1a04001 	mov	r4, r1
    dfe8:	ebfffd54 	bl	d540 <to_8dot3>
    dfec:	e1a01000 	mov	r1, r0
    dff0:	e1a00004 	mov	r0, r4
    dff4:	eb001332 	bl	12cc4 <strcpy>
    dff8:	e8bd8010 	pop	{r4, pc}

0000dffc <fat32_is_valid_name>:
    dffc:	e92d4010 	push	{r4, lr}
    e000:	e1a04000 	mov	r4, r0
    e004:	eb001336 	bl	12ce4 <strlen>
    e008:	e1a0c000 	mov	ip, r0
    e00c:	e1a01000 	mov	r1, r0
    e010:	e3a03000 	mov	r3, #0, 0
    e014:	e1a00003 	mov	r0, r3
    e018:	ea000000 	b	e020 <fat32_is_valid_name+0x24>
    e01c:	e2833001 	add	r3, r3, #1, 0
    e020:	e1530001 	cmp	r3, r1
    e024:	aa000003 	bge	e038 <fat32_is_valid_name+0x3c>
    e028:	e7d42003 	ldrb	r2, [r4, r3]
    e02c:	e352002e 	cmp	r2, #46, 0	; 0x2e
    e030:	03a00001 	moveq	r0, #1, 0
    e034:	eafffff8 	b	e01c <fat32_is_valid_name+0x20>
    e038:	e3500000 	cmp	r0, #0, 0
    e03c:	0a000019 	beq	e0a8 <fat32_is_valid_name+0xac>
    e040:	e35c000c 	cmp	ip, #12, 0
    e044:	ca00002a 	bgt	e0f4 <fat32_is_valid_name+0xf8>
    e048:	e35c0004 	cmp	ip, #4, 0
    e04c:	da00002a 	ble	e0fc <fat32_is_valid_name+0x100>
    e050:	e084c00c 	add	ip, r4, ip
    e054:	e55c3004 	ldrb	r3, [ip, #-4]
    e058:	e353002e 	cmp	r3, #46, 0	; 0x2e
    e05c:	1a000028 	bne	e104 <fat32_is_valid_name+0x108>
    e060:	e3a02000 	mov	r2, #0, 0
    e064:	ea000000 	b	e06c <fat32_is_valid_name+0x70>
    e068:	e2822001 	add	r2, r2, #1, 0
    e06c:	e1520001 	cmp	r2, r1
    e070:	a8bd8010 	popge	{r4, pc}
    e074:	e7d43002 	ldrb	r3, [r4, r2]
    e078:	e243c041 	sub	ip, r3, #65, 0	; 0x41
    e07c:	e6efc07c 	uxtb	ip, ip
    e080:	e2433030 	sub	r3, r3, #48, 0	; 0x30
    e084:	e6ef3073 	uxtb	r3, r3
    e088:	e35c0019 	cmp	ip, #25, 0
    e08c:	83530009 	cmphi	r3, #9, 0
    e090:	9afffff4 	bls	e068 <fat32_is_valid_name+0x6c>
    e094:	e2413004 	sub	r3, r1, #4, 0
    e098:	e1530002 	cmp	r3, r2
    e09c:	0afffff1 	beq	e068 <fat32_is_valid_name+0x6c>
    e0a0:	e3a00000 	mov	r0, #0, 0
    e0a4:	e8bd8010 	pop	{r4, pc}
    e0a8:	e35c0008 	cmp	ip, #8, 0
    e0ac:	c8bd8010 	popgt	{r4, pc}
    e0b0:	e35c0000 	cmp	ip, #0, 0
    e0b4:	d8bd8010 	pople	{r4, pc}
    e0b8:	e1a02000 	mov	r2, r0
    e0bc:	e1520001 	cmp	r2, r1
    e0c0:	aa000009 	bge	e0ec <fat32_is_valid_name+0xf0>
    e0c4:	e7d43002 	ldrb	r3, [r4, r2]
    e0c8:	e243c041 	sub	ip, r3, #65, 0	; 0x41
    e0cc:	e6efc07c 	uxtb	ip, ip
    e0d0:	e2433030 	sub	r3, r3, #48, 0	; 0x30
    e0d4:	e6ef3073 	uxtb	r3, r3
    e0d8:	e35c0019 	cmp	ip, #25, 0
    e0dc:	83530009 	cmphi	r3, #9, 0
    e0e0:	88bd8010 	pophi	{r4, pc}
    e0e4:	e2822001 	add	r2, r2, #1, 0
    e0e8:	eafffff3 	b	e0bc <fat32_is_valid_name+0xc0>
    e0ec:	e3a00001 	mov	r0, #1, 0
    e0f0:	e8bd8010 	pop	{r4, pc}
    e0f4:	e3a00000 	mov	r0, #0, 0
    e0f8:	e8bd8010 	pop	{r4, pc}
    e0fc:	e3a00000 	mov	r0, #0, 0
    e100:	e8bd8010 	pop	{r4, pc}
    e104:	e3a00000 	mov	r0, #0, 0
    e108:	e8bd8010 	pop	{r4, pc}

0000e10c <fat32_dirent_set_name>:
    e10c:	e92d41f0 	push	{r4, r5, r6, r7, r8, lr}
    e110:	e24dd008 	sub	sp, sp, #8, 0
    e114:	e1a07000 	mov	r7, r0
    e118:	e1a04001 	mov	r4, r1
    e11c:	e1a00001 	mov	r0, r1
    e120:	eb0012ef 	bl	12ce4 <strlen>
    e124:	e1a06000 	mov	r6, r0
    e128:	e1a05000 	mov	r5, r0
    e12c:	e1a00004 	mov	r0, r4
    e130:	ebffffb1 	bl	dffc <fat32_is_valid_name>
    e134:	e3500000 	cmp	r0, #0, 0
    e138:	13a03000 	movne	r3, #0, 0
    e13c:	11a08003 	movne	r8, r3
    e140:	1a000008 	bne	e168 <fat32_dirent_set_name+0x5c>
    e144:	e59f308c 	ldr	r3, [pc, #140]	; e1d8 <fat32_dirent_set_name+0xcc>
    e148:	e58d3000 	str	r3, [sp]
    e14c:	e3a030db 	mov	r3, #219, 0	; 0xdb
    e150:	e59f2084 	ldr	r2, [pc, #132]	; e1dc <fat32_dirent_set_name+0xd0>
    e154:	e59f1084 	ldr	r1, [pc, #132]	; e1e0 <fat32_dirent_set_name+0xd4>
    e158:	e59f0084 	ldr	r0, [pc, #132]	; e1e4 <fat32_dirent_set_name+0xd8>
    e15c:	eb0011ad 	bl	12818 <printk>
    e160:	eb0012f1 	bl	12d2c <clean_reboot>
    e164:	e2833001 	add	r3, r3, #1, 0
    e168:	e1530005 	cmp	r3, r5
    e16c:	aa000003 	bge	e180 <fat32_dirent_set_name+0x74>
    e170:	e7d42003 	ldrb	r2, [r4, r3]
    e174:	e352002e 	cmp	r2, #46, 0	; 0x2e
    e178:	03a08001 	moveq	r8, #1, 0
    e17c:	eafffff8 	b	e164 <fat32_dirent_set_name+0x58>
    e180:	e3a0200b 	mov	r2, #11, 0
    e184:	e3a01020 	mov	r1, #32, 0
    e188:	e1a00007 	mov	r0, r7
    e18c:	eb001166 	bl	1272c <memset>
    e190:	e3580000 	cmp	r8, #0, 0
    e194:	0a00000a 	beq	e1c4 <fat32_dirent_set_name+0xb8>
    e198:	e2462004 	sub	r2, r6, #4, 0
    e19c:	e1a01004 	mov	r1, r4
    e1a0:	e1a00007 	mov	r0, r7
    e1a4:	eb001129 	bl	12650 <memcpy>
    e1a8:	e2461003 	sub	r1, r6, #3, 0
    e1ac:	e3a02003 	mov	r2, #3, 0
    e1b0:	e0841001 	add	r1, r4, r1
    e1b4:	e2870008 	add	r0, r7, #8, 0
    e1b8:	eb001124 	bl	12650 <memcpy>
    e1bc:	e28dd008 	add	sp, sp, #8, 0
    e1c0:	e8bd81f0 	pop	{r4, r5, r6, r7, r8, pc}
    e1c4:	e1a02006 	mov	r2, r6
    e1c8:	e1a01004 	mov	r1, r4
    e1cc:	e1a00007 	mov	r0, r7
    e1d0:	eb00111e 	bl	12650 <memcpy>
    e1d4:	eafffff8 	b	e1bc <fat32_dirent_set_name+0xb0>
    e1d8:	0019c6b4 	.word	0x0019c6b4
    e1dc:	0019c8c4 	.word	0x0019c8c4
    e1e0:	0019c0b8 	.word	0x0019c0b8
    e1e4:	0019b6f4 	.word	0x0019b6f4

0000e1e8 <fat32_dirent_print_helper>:
    e1e8:	e92d4070 	push	{r4, r5, r6, lr}
    e1ec:	e1a06000 	mov	r6, r0
    e1f0:	ebfffef9 	bl	dddc <fat32_dirent_free>
    e1f4:	e2504000 	subs	r4, r0, #0, 0
    e1f8:	1a00001c 	bne	e270 <fat32_dirent_print_helper+0x88>
    e1fc:	e5d6500b 	ldrb	r5, [r6, #11]
    e200:	e355000f 	cmp	r5, #15, 0
    e204:	0a00001c 	beq	e27c <fat32_dirent_print_helper+0x94>
    e208:	e355000f 	cmp	r5, #15, 0
    e20c:	0a00001d 	beq	e288 <fat32_dirent_print_helper+0xa0>
    e210:	e1a032a5 	lsr	r3, r5, #5
    e214:	e2033001 	and	r3, r3, #1, 0
    e218:	e3530000 	cmp	r3, #0, 0
    e21c:	1a00001d 	bne	e298 <fat32_dirent_print_helper+0xb0>
    e220:	e355000f 	cmp	r5, #15, 0
    e224:	0a00001e 	beq	e2a4 <fat32_dirent_print_helper+0xbc>
    e228:	e1a03225 	lsr	r3, r5, #4
    e22c:	e2033001 	and	r3, r3, #1, 0
    e230:	e3530000 	cmp	r3, #0, 0
    e234:	0a00001e 	beq	e2b4 <fat32_dirent_print_helper+0xcc>
    e238:	e59f01b0 	ldr	r0, [pc, #432]	; e3f0 <fat32_dirent_print_helper+0x208>
    e23c:	eb001175 	bl	12818 <printk>
    e240:	e1a00006 	mov	r0, r6
    e244:	ebfffce0 	bl	d5cc <add_nul>
    e248:	e1a05000 	mov	r5, r0
    e24c:	e1a00006 	mov	r0, r6
    e250:	ebfffcba 	bl	d540 <to_8dot3>
    e254:	e1a02000 	mov	r2, r0
    e258:	e1a01005 	mov	r1, r5
    e25c:	e59f0190 	ldr	r0, [pc, #400]	; e3f4 <fat32_dirent_print_helper+0x20c>
    e260:	eb00116c 	bl	12818 <printk>
    e264:	e59f018c 	ldr	r0, [pc, #396]	; e3f8 <fat32_dirent_print_helper+0x210>
    e268:	eb00116a 	bl	12818 <printk>
    e26c:	ea00002b 	b	e320 <fat32_dirent_print_helper+0x138>
    e270:	e59f0184 	ldr	r0, [pc, #388]	; e3fc <fat32_dirent_print_helper+0x214>
    e274:	eb001167 	bl	12818 <printk>
    e278:	e8bd8070 	pop	{r4, r5, r6, pc}
    e27c:	e59f017c 	ldr	r0, [pc, #380]	; e400 <fat32_dirent_print_helper+0x218>
    e280:	eb001164 	bl	12818 <printk>
    e284:	e8bd8070 	pop	{r4, r5, r6, pc}
    e288:	e3550020 	cmp	r5, #32, 0
    e28c:	13a03000 	movne	r3, #0, 0
    e290:	03a03001 	moveq	r3, #1, 0
    e294:	eaffffdf 	b	e218 <fat32_dirent_print_helper+0x30>
    e298:	e59f0164 	ldr	r0, [pc, #356]	; e404 <fat32_dirent_print_helper+0x21c>
    e29c:	eb00115d 	bl	12818 <printk>
    e2a0:	eaffffe4 	b	e238 <fat32_dirent_print_helper+0x50>
    e2a4:	e3550010 	cmp	r5, #16, 0
    e2a8:	13a03000 	movne	r3, #0, 0
    e2ac:	03a03001 	moveq	r3, #1, 0
    e2b0:	eaffffde 	b	e230 <fat32_dirent_print_helper+0x48>
    e2b4:	e1a00005 	mov	r0, r5
    e2b8:	ebfffed4 	bl	de10 <fat32_dir_attr_str>
    e2bc:	e1a02000 	mov	r2, r0
    e2c0:	e1a01005 	mov	r1, r5
    e2c4:	e59f013c 	ldr	r0, [pc, #316]	; e408 <fat32_dirent_print_helper+0x220>
    e2c8:	eb001152 	bl	12818 <printk>
    e2cc:	e5d6300b 	ldrb	r3, [r6, #11]
    e2d0:	e353000f 	cmp	r3, #15, 0
    e2d4:	0a000004 	beq	e2ec <fat32_dirent_print_helper+0x104>
    e2d8:	e1a032a3 	lsr	r3, r3, #5
    e2dc:	e2033001 	and	r3, r3, #1, 0
    e2e0:	e3530000 	cmp	r3, #0, 0
    e2e4:	0affffd3 	beq	e238 <fat32_dirent_print_helper+0x50>
    e2e8:	e8bd8070 	pop	{r4, r5, r6, pc}
    e2ec:	e3530020 	cmp	r3, #32, 0
    e2f0:	13a03000 	movne	r3, #0, 0
    e2f4:	03a03001 	moveq	r3, #1, 0
    e2f8:	eafffff8 	b	e2e0 <fat32_dirent_print_helper+0xf8>
    e2fc:	e59f00ec 	ldr	r0, [pc, #236]	; e3f0 <fat32_dirent_print_helper+0x208>
    e300:	eb001144 	bl	12818 <printk>
    e304:	e59f0100 	ldr	r0, [pc, #256]	; e40c <fat32_dirent_print_helper+0x224>
    e308:	eb001142 	bl	12818 <printk>
    e30c:	e7d61004 	ldrb	r1, [r6, r4]
    e310:	e1a02001 	mov	r2, r1
    e314:	e59f00f4 	ldr	r0, [pc, #244]	; e410 <fat32_dirent_print_helper+0x228>
    e318:	eb00113e 	bl	12818 <printk>
    e31c:	e2844001 	add	r4, r4, #1, 0
    e320:	e354000a 	cmp	r4, #10, 0
    e324:	8a000002 	bhi	e334 <fat32_dirent_print_helper+0x14c>
    e328:	e3540008 	cmp	r4, #8, 0
    e32c:	1afffff6 	bne	e30c <fat32_dirent_print_helper+0x124>
    e330:	eafffff1 	b	e2fc <fat32_dirent_print_helper+0x114>
    e334:	e59f00d8 	ldr	r0, [pc, #216]	; e414 <fat32_dirent_print_helper+0x22c>
    e338:	eb001136 	bl	12818 <printk>
    e33c:	e5d6100b 	ldrb	r1, [r6, #11]
    e340:	e59f00d0 	ldr	r0, [pc, #208]	; e418 <fat32_dirent_print_helper+0x230>
    e344:	eb001133 	bl	12818 <printk>
    e348:	e5d6300b 	ldrb	r3, [r6, #11]
    e34c:	e353000f 	cmp	r3, #15, 0
    e350:	0a000009 	beq	e37c <fat32_dirent_print_helper+0x194>
    e354:	e3130001 	tst	r3, #1, 0
    e358:	1a00001b 	bne	e3cc <fat32_dirent_print_helper+0x1e4>
    e35c:	e5d6300b 	ldrb	r3, [r6, #11]
    e360:	e3130002 	tst	r3, #2, 0
    e364:	1a00001b 	bne	e3d8 <fat32_dirent_print_helper+0x1f0>
    e368:	e5d6300b 	ldrb	r3, [r6, #11]
    e36c:	e3130004 	tst	r3, #4, 0
    e370:	1a00001b 	bne	e3e4 <fat32_dirent_print_helper+0x1fc>
    e374:	e59f0074 	ldr	r0, [pc, #116]	; e3f0 <fat32_dirent_print_helper+0x208>
    e378:	eb001126 	bl	12818 <printk>
    e37c:	e5d63014 	ldrb	r3, [r6, #20]
    e380:	e5d61015 	ldrb	r1, [r6, #21]
    e384:	e1831401 	orr	r1, r3, r1, lsl #8
    e388:	e59f008c 	ldr	r0, [pc, #140]	; e41c <fat32_dirent_print_helper+0x234>
    e38c:	eb001121 	bl	12818 <printk>
    e390:	e5d6301a 	ldrb	r3, [r6, #26]
    e394:	e5d6101b 	ldrb	r1, [r6, #27]
    e398:	e1831401 	orr	r1, r3, r1, lsl #8
    e39c:	e59f007c 	ldr	r0, [pc, #124]	; e420 <fat32_dirent_print_helper+0x238>
    e3a0:	eb00111c 	bl	12818 <printk>
    e3a4:	e5d6301c 	ldrb	r3, [r6, #28]
    e3a8:	e5d6101d 	ldrb	r1, [r6, #29]
    e3ac:	e1833401 	orr	r3, r3, r1, lsl #8
    e3b0:	e5d6101e 	ldrb	r1, [r6, #30]
    e3b4:	e1833801 	orr	r3, r3, r1, lsl #16
    e3b8:	e5d6101f 	ldrb	r1, [r6, #31]
    e3bc:	e1831c01 	orr	r1, r3, r1, lsl #24
    e3c0:	e59f005c 	ldr	r0, [pc, #92]	; e424 <fat32_dirent_print_helper+0x23c>
    e3c4:	eb001113 	bl	12818 <printk>
    e3c8:	e8bd8070 	pop	{r4, r5, r6, pc}
    e3cc:	e59f0054 	ldr	r0, [pc, #84]	; e428 <fat32_dirent_print_helper+0x240>
    e3d0:	eb001110 	bl	12818 <printk>
    e3d4:	eaffffe0 	b	e35c <fat32_dirent_print_helper+0x174>
    e3d8:	e59f004c 	ldr	r0, [pc, #76]	; e42c <fat32_dirent_print_helper+0x244>
    e3dc:	eb00110d 	bl	12818 <printk>
    e3e0:	eaffffe0 	b	e368 <fat32_dirent_print_helper+0x180>
    e3e4:	e59f0044 	ldr	r0, [pc, #68]	; e430 <fat32_dirent_print_helper+0x248>
    e3e8:	eb00110a 	bl	12818 <printk>
    e3ec:	eaffffe0 	b	e374 <fat32_dirent_print_helper+0x18c>
    e3f0:	0019b824 	.word	0x0019b824
    e3f4:	0019c748 	.word	0x0019c748
    e3f8:	0019c76c 	.word	0x0019c76c
    e3fc:	0019c6d0 	.word	0x0019c6d0
    e400:	0019c6ec 	.word	0x0019c6ec
    e404:	0019c700 	.word	0x0019c700
    e408:	0019c728 	.word	0x0019c728
    e40c:	0019c780 	.word	0x0019c780
    e410:	0019c788 	.word	0x0019c788
    e414:	0019c794 	.word	0x0019c794
    e418:	0019c798 	.word	0x0019c798
    e41c:	0019c7e4 	.word	0x0019c7e4
    e420:	0019c7fc 	.word	0x0019c7fc
    e424:	0019c814 	.word	0x0019c814
    e428:	0019c7ac 	.word	0x0019c7ac
    e42c:	0019c7bc 	.word	0x0019c7bc
    e430:	0019c7c8 	.word	0x0019c7c8

0000e434 <fat32_dirent_print>:
    e434:	e92d4010 	push	{r4, lr}
    e438:	e1a04001 	mov	r4, r1
    e43c:	e1a01000 	mov	r1, r0
    e440:	e59f000c 	ldr	r0, [pc, #12]	; e454 <fat32_dirent_print+0x20>
    e444:	eb0010f3 	bl	12818 <printk>
    e448:	e1a00004 	mov	r0, r4
    e44c:	ebffff65 	bl	e1e8 <fat32_dirent_print_helper>
    e450:	e8bd8010 	pop	{r4, pc}
    e454:	0019c82c 	.word	0x0019c82c

0000e458 <fat32_dir_lookup>:
    e458:	e92d41f0 	push	{r4, r5, r6, r7, r8, lr}
    e45c:	e1a08000 	mov	r8, r0
    e460:	e1a07001 	mov	r7, r1
    e464:	e1a06002 	mov	r6, r2
    e468:	e3a04000 	mov	r4, #0, 0
    e46c:	ea000000 	b	e474 <fat32_dir_lookup+0x1c>
    e470:	e2844001 	add	r4, r4, #1, 0
    e474:	e1540006 	cmp	r4, r6
    e478:	2a00000e 	bcs	e4b8 <fat32_dir_lookup+0x60>
    e47c:	e0875284 	add	r5, r7, r4, lsl #5
    e480:	e1a00005 	mov	r0, r5
    e484:	ebfffe54 	bl	dddc <fat32_dirent_free>
    e488:	e3500000 	cmp	r0, #0, 0
    e48c:	1afffff7 	bne	e470 <fat32_dir_lookup+0x18>
    e490:	e5d5300b 	ldrb	r3, [r5, #11]
    e494:	e353000f 	cmp	r3, #15, 0
    e498:	0afffff4 	beq	e470 <fat32_dir_lookup+0x18>
    e49c:	e3a0200b 	mov	r2, #11, 0
    e4a0:	e1a01005 	mov	r1, r5
    e4a4:	e1a00008 	mov	r0, r8
    e4a8:	eb00103d 	bl	125a4 <memcmp>
    e4ac:	e3500000 	cmp	r0, #0, 0
    e4b0:	1affffee 	bne	e470 <fat32_dir_lookup+0x18>
    e4b4:	ea000000 	b	e4bc <fat32_dir_lookup+0x64>
    e4b8:	e3e04000 	mvn	r4, #0, 0
    e4bc:	e1a00004 	mov	r0, r4
    e4c0:	e8bd81f0 	pop	{r4, r5, r6, r7, r8, pc}

0000e4c4 <print_as_string>:
    e4c4:	e92d4070 	push	{r4, r5, r6, lr}
    e4c8:	e1a06001 	mov	r6, r1
    e4cc:	e1a05002 	mov	r5, r2
    e4d0:	e1a01000 	mov	r1, r0
    e4d4:	e59f002c 	ldr	r0, [pc, #44]	; e508 <print_as_string+0x44>
    e4d8:	eb0010ce 	bl	12818 <printk>
    e4dc:	e3a04000 	mov	r4, #0, 0
    e4e0:	e1540005 	cmp	r4, r5
    e4e4:	aa000004 	bge	e4fc <print_as_string+0x38>
    e4e8:	e7d61004 	ldrb	r1, [r6, r4]
    e4ec:	e59f0018 	ldr	r0, [pc, #24]	; e50c <print_as_string+0x48>
    e4f0:	eb0010c8 	bl	12818 <printk>
    e4f4:	e2844001 	add	r4, r4, #1, 0
    e4f8:	eafffff8 	b	e4e0 <print_as_string+0x1c>
    e4fc:	e59f000c 	ldr	r0, [pc, #12]	; e510 <print_as_string+0x4c>
    e500:	eb0010c4 	bl	12818 <printk>
    e504:	e8bd8070 	pop	{r4, r5, r6, pc}
    e508:	0019c834 	.word	0x0019c834
    e50c:	0019c838 	.word	0x0019c838
    e510:	0019b824 	.word	0x0019b824

0000e514 <print_bytes>:
    e514:	e92d41f0 	push	{r4, r5, r6, r7, r8, lr}
    e518:	e1a07001 	mov	r7, r1
    e51c:	e1a06002 	mov	r6, r2
    e520:	e1a01000 	mov	r1, r0
    e524:	e59f0044 	ldr	r0, [pc, #68]	; e570 <print_bytes+0x5c>
    e528:	eb0010ba 	bl	12818 <printk>
    e52c:	e3a04000 	mov	r4, #0, 0
    e530:	ea000005 	b	e54c <print_bytes+0x38>
    e534:	e59f0038 	ldr	r0, [pc, #56]	; e574 <print_bytes+0x60>
    e538:	eb0010b6 	bl	12818 <printk>
    e53c:	e7d71005 	ldrb	r1, [r7, r5]
    e540:	e59f0030 	ldr	r0, [pc, #48]	; e578 <print_bytes+0x64>
    e544:	eb0010b3 	bl	12818 <printk>
    e548:	e2844001 	add	r4, r4, #1, 0
    e54c:	e1540006 	cmp	r4, r6
    e550:	aa000003 	bge	e564 <print_bytes+0x50>
    e554:	e1a05004 	mov	r5, r4
    e558:	e314000f 	tst	r4, #15, 0
    e55c:	1afffff6 	bne	e53c <print_bytes+0x28>
    e560:	eafffff3 	b	e534 <print_bytes+0x20>
    e564:	e59f0010 	ldr	r0, [pc, #16]	; e57c <print_bytes+0x68>
    e568:	eb0010aa 	bl	12818 <printk>
    e56c:	e8bd81f0 	pop	{r4, r5, r6, r7, r8, pc}
    e570:	0019c834 	.word	0x0019c834
    e574:	0019c83c 	.word	0x0019c83c
    e578:	0019c840 	.word	0x0019c840
    e57c:	0019b824 	.word	0x0019b824

0000e580 <print_words>:
    e580:	e92d41f0 	push	{r4, r5, r6, r7, r8, lr}
    e584:	e1a07001 	mov	r7, r1
    e588:	e1a06002 	mov	r6, r2
    e58c:	e1a01000 	mov	r1, r0
    e590:	e59f0044 	ldr	r0, [pc, #68]	; e5dc <print_words+0x5c>
    e594:	eb00109f 	bl	12818 <printk>
    e598:	e3a04000 	mov	r4, #0, 0
    e59c:	ea000005 	b	e5b8 <print_words+0x38>
    e5a0:	e59f0038 	ldr	r0, [pc, #56]	; e5e0 <print_words+0x60>
    e5a4:	eb00109b 	bl	12818 <printk>
    e5a8:	e7971105 	ldr	r1, [r7, r5, lsl #2]
    e5ac:	e59f0030 	ldr	r0, [pc, #48]	; e5e4 <print_words+0x64>
    e5b0:	eb001098 	bl	12818 <printk>
    e5b4:	e2844001 	add	r4, r4, #1, 0
    e5b8:	e1540006 	cmp	r4, r6
    e5bc:	aa000003 	bge	e5d0 <print_words+0x50>
    e5c0:	e1a05004 	mov	r5, r4
    e5c4:	e314000f 	tst	r4, #15, 0
    e5c8:	1afffff6 	bne	e5a8 <print_words+0x28>
    e5cc:	eafffff3 	b	e5a0 <print_words+0x20>
    e5d0:	e59f0010 	ldr	r0, [pc, #16]	; e5e8 <print_words+0x68>
    e5d4:	eb00108f 	bl	12818 <printk>
    e5d8:	e8bd81f0 	pop	{r4, r5, r6, r7, r8, pc}
    e5dc:	0019c834 	.word	0x0019c834
    e5e0:	0019c83c 	.word	0x0019c83c
    e5e4:	0019c848 	.word	0x0019c848
    e5e8:	0019b824 	.word	0x0019b824

0000e5ec <utf8_append>:
    e5ec:	e92d41f0 	push	{r4, r5, r6, r7, r8, lr}
    e5f0:	e24dd008 	sub	sp, sp, #8, 0
    e5f4:	e3120001 	tst	r2, #1, 0
    e5f8:	1a000004 	bne	e610 <utf8_append+0x24>
    e5fc:	e1a07000 	mov	r7, r0
    e600:	e1a06001 	mov	r6, r1
    e604:	e1a08002 	mov	r8, r2
    e608:	e3a04000 	mov	r4, #0, 0
    e60c:	ea000015 	b	e668 <utf8_append+0x7c>
    e610:	e59f3094 	ldr	r3, [pc, #148]	; e6ac <utf8_append+0xc0>
    e614:	e58d3000 	str	r3, [sp]
    e618:	e3a03044 	mov	r3, #68, 0	; 0x44
    e61c:	e59f208c 	ldr	r2, [pc, #140]	; e6b0 <utf8_append+0xc4>
    e620:	e59f108c 	ldr	r1, [pc, #140]	; e6b4 <utf8_append+0xc8>
    e624:	e59f008c 	ldr	r0, [pc, #140]	; e6b8 <utf8_append+0xcc>
    e628:	eb00107a 	bl	12818 <printk>
    e62c:	eb0011be 	bl	12d2c <clean_reboot>
    e630:	e35300ff 	cmp	r3, #255, 0	; 0xff
    e634:	0a000018 	beq	e69c <utf8_append+0xb0>
    e638:	e0861001 	add	r1, r6, r1
    e63c:	e5d10001 	ldrb	r0, [r1, #1]
    e640:	e1830400 	orr	r0, r3, r0, lsl #8
    e644:	eb000230 	bl	ef0c <to_utf8>
    e648:	e1a05000 	mov	r5, r0
    e64c:	e1a01000 	mov	r1, r0
    e650:	e1a00007 	mov	r0, r7
    e654:	eb001182 	bl	12c64 <strcat>
    e658:	e1a00005 	mov	r0, r5
    e65c:	eb0011a0 	bl	12ce4 <strlen>
    e660:	e0877000 	add	r7, r7, r0
    e664:	e2844002 	add	r4, r4, #2, 0
    e668:	e1a01004 	mov	r1, r4
    e66c:	e1540008 	cmp	r4, r8
    e670:	2a000006 	bcs	e690 <utf8_append+0xa4>
    e674:	e0862004 	add	r2, r6, r4
    e678:	e7d63004 	ldrb	r3, [r6, r4]
    e67c:	e3530000 	cmp	r3, #0, 0
    e680:	1affffea 	bne	e630 <utf8_append+0x44>
    e684:	e5d20001 	ldrb	r0, [r2, #1]
    e688:	e3500000 	cmp	r0, #0, 0
    e68c:	1affffe7 	bne	e630 <utf8_append+0x44>
    e690:	e1a00007 	mov	r0, r7
    e694:	e28dd008 	add	sp, sp, #8, 0
    e698:	e8bd81f0 	pop	{r4, r5, r6, r7, r8, pc}
    e69c:	e5d22001 	ldrb	r2, [r2, #1]
    e6a0:	e35200ff 	cmp	r2, #255, 0	; 0xff
    e6a4:	1affffe3 	bne	e638 <utf8_append+0x4c>
    e6a8:	eafffff8 	b	e690 <utf8_append+0xa4>
    e6ac:	0019c914 	.word	0x0019c914
    e6b0:	0019cb94 	.word	0x0019cb94
    e6b4:	0019c8dc 	.word	0x0019c8dc
    e6b8:	0019b6f4 	.word	0x0019b6f4

0000e6bc <is_attr>:
    e6bc:	e350000f 	cmp	r0, #15, 0
    e6c0:	0a000003 	beq	e6d4 <is_attr+0x18>
    e6c4:	e1d13000 	bics	r3, r1, r0
    e6c8:	03a00001 	moveq	r0, #1, 0
    e6cc:	13a00000 	movne	r0, #0, 0
    e6d0:	e12fff1e 	bx	lr
    e6d4:	e1500001 	cmp	r0, r1
    e6d8:	13a00000 	movne	r0, #0, 0
    e6dc:	03a00001 	moveq	r0, #1, 0
    e6e0:	e12fff1e 	bx	lr

0000e6e4 <lfn_checksum>:
    e6e4:	e1a03000 	mov	r3, r0
    e6e8:	e3a0100b 	mov	r1, #11, 0
    e6ec:	e3a00000 	mov	r0, #0, 0
    e6f0:	ea000005 	b	e70c <lfn_checksum+0x28>
    e6f4:	e1a020a0 	lsr	r2, r0, #1
    e6f8:	e0820380 	add	r0, r2, r0, lsl #7
    e6fc:	e4d32001 	ldrb	r2, [r3], #1
    e700:	e6e20070 	uxtab	r0, r2, r0
    e704:	e6ef0070 	uxtb	r0, r0
    e708:	e2411001 	sub	r1, r1, #1, 0
    e70c:	e3510000 	cmp	r1, #0, 0
    e710:	1afffff7 	bne	e6f4 <lfn_checksum+0x10>
    e714:	e12fff1e 	bx	lr

0000e718 <lfn_is_last>:
    e718:	e1a00320 	lsr	r0, r0, #6
    e71c:	e2000001 	and	r0, r0, #1, 0
    e720:	e12fff1e 	bx	lr

0000e724 <lfn_is_first>:
    e724:	e20000bf 	and	r0, r0, #191, 0	; 0xbf
    e728:	e3500001 	cmp	r0, #1, 0
    e72c:	13a00000 	movne	r0, #0, 0
    e730:	03a00001 	moveq	r0, #1, 0
    e734:	e12fff1e 	bx	lr

0000e738 <lfn_is_deleted>:
    e738:	e20000e5 	and	r0, r0, #229, 0	; 0xe5
    e73c:	e35000e5 	cmp	r0, #229, 0	; 0xe5
    e740:	13a00000 	movne	r0, #0, 0
    e744:	03a00001 	moveq	r0, #1, 0
    e748:	e12fff1e 	bx	lr

0000e74c <fat32_dirent_is_deleted_lfn>:
    e74c:	e52de004 	push	{lr}		; (str lr, [sp, #-4]!)
    e750:	e24dd00c 	sub	sp, sp, #12, 0
    e754:	e5d0300b 	ldrb	r3, [r0, #11]
    e758:	e353000f 	cmp	r3, #15, 0
    e75c:	1a000003 	bne	e770 <fat32_dirent_is_deleted_lfn+0x24>
    e760:	e5d00000 	ldrb	r0, [r0]
    e764:	ebfffff3 	bl	e738 <lfn_is_deleted>
    e768:	e28dd00c 	add	sp, sp, #12, 0
    e76c:	e49df004 	pop	{pc}		; (ldr pc, [sp], #4)
    e770:	e59f3018 	ldr	r3, [pc, #24]	; e790 <fat32_dirent_is_deleted_lfn+0x44>
    e774:	e58d3000 	str	r3, [sp]
    e778:	e3a03021 	mov	r3, #33, 0	; 0x21
    e77c:	e59f2010 	ldr	r2, [pc, #16]	; e794 <fat32_dirent_is_deleted_lfn+0x48>
    e780:	e59f1010 	ldr	r1, [pc, #16]	; e798 <fat32_dirent_is_deleted_lfn+0x4c>
    e784:	e59f0010 	ldr	r0, [pc, #16]	; e79c <fat32_dirent_is_deleted_lfn+0x50>
    e788:	eb001022 	bl	12818 <printk>
    e78c:	eb001166 	bl	12d2c <clean_reboot>
    e790:	0019c924 	.word	0x0019c924
    e794:	0019cba0 	.word	0x0019cba0
    e798:	0019c8dc 	.word	0x0019c8dc
    e79c:	0019b6f4 	.word	0x0019b6f4

0000e7a0 <lfn_print_ent>:
    e7a0:	e92d43f0 	push	{r4, r5, r6, r7, r8, r9, lr}
    e7a4:	e24dd02c 	sub	sp, sp, #44, 0	; 0x2c
    e7a8:	e1a05000 	mov	r5, r0
    e7ac:	e1a06001 	mov	r6, r1
    e7b0:	e1a07000 	mov	r7, r0
    e7b4:	e4d74001 	ldrb	r4, [r7], #1
    e7b8:	e1a00004 	mov	r0, r4
    e7bc:	ebffffd8 	bl	e724 <lfn_is_first>
    e7c0:	e1a08000 	mov	r8, r0
    e7c4:	e1a00004 	mov	r0, r4
    e7c8:	ebffffd2 	bl	e718 <lfn_is_last>
    e7cc:	e1a09000 	mov	r9, r0
    e7d0:	e1a00004 	mov	r0, r4
    e7d4:	ebffffd7 	bl	e738 <lfn_is_deleted>
    e7d8:	e58d0000 	str	r0, [sp]
    e7dc:	e1a03009 	mov	r3, r9
    e7e0:	e1a02008 	mov	r2, r8
    e7e4:	e1a01004 	mov	r1, r4
    e7e8:	e59f009c 	ldr	r0, [pc, #156]	; e88c <lfn_print_ent+0xec>
    e7ec:	eb001009 	bl	12818 <printk>
    e7f0:	e3a0200a 	mov	r2, #10, 0
    e7f4:	e1a01007 	mov	r1, r7
    e7f8:	e28d000c 	add	r0, sp, #12, 0
    e7fc:	eb000f93 	bl	12650 <memcpy>
    e800:	e3a0200c 	mov	r2, #12, 0
    e804:	e285100e 	add	r1, r5, #14, 0
    e808:	e28d0016 	add	r0, sp, #22, 0
    e80c:	eb000f8f 	bl	12650 <memcpy>
    e810:	e3a02004 	mov	r2, #4, 0
    e814:	e285101c 	add	r1, r5, #28, 0
    e818:	e28d0022 	add	r0, sp, #34, 0	; 0x22
    e81c:	eb000f8b 	bl	12650 <memcpy>
    e820:	e3a04000 	mov	r4, #0, 0
    e824:	e5cd4026 	strb	r4, [sp, #38]	; 0x26
    e828:	ea000004 	b	e840 <lfn_print_ent+0xa0>
    e82c:	e1a03002 	mov	r3, r2
    e830:	e1a01004 	mov	r1, r4
    e834:	e59f0054 	ldr	r0, [pc, #84]	; e890 <lfn_print_ent+0xf0>
    e838:	eb000ff6 	bl	12818 <printk>
    e83c:	e2844002 	add	r4, r4, #2, 0
    e840:	e3540019 	cmp	r4, #25, 0
    e844:	ca00000a 	bgt	e874 <lfn_print_ent+0xd4>
    e848:	e28d3028 	add	r3, sp, #40, 0	; 0x28
    e84c:	e0833004 	add	r3, r3, r4
    e850:	e553201c 	ldrb	r2, [r3, #-28]	; 0xffffffe4
    e854:	e3520000 	cmp	r2, #0, 0
    e858:	1afffff3 	bne	e82c <lfn_print_ent+0x8c>
    e85c:	e2843001 	add	r3, r4, #1, 0
    e860:	e28d1028 	add	r1, sp, #40, 0	; 0x28
    e864:	e0813003 	add	r3, r1, r3
    e868:	e553301c 	ldrb	r3, [r3, #-28]	; 0xffffffe4
    e86c:	e3530000 	cmp	r3, #0, 0
    e870:	1affffed 	bne	e82c <lfn_print_ent+0x8c>
    e874:	e1a02006 	mov	r2, r6
    e878:	e5d5100d 	ldrb	r1, [r5, #13]
    e87c:	e59f0010 	ldr	r0, [pc, #16]	; e894 <lfn_print_ent+0xf4>
    e880:	eb000fe4 	bl	12818 <printk>
    e884:	e28dd02c 	add	sp, sp, #44, 0	; 0x2c
    e888:	e8bd83f0 	pop	{r4, r5, r6, r7, r8, r9, pc}
    e88c:	0019c944 	.word	0x0019c944
    e890:	0019c970 	.word	0x0019c970
    e894:	0019c988 	.word	0x0019c988

0000e898 <lfn_get_name>:
    e898:	e92d4070 	push	{r4, r5, r6, lr}
    e89c:	e24dd008 	sub	sp, sp, #8, 0
    e8a0:	e1a06000 	mov	r6, r0
    e8a4:	e59f0080 	ldr	r0, [pc, #128]	; e92c <lfn_get_name+0x94>
    e8a8:	e3a03000 	mov	r3, #0, 0
    e8ac:	e5c03000 	strb	r3, [r0]
    e8b0:	e2415001 	sub	r5, r1, #1, 0
    e8b4:	e3550000 	cmp	r5, #0, 0
    e8b8:	ba000016 	blt	e918 <lfn_get_name+0x80>
    e8bc:	e0864285 	add	r4, r6, r5, lsl #5
    e8c0:	e5d4300b 	ldrb	r3, [r4, #11]
    e8c4:	e353000f 	cmp	r3, #15, 0
    e8c8:	1a00000a 	bne	e8f8 <lfn_get_name+0x60>
    e8cc:	e3a0200a 	mov	r2, #10, 0
    e8d0:	e2841001 	add	r1, r4, #1, 0
    e8d4:	ebffff44 	bl	e5ec <utf8_append>
    e8d8:	e3a0200c 	mov	r2, #12, 0
    e8dc:	e284100e 	add	r1, r4, #14, 0
    e8e0:	ebffff41 	bl	e5ec <utf8_append>
    e8e4:	e3a02004 	mov	r2, #4, 0
    e8e8:	e284101c 	add	r1, r4, #28, 0
    e8ec:	ebffff3e 	bl	e5ec <utf8_append>
    e8f0:	e2455001 	sub	r5, r5, #1, 0
    e8f4:	eaffffee 	b	e8b4 <lfn_get_name+0x1c>
    e8f8:	e59f3030 	ldr	r3, [pc, #48]	; e930 <lfn_get_name+0x98>
    e8fc:	e58d3000 	str	r3, [sp]
    e900:	e3a03055 	mov	r3, #85, 0	; 0x55
    e904:	e59f2028 	ldr	r2, [pc, #40]	; e934 <lfn_get_name+0x9c>
    e908:	e59f1028 	ldr	r1, [pc, #40]	; e938 <lfn_get_name+0xa0>
    e90c:	e59f0028 	ldr	r0, [pc, #40]	; e93c <lfn_get_name+0xa4>
    e910:	eb000fc0 	bl	12818 <printk>
    e914:	eb001104 	bl	12d2c <clean_reboot>
    e918:	e3a03000 	mov	r3, #0, 0
    e91c:	e5c03000 	strb	r3, [r0]
    e920:	e59f0004 	ldr	r0, [pc, #4]	; e92c <lfn_get_name+0x94>
    e924:	e28dd008 	add	sp, sp, #8, 0
    e928:	e8bd8070 	pop	{r4, r5, r6, pc}
    e92c:	0019ef78 	.word	0x0019ef78
    e930:	0019c9a4 	.word	0x0019c9a4
    e934:	0019cbbc 	.word	0x0019cbbc
    e938:	0019c8dc 	.word	0x0019c8dc
    e93c:	0019b6f4 	.word	0x0019b6f4

0000e940 <lfn_print>:
    e940:	e92d43f0 	push	{r4, r5, r6, r7, r8, r9, lr}
    e944:	e24dd00c 	sub	sp, sp, #12, 0
    e948:	e2518000 	subs	r8, r1, #0, 0
    e94c:	da000007 	ble	e970 <lfn_print+0x30>
    e950:	e1a06000 	mov	r6, r0
    e954:	e1a07002 	mov	r7, r2
    e958:	e1a09003 	mov	r9, r3
    e95c:	e2483001 	sub	r3, r8, #1, 0
    e960:	e3530001 	cmp	r3, #1, 0
    e964:	8a000009 	bhi	e990 <lfn_print+0x50>
    e968:	e3a04000 	mov	r4, #0, 0
    e96c:	ea000021 	b	e9f8 <lfn_print+0xb8>
    e970:	e59f3134 	ldr	r3, [pc, #308]	; eaac <lfn_print+0x16c>
    e974:	e58d3000 	str	r3, [sp]
    e978:	e3a0305f 	mov	r3, #95, 0	; 0x5f
    e97c:	e59f212c 	ldr	r2, [pc, #300]	; eab0 <lfn_print+0x170>
    e980:	e59f112c 	ldr	r1, [pc, #300]	; eab4 <lfn_print+0x174>
    e984:	e59f012c 	ldr	r0, [pc, #300]	; eab8 <lfn_print+0x178>
    e988:	eb000fa2 	bl	12818 <printk>
    e98c:	eb0010e6 	bl	12d2c <clean_reboot>
    e990:	e59f3124 	ldr	r3, [pc, #292]	; eabc <lfn_print+0x17c>
    e994:	e58d3000 	str	r3, [sp]
    e998:	e3a03062 	mov	r3, #98, 0	; 0x62
    e99c:	e59f210c 	ldr	r2, [pc, #268]	; eab0 <lfn_print+0x170>
    e9a0:	e59f110c 	ldr	r1, [pc, #268]	; eab4 <lfn_print+0x174>
    e9a4:	e59f0114 	ldr	r0, [pc, #276]	; eac0 <lfn_print+0x180>
    e9a8:	eb000f9a 	bl	12818 <printk>
    e9ac:	eb0010de 	bl	12d2c <clean_reboot>
    e9b0:	e59f310c 	ldr	r3, [pc, #268]	; eac4 <lfn_print+0x184>
    e9b4:	e58d3000 	str	r3, [sp]
    e9b8:	e3a03064 	mov	r3, #100, 0	; 0x64
    e9bc:	e59f20ec 	ldr	r2, [pc, #236]	; eab0 <lfn_print+0x170>
    e9c0:	e59f10ec 	ldr	r1, [pc, #236]	; eab4 <lfn_print+0x174>
    e9c4:	e59f00ec 	ldr	r0, [pc, #236]	; eab8 <lfn_print+0x178>
    e9c8:	eb000f92 	bl	12818 <printk>
    e9cc:	eb0010d6 	bl	12d2c <clean_reboot>
    e9d0:	e1a01004 	mov	r1, r4
    e9d4:	e59f00ec 	ldr	r0, [pc, #236]	; eac8 <lfn_print+0x188>
    e9d8:	eb000f8e 	bl	12818 <printk>
    e9dc:	e1a01007 	mov	r1, r7
    e9e0:	e1a00005 	mov	r0, r5
    e9e4:	ebffff6d 	bl	e7a0 <lfn_print_ent>
    e9e8:	e5d5000d 	ldrb	r0, [r5, #13]
    e9ec:	e1500007 	cmp	r0, r7
    e9f0:	1a00000a 	bne	ea20 <lfn_print+0xe0>
    e9f4:	e2844001 	add	r4, r4, #1, 0
    e9f8:	e1540008 	cmp	r4, r8
    e9fc:	aa00000f 	bge	ea40 <lfn_print+0x100>
    ea00:	e0865284 	add	r5, r6, r4, lsl #5
    ea04:	e7d60284 	ldrb	r0, [r6, r4, lsl #5]
    ea08:	ebffff4a 	bl	e738 <lfn_is_deleted>
    ea0c:	e3500000 	cmp	r0, #0, 0
    ea10:	1affffe6 	bne	e9b0 <lfn_print+0x70>
    ea14:	e3590000 	cmp	r9, #0, 0
    ea18:	0afffff2 	beq	e9e8 <lfn_print+0xa8>
    ea1c:	eaffffeb 	b	e9d0 <lfn_print+0x90>
    ea20:	e59f30a4 	ldr	r3, [pc, #164]	; eacc <lfn_print+0x18c>
    ea24:	e58d3000 	str	r3, [sp]
    ea28:	e3a03069 	mov	r3, #105, 0	; 0x69
    ea2c:	e59f207c 	ldr	r2, [pc, #124]	; eab0 <lfn_print+0x170>
    ea30:	e59f107c 	ldr	r1, [pc, #124]	; eab4 <lfn_print+0x174>
    ea34:	e59f007c 	ldr	r0, [pc, #124]	; eab8 <lfn_print+0x178>
    ea38:	eb000f76 	bl	12818 <printk>
    ea3c:	eb0010ba 	bl	12d2c <clean_reboot>
    ea40:	e5d60000 	ldrb	r0, [r6]
    ea44:	ebffff33 	bl	e718 <lfn_is_last>
    ea48:	e3500000 	cmp	r0, #0, 0
    ea4c:	0a000006 	beq	ea6c <lfn_print+0x12c>
    ea50:	e248837e 	sub	r8, r8, #-134217727	; 0xf8000001
    ea54:	e7d60288 	ldrb	r0, [r6, r8, lsl #5]
    ea58:	ebffff31 	bl	e724 <lfn_is_first>
    ea5c:	e3500000 	cmp	r0, #0, 0
    ea60:	0a000009 	beq	ea8c <lfn_print+0x14c>
    ea64:	e28dd00c 	add	sp, sp, #12, 0
    ea68:	e8bd83f0 	pop	{r4, r5, r6, r7, r8, r9, pc}
    ea6c:	e59f305c 	ldr	r3, [pc, #92]	; ead0 <lfn_print+0x190>
    ea70:	e58d3000 	str	r3, [sp]
    ea74:	e3a0306b 	mov	r3, #107, 0	; 0x6b
    ea78:	e59f2030 	ldr	r2, [pc, #48]	; eab0 <lfn_print+0x170>
    ea7c:	e59f1030 	ldr	r1, [pc, #48]	; eab4 <lfn_print+0x174>
    ea80:	e59f0030 	ldr	r0, [pc, #48]	; eab8 <lfn_print+0x178>
    ea84:	eb000f63 	bl	12818 <printk>
    ea88:	eb0010a7 	bl	12d2c <clean_reboot>
    ea8c:	e59f3040 	ldr	r3, [pc, #64]	; ead4 <lfn_print+0x194>
    ea90:	e58d3000 	str	r3, [sp]
    ea94:	e3a0306c 	mov	r3, #108, 0	; 0x6c
    ea98:	e59f2010 	ldr	r2, [pc, #16]	; eab0 <lfn_print+0x170>
    ea9c:	e59f1010 	ldr	r1, [pc, #16]	; eab4 <lfn_print+0x174>
    eaa0:	e59f0010 	ldr	r0, [pc, #16]	; eab8 <lfn_print+0x178>
    eaa4:	eb000f5b 	bl	12818 <printk>
    eaa8:	eb00109f 	bl	12d2c <clean_reboot>
    eaac:	0019c9c4 	.word	0x0019c9c4
    eab0:	0019cbcc 	.word	0x0019cbcc
    eab4:	0019c8dc 	.word	0x0019c8dc
    eab8:	0019b6f4 	.word	0x0019b6f4
    eabc:	0019ca18 	.word	0x0019ca18
    eac0:	0019c9d0 	.word	0x0019c9d0
    eac4:	0019ca2c 	.word	0x0019ca2c
    eac8:	0019ca4c 	.word	0x0019ca4c
    eacc:	0019ca58 	.word	0x0019ca58
    ead0:	0019ca6c 	.word	0x0019ca6c
    ead4:	0019ca84 	.word	0x0019ca84

0000ead8 <fat32_dir_filename>:
    ead8:	e92d41f0 	push	{r4, r5, r6, r7, r8, lr}
    eadc:	e24dd008 	sub	sp, sp, #8, 0
    eae0:	e1a06000 	mov	r6, r0
    eae4:	e1a05001 	mov	r5, r1
    eae8:	e1a07002 	mov	r7, r2
    eaec:	e1a00001 	mov	r0, r1
    eaf0:	ebfffcb9 	bl	dddc <fat32_dirent_free>
    eaf4:	e2504000 	subs	r4, r0, #0, 0
    eaf8:	1a000017 	bne	eb5c <fat32_dir_filename+0x84>
    eafc:	e5d5800b 	ldrb	r8, [r5, #11]
    eb00:	e358000f 	cmp	r8, #15, 0
    eb04:	0a00001c 	beq	eb7c <fat32_dir_filename+0xa4>
    eb08:	e3a01010 	mov	r1, #16, 0
    eb0c:	e1a00008 	mov	r0, r8
    eb10:	ebfffee9 	bl	e6bc <is_attr>
    eb14:	e3500000 	cmp	r0, #0, 0
    eb18:	1a000009 	bne	eb44 <fat32_dir_filename+0x6c>
    eb1c:	e3a01020 	mov	r1, #32, 0
    eb20:	e1a00008 	mov	r0, r8
    eb24:	ebfffee4 	bl	e6bc <is_attr>
    eb28:	e3500000 	cmp	r0, #0, 0
    eb2c:	1a000004 	bne	eb44 <fat32_dir_filename+0x6c>
    eb30:	e3a01008 	mov	r1, #8, 0
    eb34:	e1a00008 	mov	r0, r8
    eb38:	ebfffedf 	bl	e6bc <is_attr>
    eb3c:	e3500000 	cmp	r0, #0, 0
    eb40:	0a00003c 	beq	ec38 <fat32_dir_filename+0x160>
    eb44:	e5d5300c 	ldrb	r3, [r5, #12]
    eb48:	e3530018 	cmp	r3, #24, 0
    eb4c:	0a000054 	beq	eca4 <fat32_dir_filename+0x1cc>
    eb50:	e1a0c004 	mov	ip, r4
    eb54:	e1a01004 	mov	r1, r4
    eb58:	ea000041 	b	ec64 <fat32_dir_filename+0x18c>
    eb5c:	e59f31b4 	ldr	r3, [pc, #436]	; ed18 <fat32_dir_filename+0x240>
    eb60:	e58d3000 	str	r3, [sp]
    eb64:	e3a03071 	mov	r3, #113, 0	; 0x71
    eb68:	e59f21ac 	ldr	r2, [pc, #428]	; ed1c <fat32_dir_filename+0x244>
    eb6c:	e59f11ac 	ldr	r1, [pc, #428]	; ed20 <fat32_dir_filename+0x248>
    eb70:	e59f01ac 	ldr	r0, [pc, #428]	; ed24 <fat32_dir_filename+0x24c>
    eb74:	eb000f27 	bl	12818 <printk>
    eb78:	eb00106b 	bl	12d2c <clean_reboot>
    eb7c:	e0472005 	sub	r2, r7, r5
    eb80:	e1a032c2 	asr	r3, r2, #5
    eb84:	e3a04001 	mov	r4, #1, 0
    eb88:	e1540003 	cmp	r4, r3
    eb8c:	aa000004 	bge	eba4 <fat32_dir_filename+0xcc>
    eb90:	e0852284 	add	r2, r5, r4, lsl #5
    eb94:	e5d2200b 	ldrb	r2, [r2, #11]
    eb98:	e352000f 	cmp	r2, #15, 0
    eb9c:	02844001 	addeq	r4, r4, #1, 0
    eba0:	0afffff8 	beq	eb88 <fat32_dir_filename+0xb0>
    eba4:	e1540003 	cmp	r4, r3
    eba8:	aa000012 	bge	ebf8 <fat32_dir_filename+0x120>
    ebac:	e0857284 	add	r7, r5, r4, lsl #5
    ebb0:	e5d7800b 	ldrb	r8, [r7, #11]
    ebb4:	e3a01010 	mov	r1, #16, 0
    ebb8:	e1a00008 	mov	r0, r8
    ebbc:	ebfffebe 	bl	e6bc <is_attr>
    ebc0:	e3500000 	cmp	r0, #0, 0
    ebc4:	1a000004 	bne	ebdc <fat32_dir_filename+0x104>
    ebc8:	e3a01020 	mov	r1, #32, 0
    ebcc:	e1a00008 	mov	r0, r8
    ebd0:	ebfffeb9 	bl	e6bc <is_attr>
    ebd4:	e3500000 	cmp	r0, #0, 0
    ebd8:	0a00000e 	beq	ec18 <fat32_dir_filename+0x140>
    ebdc:	e1a01004 	mov	r1, r4
    ebe0:	e1a00005 	mov	r0, r5
    ebe4:	ebffff2b 	bl	e898 <lfn_get_name>
    ebe8:	e1a01000 	mov	r1, r0
    ebec:	e1a00006 	mov	r0, r6
    ebf0:	eb001033 	bl	12cc4 <strcpy>
    ebf4:	ea000044 	b	ed0c <fat32_dir_filename+0x234>
    ebf8:	e59f3128 	ldr	r3, [pc, #296]	; ed28 <fat32_dir_filename+0x250>
    ebfc:	e58d3000 	str	r3, [sp]
    ec00:	e3a0307a 	mov	r3, #122, 0	; 0x7a
    ec04:	e59f2110 	ldr	r2, [pc, #272]	; ed1c <fat32_dir_filename+0x244>
    ec08:	e59f1110 	ldr	r1, [pc, #272]	; ed20 <fat32_dir_filename+0x248>
    ec0c:	e59f0110 	ldr	r0, [pc, #272]	; ed24 <fat32_dir_filename+0x24c>
    ec10:	eb000f00 	bl	12818 <printk>
    ec14:	eb001044 	bl	12d2c <clean_reboot>
    ec18:	e59f310c 	ldr	r3, [pc, #268]	; ed2c <fat32_dir_filename+0x254>
    ec1c:	e58d3000 	str	r3, [sp]
    ec20:	e3a0307b 	mov	r3, #123, 0	; 0x7b
    ec24:	e59f20f0 	ldr	r2, [pc, #240]	; ed1c <fat32_dir_filename+0x244>
    ec28:	e59f10f0 	ldr	r1, [pc, #240]	; ed20 <fat32_dir_filename+0x248>
    ec2c:	e59f00f0 	ldr	r0, [pc, #240]	; ed24 <fat32_dir_filename+0x24c>
    ec30:	eb000ef8 	bl	12818 <printk>
    ec34:	eb00103c 	bl	12d2c <clean_reboot>
    ec38:	e59f30f0 	ldr	r3, [pc, #240]	; ed30 <fat32_dir_filename+0x258>
    ec3c:	e58d3000 	str	r3, [sp]
    ec40:	e3a0307f 	mov	r3, #127, 0	; 0x7f
    ec44:	e59f20d0 	ldr	r2, [pc, #208]	; ed1c <fat32_dir_filename+0x244>
    ec48:	e59f10d0 	ldr	r1, [pc, #208]	; ed20 <fat32_dir_filename+0x248>
    ec4c:	e59f00d0 	ldr	r0, [pc, #208]	; ed24 <fat32_dir_filename+0x24c>
    ec50:	eb000ef0 	bl	12818 <printk>
    ec54:	eb001034 	bl	12d2c <clean_reboot>
    ec58:	e7c63001 	strb	r3, [r6, r1]
    ec5c:	e2811001 	add	r1, r1, #1, 0
    ec60:	e2844001 	add	r4, r4, #1, 0
    ec64:	e3540007 	cmp	r4, #7, 0
    ec68:	ca00000f 	bgt	ecac <fat32_dir_filename+0x1d4>
    ec6c:	e7d53004 	ldrb	r3, [r5, r4]
    ec70:	e3530020 	cmp	r3, #32, 0
    ec74:	0afffff9 	beq	ec60 <fat32_dir_filename+0x188>
    ec78:	e3530040 	cmp	r3, #64, 0	; 0x40
    ec7c:	93a02000 	movls	r2, #0, 0
    ec80:	83a02001 	movhi	r2, #1, 0
    ec84:	e35c0000 	cmp	ip, #0, 0
    ec88:	03a02000 	moveq	r2, #0, 0
    ec8c:	e3520000 	cmp	r2, #0, 0
    ec90:	0afffff0 	beq	ec58 <fat32_dir_filename+0x180>
    ec94:	e353005a 	cmp	r3, #90, 0	; 0x5a
    ec98:	92833020 	addls	r3, r3, #32, 0
    ec9c:	96ef3073 	uxtbls	r3, r3
    eca0:	eaffffec 	b	ec58 <fat32_dir_filename+0x180>
    eca4:	e3a0c001 	mov	ip, #1, 0
    eca8:	eaffffa9 	b	eb54 <fat32_dir_filename+0x7c>
    ecac:	e2810001 	add	r0, r1, #1, 0
    ecb0:	e3a0302e 	mov	r3, #46, 0	; 0x2e
    ecb4:	e7c63001 	strb	r3, [r6, r1]
    ecb8:	ea000002 	b	ecc8 <fat32_dir_filename+0x1f0>
    ecbc:	e7c63000 	strb	r3, [r6, r0]
    ecc0:	e2844001 	add	r4, r4, #1, 0
    ecc4:	e2800001 	add	r0, r0, #1, 0
    ecc8:	e354000a 	cmp	r4, #10, 0
    eccc:	ca00000b 	bgt	ed00 <fat32_dir_filename+0x228>
    ecd0:	e7d53004 	ldrb	r3, [r5, r4]
    ecd4:	e3530040 	cmp	r3, #64, 0	; 0x40
    ecd8:	93a02000 	movls	r2, #0, 0
    ecdc:	83a02001 	movhi	r2, #1, 0
    ece0:	e35c0000 	cmp	ip, #0, 0
    ece4:	03a02000 	moveq	r2, #0, 0
    ece8:	e3520000 	cmp	r2, #0, 0
    ecec:	0afffff2 	beq	ecbc <fat32_dir_filename+0x1e4>
    ecf0:	e353005a 	cmp	r3, #90, 0	; 0x5a
    ecf4:	92833020 	addls	r3, r3, #32, 0
    ecf8:	96ef3073 	uxtbls	r3, r3
    ecfc:	eaffffee 	b	ecbc <fat32_dir_filename+0x1e4>
    ed00:	e3a03000 	mov	r3, #0, 0
    ed04:	e7c63000 	strb	r3, [r6, r0]
    ed08:	e1a07005 	mov	r7, r5
    ed0c:	e1a00007 	mov	r0, r7
    ed10:	e28dd008 	add	sp, sp, #8, 0
    ed14:	e8bd81f0 	pop	{r4, r5, r6, r7, r8, pc}
    ed18:	0019caa4 	.word	0x0019caa4
    ed1c:	0019cbd8 	.word	0x0019cbd8
    ed20:	0019c8dc 	.word	0x0019c8dc
    ed24:	0019b6f4 	.word	0x0019b6f4
    ed28:	0019cabc 	.word	0x0019cabc
    ed2c:	0019cac4 	.word	0x0019cac4
    ed30:	0019cb0c 	.word	0x0019cb0c

0000ed34 <fat32_lfn_print>:
    ed34:	e92d40f0 	push	{r4, r5, r6, r7, lr}
    ed38:	e24dd00c 	sub	sp, sp, #12, 0
    ed3c:	e1a05001 	mov	r5, r1
    ed40:	e5d1300b 	ldrb	r3, [r1, #11]
    ed44:	e353000f 	cmp	r3, #15, 0
    ed48:	0a000004 	beq	ed60 <fat32_lfn_print+0x2c>
    ed4c:	ebfffdb8 	bl	e434 <fat32_dirent_print>
    ed50:	e3a04001 	mov	r4, #1, 0
    ed54:	e1a00004 	mov	r0, r4
    ed58:	e28dd00c 	add	sp, sp, #12, 0
    ed5c:	e8bd80f0 	pop	{r4, r5, r6, r7, pc}
    ed60:	e1a06002 	mov	r6, r2
    ed64:	e1a01000 	mov	r1, r0
    ed68:	e59f00e4 	ldr	r0, [pc, #228]	; ee54 <fat32_lfn_print+0x120>
    ed6c:	eb000ea9 	bl	12818 <printk>
    ed70:	e3a04000 	mov	r4, #0, 0
    ed74:	e1540006 	cmp	r4, r6
    ed78:	aa000004 	bge	ed90 <fat32_lfn_print+0x5c>
    ed7c:	e0853284 	add	r3, r5, r4, lsl #5
    ed80:	e5d3300b 	ldrb	r3, [r3, #11]
    ed84:	e353000f 	cmp	r3, #15, 0
    ed88:	02844001 	addeq	r4, r4, #1, 0
    ed8c:	0afffff8 	beq	ed74 <fat32_lfn_print+0x40>
    ed90:	e1540006 	cmp	r4, r6
    ed94:	aa00001e 	bge	ee14 <fat32_lfn_print+0xe0>
    ed98:	e0856284 	add	r6, r5, r4, lsl #5
    ed9c:	e5d6700b 	ldrb	r7, [r6, #11]
    eda0:	e3a01010 	mov	r1, #16, 0
    eda4:	e1a00007 	mov	r0, r7
    eda8:	ebfffe43 	bl	e6bc <is_attr>
    edac:	e3500000 	cmp	r0, #0, 0
    edb0:	1a000004 	bne	edc8 <fat32_lfn_print+0x94>
    edb4:	e3a01020 	mov	r1, #32, 0
    edb8:	e1a00007 	mov	r0, r7
    edbc:	ebfffe3e 	bl	e6bc <is_attr>
    edc0:	e3500000 	cmp	r0, #0, 0
    edc4:	0a00001a 	beq	ee34 <fat32_lfn_print+0x100>
    edc8:	e59f0088 	ldr	r0, [pc, #136]	; ee58 <fat32_lfn_print+0x124>
    edcc:	eb000e91 	bl	12818 <printk>
    edd0:	e1a00006 	mov	r0, r6
    edd4:	ebfffe42 	bl	e6e4 <lfn_checksum>
    edd8:	e1a02000 	mov	r2, r0
    eddc:	e3a03000 	mov	r3, #0, 0
    ede0:	e1a01004 	mov	r1, r4
    ede4:	e1a00005 	mov	r0, r5
    ede8:	ebfffed4 	bl	e940 <lfn_print>
    edec:	e1a01004 	mov	r1, r4
    edf0:	e1a00005 	mov	r0, r5
    edf4:	ebfffea7 	bl	e898 <lfn_get_name>
    edf8:	e1a01000 	mov	r1, r0
    edfc:	e59f0058 	ldr	r0, [pc, #88]	; ee5c <fat32_lfn_print+0x128>
    ee00:	eb000e84 	bl	12818 <printk>
    ee04:	e2844001 	add	r4, r4, #1, 0
    ee08:	e1a00006 	mov	r0, r6
    ee0c:	ebfffcf5 	bl	e1e8 <fat32_dirent_print_helper>
    ee10:	eaffffcf 	b	ed54 <fat32_lfn_print+0x20>
    ee14:	e59f3044 	ldr	r3, [pc, #68]	; ee60 <fat32_lfn_print+0x12c>
    ee18:	e58d3000 	str	r3, [sp]
    ee1c:	e3a030ac 	mov	r3, #172, 0	; 0xac
    ee20:	e59f203c 	ldr	r2, [pc, #60]	; ee64 <fat32_lfn_print+0x130>
    ee24:	e59f103c 	ldr	r1, [pc, #60]	; ee68 <fat32_lfn_print+0x134>
    ee28:	e59f003c 	ldr	r0, [pc, #60]	; ee6c <fat32_lfn_print+0x138>
    ee2c:	eb000e79 	bl	12818 <printk>
    ee30:	eb000fbd 	bl	12d2c <clean_reboot>
    ee34:	e59f3034 	ldr	r3, [pc, #52]	; ee70 <fat32_lfn_print+0x13c>
    ee38:	e58d3000 	str	r3, [sp]
    ee3c:	e3a030ad 	mov	r3, #173, 0	; 0xad
    ee40:	e59f201c 	ldr	r2, [pc, #28]	; ee64 <fat32_lfn_print+0x130>
    ee44:	e59f101c 	ldr	r1, [pc, #28]	; ee68 <fat32_lfn_print+0x134>
    ee48:	e59f001c 	ldr	r0, [pc, #28]	; ee6c <fat32_lfn_print+0x138>
    ee4c:	eb000e71 	bl	12818 <printk>
    ee50:	eb000fb5 	bl	12d2c <clean_reboot>
    ee54:	0019c82c 	.word	0x0019c82c
    ee58:	0019b824 	.word	0x0019b824
    ee5c:	0019cb70 	.word	0x0019cb70
    ee60:	0019cb64 	.word	0x0019cb64
    ee64:	0019cbec 	.word	0x0019cbec
    ee68:	0019c8dc 	.word	0x0019c8dc
    ee6c:	0019b6f4 	.word	0x0019b6f4
    ee70:	0019cac4 	.word	0x0019cac4

0000ee74 <codepoint_len>:
    ee74:	e1a0c000 	mov	ip, r0
    ee78:	e59f2040 	ldr	r2, [pc, #64]	; eec0 <codepoint_len+0x4c>
    ee7c:	e3a00000 	mov	r0, #0, 0
    ee80:	ea000001 	b	ee8c <codepoint_len+0x18>
    ee84:	e2800001 	add	r0, r0, #1, 0
    ee88:	e2822004 	add	r2, r2, #4, 0
    ee8c:	e5923000 	ldr	r3, [r2]
    ee90:	e3530000 	cmp	r3, #0, 0
    ee94:	0a000005 	beq	eeb0 <codepoint_len+0x3c>
    ee98:	e5931004 	ldr	r1, [r3, #4]
    ee9c:	e151000c 	cmp	r1, ip
    eea0:	8afffff7 	bhi	ee84 <codepoint_len+0x10>
    eea4:	e5933008 	ldr	r3, [r3, #8]
    eea8:	e153000c 	cmp	r3, ip
    eeac:	3afffff4 	bcc	ee84 <codepoint_len+0x10>
    eeb0:	e3500004 	cmp	r0, #4, 0
    eeb4:	d12fff1e 	bxle	lr
    eeb8:	e3e00000 	mvn	r0, #0, 0
    eebc:	e12fff1e 	bx	lr
    eec0:	0019edd4 	.word	0x0019edd4

0000eec4 <utf8_len>:
    eec4:	e1a0c000 	mov	ip, r0
    eec8:	e59f1038 	ldr	r1, [pc, #56]	; ef08 <utf8_len+0x44>
    eecc:	e3a00000 	mov	r0, #0, 0
    eed0:	e5913000 	ldr	r3, [r1]
    eed4:	e3530000 	cmp	r3, #0, 0
    eed8:	0a000006 	beq	eef8 <utf8_len+0x34>
    eedc:	e5d32000 	ldrb	r2, [r3]
    eee0:	e1cc2002 	bic	r2, ip, r2
    eee4:	e5d33001 	ldrb	r3, [r3, #1]
    eee8:	e1520003 	cmp	r2, r3
    eeec:	12800001 	addne	r0, r0, #1, 0
    eef0:	12811004 	addne	r1, r1, #4, 0
    eef4:	1afffff5 	bne	eed0 <utf8_len+0xc>
    eef8:	e3500004 	cmp	r0, #4, 0
    eefc:	d12fff1e 	bxle	lr
    ef00:	e3e00000 	mvn	r0, #0, 0
    ef04:	e12fff1e 	bx	lr
    ef08:	0019edd4 	.word	0x0019edd4

0000ef0c <to_utf8>:
    ef0c:	e92d4070 	push	{r4, r5, r6, lr}
    ef10:	e1a04000 	mov	r4, r0
    ef14:	ebffffd6 	bl	ee74 <codepoint_len>
    ef18:	e250c000 	subs	ip, r0, #0, 0
    ef1c:	ba00001c 	blt	ef94 <to_utf8+0x88>
    ef20:	e59f3074 	ldr	r3, [pc, #116]	; ef9c <to_utf8+0x90>
    ef24:	e5930000 	ldr	r0, [r3]
    ef28:	e590500c 	ldr	r5, [r0, #12]
    ef2c:	e24c1001 	sub	r1, ip, #1, 0
    ef30:	e0010591 	mul	r1, r1, r5
    ef34:	e793210c 	ldr	r2, [r3, ip, lsl #2]
    ef38:	e5d23000 	ldrb	r3, [r2]
    ef3c:	e0033134 	and	r3, r3, r4, lsr r1
    ef40:	e5d22001 	ldrb	r2, [r2, #1]
    ef44:	e1833002 	orr	r3, r3, r2
    ef48:	e59f2050 	ldr	r2, [pc, #80]	; efa0 <to_utf8+0x94>
    ef4c:	e5c23000 	strb	r3, [r2]
    ef50:	e0411005 	sub	r1, r1, r5
    ef54:	e3a02001 	mov	r2, #1, 0
    ef58:	ea000007 	b	ef7c <to_utf8+0x70>
    ef5c:	e5d03000 	ldrb	r3, [r0]
    ef60:	e0033134 	and	r3, r3, r4, lsr r1
    ef64:	e5d0e001 	ldrb	lr, [r0, #1]
    ef68:	e183300e 	orr	r3, r3, lr
    ef6c:	e59fe02c 	ldr	lr, [pc, #44]	; efa0 <to_utf8+0x94>
    ef70:	e7ce3002 	strb	r3, [lr, r2]
    ef74:	e0411005 	sub	r1, r1, r5
    ef78:	e2822001 	add	r2, r2, #1, 0
    ef7c:	e152000c 	cmp	r2, ip
    ef80:	bafffff5 	blt	ef5c <to_utf8+0x50>
    ef84:	e59f0014 	ldr	r0, [pc, #20]	; efa0 <to_utf8+0x94>
    ef88:	e3a03000 	mov	r3, #0, 0
    ef8c:	e7c0300c 	strb	r3, [r0, ip]
    ef90:	e8bd8070 	pop	{r4, r5, r6, pc}
    ef94:	e3a00000 	mov	r0, #0, 0
    ef98:	e8bd8070 	pop	{r4, r5, r6, pc}
    ef9c:	0019edd4 	.word	0x0019edd4
    efa0:	0019f178 	.word	0x0019f178

0000efa4 <to_cp>:
    efa4:	e92d41f0 	push	{r4, r5, r6, r7, r8, lr}
    efa8:	e1a05000 	mov	r5, r0
    efac:	e5d04000 	ldrb	r4, [r0]
    efb0:	e1a00004 	mov	r0, r4
    efb4:	ebffffc2 	bl	eec4 <utf8_len>
    efb8:	e2506000 	subs	r6, r0, #0, 0
    efbc:	ba000013 	blt	f010 <to_cp+0x6c>
    efc0:	e59f3050 	ldr	r3, [pc, #80]	; f018 <to_cp+0x74>
    efc4:	e5938000 	ldr	r8, [r3]
    efc8:	e598700c 	ldr	r7, [r8, #12]
    efcc:	e2462001 	sub	r2, r6, #1, 0
    efd0:	e0020792 	mul	r2, r2, r7
    efd4:	e285c001 	add	ip, r5, #1, 0
    efd8:	e7933106 	ldr	r3, [r3, r6, lsl #2]
    efdc:	e5d30000 	ldrb	r0, [r3]
    efe0:	e0000004 	and	r0, r0, r4
    efe4:	e1a00210 	lsl	r0, r0, r2
    efe8:	e3a01001 	mov	r1, #1, 0
    efec:	e1510006 	cmp	r1, r6
    eff0:	a8bd81f0 	popge	{r4, r5, r6, r7, r8, pc}
    eff4:	e0422007 	sub	r2, r2, r7
    eff8:	e4dc3001 	ldrb	r3, [ip], #1
    effc:	e5d8e000 	ldrb	lr, [r8]
    f000:	e003300e 	and	r3, r3, lr
    f004:	e1800213 	orr	r0, r0, r3, lsl r2
    f008:	e2811001 	add	r1, r1, #1, 0
    f00c:	eafffff6 	b	efec <to_cp+0x48>
    f010:	e3a00000 	mov	r0, #0, 0
    f014:	e8bd81f0 	pop	{r4, r5, r6, r7, r8, pc}
    f018:	0019edd4 	.word	0x0019edd4

0000f01c <test_main>:
    f01c:	e92d4070 	push	{r4, r5, r6, lr}
    f020:	e24dd028 	sub	sp, sp, #40, 0	; 0x28
    f024:	e28dc008 	add	ip, sp, #8, 0
    f028:	e59fe0b0 	ldr	lr, [pc, #176]	; f0e0 <test_main+0xc4>
    f02c:	e8be000f 	ldm	lr!, {r0, r1, r2, r3}
    f030:	e8ac000f 	stmia	ip!, {r0, r1, r2, r3}
    f034:	e89e000f 	ldm	lr, {r0, r1, r2, r3}
    f038:	e88c000f 	stm	ip, {r0, r1, r2, r3}
    f03c:	e59f00a0 	ldr	r0, [pc, #160]	; f0e4 <test_main+0xc8>
    f040:	eb000df4 	bl	12818 <printk>
    f044:	e59f009c 	ldr	r0, [pc, #156]	; f0e8 <test_main+0xcc>
    f048:	eb000df2 	bl	12818 <printk>
    f04c:	e28d6008 	add	r6, sp, #8, 0
    f050:	ea000012 	b	f0a0 <test_main+0x84>
    f054:	e59f3090 	ldr	r3, [pc, #144]	; f0ec <test_main+0xd0>
    f058:	e58d3000 	str	r3, [sp]
    f05c:	e3a0306c 	mov	r3, #108, 0	; 0x6c
    f060:	e59f2088 	ldr	r2, [pc, #136]	; f0f0 <test_main+0xd4>
    f064:	e59f1088 	ldr	r1, [pc, #136]	; f0f4 <test_main+0xd8>
    f068:	e59f0088 	ldr	r0, [pc, #136]	; f0f8 <test_main+0xdc>
    f06c:	eb000de9 	bl	12818 <printk>
    f070:	eb000f2d 	bl	12d2c <clean_reboot>
    f074:	e59f0080 	ldr	r0, [pc, #128]	; f0fc <test_main+0xe0>
    f078:	eb000de6 	bl	12818 <printk>
    f07c:	e2844001 	add	r4, r4, #1, 0
    f080:	e7d51004 	ldrb	r1, [r5, r4]
    f084:	e3510000 	cmp	r1, #0, 0
    f088:	0a000001 	beq	f094 <test_main+0x78>
    f08c:	e3540003 	cmp	r4, #3, 0
    f090:	dafffff7 	ble	f074 <test_main+0x58>
    f094:	e59f0064 	ldr	r0, [pc, #100]	; f100 <test_main+0xe4>
    f098:	eb000dde 	bl	12818 <printk>
    f09c:	e2866004 	add	r6, r6, #4, 0
    f0a0:	e5960000 	ldr	r0, [r6]
    f0a4:	e3500000 	cmp	r0, #0, 0
    f0a8:	0a00000a 	beq	f0d8 <test_main+0xbc>
    f0ac:	ebffff96 	bl	ef0c <to_utf8>
    f0b0:	e2505000 	subs	r5, r0, #0, 0
    f0b4:	0affffe6 	beq	f054 <test_main+0x38>
    f0b8:	e1a00005 	mov	r0, r5
    f0bc:	ebffffb8 	bl	efa4 <to_cp>
    f0c0:	e1a02000 	mov	r2, r0
    f0c4:	e1a01005 	mov	r1, r5
    f0c8:	e59f0034 	ldr	r0, [pc, #52]	; f104 <test_main+0xe8>
    f0cc:	eb000dd1 	bl	12818 <printk>
    f0d0:	e3a04000 	mov	r4, #0, 0
    f0d4:	eaffffe9 	b	f080 <test_main+0x64>
    f0d8:	e28dd028 	add	sp, sp, #40, 0	; 0x28
    f0dc:	e8bd8070 	pop	{r4, r5, r6, pc}
    f0e0:	0019ccb0 	.word	0x0019ccb0
    f0e4:	0019cbfc 	.word	0x0019cbfc
    f0e8:	0019cc28 	.word	0x0019cc28
    f0ec:	0019cc94 	.word	0x0019cc94
    f0f0:	0019ccd0 	.word	0x0019ccd0
    f0f4:	0019cc54 	.word	0x0019cc54
    f0f8:	0019b6f4 	.word	0x0019b6f4
    f0fc:	0019c7a8 	.word	0x0019c7a8
    f100:	0019b824 	.word	0x0019b824
    f104:	0019cc9c 	.word	0x0019cc9c

0000f108 <get_clock_divider>:
    f108:	e59f30ac 	ldr	r3, [pc, #172]	; f1bc <get_clock_divider+0xb4>
    f10c:	e1500003 	cmp	r0, r3
    f110:	9a000007 	bls	f134 <get_clock_divider+0x2c>
    f114:	e59f20a4 	ldr	r2, [pc, #164]	; f1c0 <get_clock_divider+0xb8>
    f118:	e0823092 	umull	r3, r2, r2, r0
    f11c:	e1a02c22 	lsr	r2, r2, #24
    f120:	e59f309c 	ldr	r3, [pc, #156]	; f1c4 <get_clock_divider+0xbc>
    f124:	e0030293 	mul	r3, r3, r2
    f128:	e1500003 	cmp	r0, r3
    f12c:	13a02000 	movne	r2, #0, 0
    f130:	ea000000 	b	f138 <get_clock_divider+0x30>
    f134:	e3a02001 	mov	r2, #1, 0
    f138:	e3a0001f 	mov	r0, #31, 0
    f13c:	e3500000 	cmp	r0, #0, 0
    f140:	ba000007 	blt	f164 <get_clock_divider+0x5c>
    f144:	e3a03001 	mov	r3, #1, 0
    f148:	e1a03013 	lsl	r3, r3, r0
    f14c:	e1120003 	tst	r2, r3
    f150:	02400001 	subeq	r0, r0, #1, 0
    f154:	0afffff8 	beq	f13c <get_clock_divider+0x34>
    f158:	e1d23003 	bics	r3, r2, r3
    f15c:	12800001 	addne	r0, r0, #1, 0
    f160:	ea000000 	b	f168 <get_clock_divider+0x60>
    f164:	e3e00000 	mvn	r0, #0, 0
    f168:	e3700001 	cmn	r0, #1, 0
    f16c:	0a000003 	beq	f180 <get_clock_divider+0x78>
    f170:	e350001f 	cmp	r0, #31, 0
    f174:	da000002 	ble	f184 <get_clock_divider+0x7c>
    f178:	e3a0001f 	mov	r0, #31, 0
    f17c:	ea000002 	b	f18c <get_clock_divider+0x84>
    f180:	e3a0001f 	mov	r0, #31, 0
    f184:	e3500000 	cmp	r0, #0, 0
    f188:	0a000002 	beq	f198 <get_clock_divider+0x90>
    f18c:	e2400001 	sub	r0, r0, #1, 0
    f190:	e3a03001 	mov	r3, #1, 0
    f194:	e1a00013 	lsl	r0, r3, r0
    f198:	e3500b01 	cmp	r0, #1024	; 0x400
    f19c:	a59f0024 	ldrge	r0, [pc, #36]	; f1c8 <get_clock_divider+0xc0>
    f1a0:	e1a03440 	asr	r3, r0, #8
    f1a4:	e1a00400 	lsl	r0, r0, #8
    f1a8:	e6ff0070 	uxth	r0, r0
    f1ac:	e1a03303 	lsl	r3, r3, #6
    f1b0:	e6ef3073 	uxtb	r3, r3
    f1b4:	e1800003 	orr	r0, r0, r3
    f1b8:	e12fff1e 	bx	lr
    f1bc:	02faf07f 	.word	0x02faf07f
    f1c0:	55e63b89 	.word	0x55e63b89
    f1c4:	02faf080 	.word	0x02faf080
    f1c8:	000003ff 	.word	0x000003ff

0000f1cc <sd_error_mask>:
    f1cc:	e2800010 	add	r0, r0, #16, 0
    f1d0:	e3a03001 	mov	r3, #1, 0
    f1d4:	e1a00013 	lsl	r0, r3, r0
    f1d8:	e12fff1e 	bx	lr

0000f1dc <set_last_error>:
    f1dc:	e1a03820 	lsr	r3, r0, #16
    f1e0:	e1a03803 	lsl	r3, r3, #16
    f1e4:	e59f2008 	ldr	r2, [pc, #8]	; f1f4 <set_last_error+0x18>
    f1e8:	e5823040 	str	r3, [r2, #64]	; 0x40
    f1ec:	e5820044 	str	r0, [r2, #68]	; 0x44
    f1f0:	e12fff1e 	bx	lr
    f1f4:	0019f190 	.word	0x0019f190

0000f1f8 <reset_command>:
    f1f8:	e92d4010 	push	{r4, lr}
    f1fc:	e59f2058 	ldr	r2, [pc, #88]	; f25c <reset_command+0x64>
    f200:	e592302c 	ldr	r3, [r2, #44]	; 0x2c
    f204:	e3833402 	orr	r3, r3, #33554432	; 0x2000000
    f208:	e582302c 	str	r3, [r2, #44]	; 0x2c
    f20c:	e3a04000 	mov	r4, #0, 0
    f210:	ea000002 	b	f220 <reset_command+0x28>
    f214:	e3a00001 	mov	r0, #1, 0
    f218:	eb000f20 	bl	12ea0 <delay_ms>
    f21c:	e2844001 	add	r4, r4, #1, 0
    f220:	e59f3038 	ldr	r3, [pc, #56]	; f260 <reset_command+0x68>
    f224:	e1540003 	cmp	r4, r3
    f228:	ca000005 	bgt	f244 <reset_command+0x4c>
    f22c:	e59f3028 	ldr	r3, [pc, #40]	; f25c <reset_command+0x64>
    f230:	e593302c 	ldr	r3, [r3, #44]	; 0x2c
    f234:	e3130402 	tst	r3, #33554432	; 0x2000000
    f238:	1afffff5 	bne	f214 <reset_command+0x1c>
    f23c:	e3a00001 	mov	r0, #1, 0
    f240:	e8bd8010 	pop	{r4, pc}
    f244:	e59f3010 	ldr	r3, [pc, #16]	; f25c <reset_command+0x64>
    f248:	e593102c 	ldr	r1, [r3, #44]	; 0x2c
    f24c:	e59f0010 	ldr	r0, [pc, #16]	; f264 <reset_command+0x6c>
    f250:	eb000d70 	bl	12818 <printk>
    f254:	e3a00000 	mov	r0, #0, 0
    f258:	e8bd8010 	pop	{r4, pc}
    f25c:	20300000 	.word	0x20300000
    f260:	0000270f 	.word	0x0000270f
    f264:	0019ccdc 	.word	0x0019ccdc

0000f268 <wait_reg_mask>:
    f268:	e92d41f0 	push	{r4, r5, r6, r7, r8, lr}
    f26c:	e1a07000 	mov	r7, r0
    f270:	e1a06001 	mov	r6, r1
    f274:	e1a08002 	mov	r8, r2
    f278:	e1a05003 	mov	r5, r3
    f27c:	e3a04000 	mov	r4, #0, 0
    f280:	ea000005 	b	f29c <wait_reg_mask+0x34>
    f284:	e1a00008 	mov	r0, r8
    f288:	e3500000 	cmp	r0, #0, 0
    f28c:	18bd81f0 	popne	{r4, r5, r6, r7, r8, pc}
    f290:	e3a00064 	mov	r0, #100, 0	; 0x64
    f294:	eb000ef8 	bl	12e7c <delay_us>
    f298:	e2844001 	add	r4, r4, #1, 0
    f29c:	e0853105 	add	r3, r5, r5, lsl #2
    f2a0:	e1540083 	cmp	r4, r3, lsl #1
    f2a4:	8a000004 	bhi	f2bc <wait_reg_mask+0x54>
    f2a8:	e5973000 	ldr	r3, [r7]
    f2ac:	e1130006 	tst	r3, r6
    f2b0:	1afffff3 	bne	f284 <wait_reg_mask+0x1c>
    f2b4:	e2280001 	eor	r0, r8, #1, 0
    f2b8:	eafffff2 	b	f288 <wait_reg_mask+0x20>
    f2bc:	e3a00000 	mov	r0, #0, 0
    f2c0:	e8bd81f0 	pop	{r4, r5, r6, r7, r8, pc}

0000f2c4 <do_data_transfer>:
    f2c4:	e92d41f0 	push	{r4, r5, r6, r7, r8, lr}
    f2c8:	e24dd008 	sub	sp, sp, #8, 0
    f2cc:	e58d0004 	str	r0, [sp, #4]
    f2d0:	e3100010 	tst	r0, #16, 0
    f2d4:	0a000005 	beq	f2f0 <do_data_transfer+0x2c>
    f2d8:	e3a07000 	mov	r7, #0, 0
    f2dc:	e3a05020 	mov	r5, #32, 0
    f2e0:	e59f30c0 	ldr	r3, [pc, #192]	; f3a8 <do_data_transfer+0xe4>
    f2e4:	e5934038 	ldr	r4, [r3, #56]	; 0x38
    f2e8:	e3a06000 	mov	r6, #0, 0
    f2ec:	ea00000c 	b	f324 <do_data_transfer+0x60>
    f2f0:	e3a07001 	mov	r7, #1, 0
    f2f4:	e3a05010 	mov	r5, #16, 0
    f2f8:	eafffff8 	b	f2e0 <do_data_transfer+0x1c>
    f2fc:	ebffffb6 	bl	f1dc <set_last_error>
    f300:	e3a00000 	mov	r0, #0, 0
    f304:	ea000025 	b	f3a0 <do_data_transfer+0xdc>
    f308:	e4941004 	ldr	r1, [r4], #4
    f30c:	e59f2098 	ldr	r2, [pc, #152]	; f3ac <do_data_transfer+0xe8>
    f310:	e5821020 	str	r1, [r2, #32]
    f314:	e2433004 	sub	r3, r3, #4, 0
    f318:	e3530000 	cmp	r3, #0, 0
    f31c:	1afffff9 	bne	f308 <do_data_transfer+0x44>
    f320:	e2866001 	add	r6, r6, #1, 0
    f324:	e59f307c 	ldr	r3, [pc, #124]	; f3a8 <do_data_transfer+0xe4>
    f328:	e5933004 	ldr	r3, [r3, #4]
    f32c:	e1530006 	cmp	r3, r6
    f330:	9a000019 	bls	f39c <do_data_transfer+0xd8>
    f334:	e3858902 	orr	r8, r5, #32768	; 0x8000
    f338:	e3a03e7d 	mov	r3, #2000	; 0x7d0
    f33c:	e3a02001 	mov	r2, #1, 0
    f340:	e1a01008 	mov	r1, r8
    f344:	e59f0064 	ldr	r0, [pc, #100]	; f3b0 <do_data_transfer+0xec>
    f348:	ebffffc6 	bl	f268 <wait_reg_mask>
    f34c:	e59f3058 	ldr	r3, [pc, #88]	; f3ac <do_data_transfer+0xe8>
    f350:	e5930030 	ldr	r0, [r3, #48]	; 0x30
    f354:	e5838030 	str	r8, [r3, #48]	; 0x30
    f358:	e1e03805 	mvn	r3, r5, lsl #16
    f35c:	e1e03823 	mvn	r3, r3, lsr #16
    f360:	e0033000 	and	r3, r3, r0
    f364:	e1530005 	cmp	r3, r5
    f368:	1affffe3 	bne	f2fc <do_data_transfer+0x38>
    f36c:	e59f3034 	ldr	r3, [pc, #52]	; f3a8 <do_data_transfer+0xe4>
    f370:	e5933010 	ldr	r3, [r3, #16]
    f374:	e3570000 	cmp	r7, #0, 0
    f378:	1affffe6 	bne	f318 <do_data_transfer+0x54>
    f37c:	ea000003 	b	f390 <do_data_transfer+0xcc>
    f380:	e59f2024 	ldr	r2, [pc, #36]	; f3ac <do_data_transfer+0xe8>
    f384:	e5922020 	ldr	r2, [r2, #32]
    f388:	e4842004 	str	r2, [r4], #4
    f38c:	e2433004 	sub	r3, r3, #4, 0
    f390:	e3530000 	cmp	r3, #0, 0
    f394:	1afffff9 	bne	f380 <do_data_transfer+0xbc>
    f398:	eaffffe0 	b	f320 <do_data_transfer+0x5c>
    f39c:	e3a00001 	mov	r0, #1, 0
    f3a0:	e28dd008 	add	sp, sp, #8, 0
    f3a4:	e8bd81f0 	pop	{r4, r5, r6, r7, r8, pc}
    f3a8:	0019f190 	.word	0x0019f190
    f3ac:	20300000 	.word	0x20300000
    f3b0:	20300030 	.word	0x20300030

0000f3b4 <emmc_issue_command>:
    f3b4:	e92d4030 	push	{r4, r5, lr}
    f3b8:	e24dd014 	sub	sp, sp, #20, 0
    f3bc:	e58d0004 	str	r0, [sp, #4]
    f3c0:	e1a04001 	mov	r4, r1
    f3c4:	e1a05002 	mov	r5, r2
    f3c8:	e3a02004 	mov	r2, #4, 0
    f3cc:	e08d1002 	add	r1, sp, r2
    f3d0:	e28d0008 	add	r0, sp, #8, 0
    f3d4:	eb000c9d 	bl	12650 <memcpy>
    f3d8:	e59f31cc 	ldr	r3, [pc, #460]	; f5ac <emmc_issue_command+0x1f8>
    f3dc:	e59d2008 	ldr	r2, [sp, #8]
    f3e0:	e583200c 	str	r2, [r3, #12]
    f3e4:	e593200c 	ldr	r2, [r3, #12]
    f3e8:	e58d200c 	str	r2, [sp, #12]
    f3ec:	e5931004 	ldr	r1, [r3, #4]
    f3f0:	e3510801 	cmp	r1, #65536	; 0x10000
    f3f4:	2a000014 	bcs	f44c <emmc_issue_command+0x98>
    f3f8:	e59f31ac 	ldr	r3, [pc, #428]	; f5ac <emmc_issue_command+0x1f8>
    f3fc:	e5933010 	ldr	r3, [r3, #16]
    f400:	e1831801 	orr	r1, r3, r1, lsl #16
    f404:	e59f31a4 	ldr	r3, [pc, #420]	; f5b0 <emmc_issue_command+0x1fc>
    f408:	e5831004 	str	r1, [r3, #4]
    f40c:	e5834008 	str	r4, [r3, #8]
    f410:	e59d200c 	ldr	r2, [sp, #12]
    f414:	e583200c 	str	r2, [r3, #12]
    f418:	e3a04000 	mov	r4, #0, 0
    f41c:	e1a02004 	mov	r2, r4
    f420:	e1540005 	cmp	r4, r5
    f424:	2a00000c 	bcs	f45c <emmc_issue_command+0xa8>
    f428:	e59f3180 	ldr	r3, [pc, #384]	; f5b0 <emmc_issue_command+0x1fc>
    f42c:	e5931030 	ldr	r1, [r3, #48]	; 0x30
    f430:	e59f317c 	ldr	r3, [pc, #380]	; f5b4 <emmc_issue_command+0x200>
    f434:	e1110003 	tst	r1, r3
    f438:	1a000007 	bne	f45c <emmc_issue_command+0xa8>
    f43c:	e3a00001 	mov	r0, #1, 0
    f440:	eb000e96 	bl	12ea0 <delay_ms>
    f444:	e2844001 	add	r4, r4, #1, 0
    f448:	eafffff3 	b	f41c <emmc_issue_command+0x68>
    f44c:	e59f0164 	ldr	r0, [pc, #356]	; f5b8 <emmc_issue_command+0x204>
    f450:	eb000cf0 	bl	12818 <printk>
    f454:	e3a00000 	mov	r0, #0, 0
    f458:	ea000035 	b	f534 <emmc_issue_command+0x180>
    f45c:	e1520005 	cmp	r2, r5
    f460:	2a000035 	bcs	f53c <emmc_issue_command+0x188>
    f464:	e59f3144 	ldr	r3, [pc, #324]	; f5b0 <emmc_issue_command+0x1fc>
    f468:	e5930030 	ldr	r0, [r3, #48]	; 0x30
    f46c:	e59f2148 	ldr	r2, [pc, #328]	; f5bc <emmc_issue_command+0x208>
    f470:	e5832030 	str	r2, [r3, #48]	; 0x30
    f474:	e3c03cff 	bic	r3, r0, #65280	; 0xff00
    f478:	e3c330fe 	bic	r3, r3, #254, 0	; 0xfe
    f47c:	e3530001 	cmp	r3, #1, 0
    f480:	1a000033 	bne	f554 <emmc_issue_command+0x1a0>
    f484:	e5dd3006 	ldrb	r3, [sp, #6]
    f488:	e2033003 	and	r3, r3, #3, 0
    f48c:	e3530001 	cmp	r3, #1, 0
    f490:	0a000034 	beq	f568 <emmc_issue_command+0x1b4>
    f494:	e6af2073 	sxtb	r2, r3
    f498:	e3520000 	cmp	r2, #0, 0
    f49c:	0a000006 	beq	f4bc <emmc_issue_command+0x108>
    f4a0:	e2833002 	add	r3, r3, #2, 0
    f4a4:	e2033003 	and	r3, r3, #3, 0
    f4a8:	e3530001 	cmp	r3, #1, 0
    f4ac:	959f30fc 	ldrls	r3, [pc, #252]	; f5b0 <emmc_issue_command+0x1fc>
    f4b0:	95932010 	ldrls	r2, [r3, #16]
    f4b4:	959f30f0 	ldrls	r3, [pc, #240]	; f5ac <emmc_issue_command+0x1f8>
    f4b8:	95832014 	strls	r2, [r3, #20]
    f4bc:	e5dd3006 	ldrb	r3, [sp, #6]
    f4c0:	e3130020 	tst	r3, #32, 0
    f4c4:	1a000032 	bne	f594 <emmc_issue_command+0x1e0>
    f4c8:	e5dd3006 	ldrb	r3, [sp, #6]
    f4cc:	e2032003 	and	r2, r3, #3, 0
    f4d0:	e3520003 	cmp	r2, #3, 0
    f4d4:	0a000001 	beq	f4e0 <emmc_issue_command+0x12c>
    f4d8:	e3130020 	tst	r3, #32, 0
    f4dc:	0a000011 	beq	f528 <emmc_issue_command+0x174>
    f4e0:	e3a03e7d 	mov	r3, #2000	; 0x7d0
    f4e4:	e3a02001 	mov	r2, #1, 0
    f4e8:	e59f10d0 	ldr	r1, [pc, #208]	; f5c0 <emmc_issue_command+0x20c>
    f4ec:	e59f00d0 	ldr	r0, [pc, #208]	; f5c4 <emmc_issue_command+0x210>
    f4f0:	ebffff5c 	bl	f268 <wait_reg_mask>
    f4f4:	e59f30b4 	ldr	r3, [pc, #180]	; f5b0 <emmc_issue_command+0x1fc>
    f4f8:	e5930030 	ldr	r0, [r3, #48]	; 0x30
    f4fc:	e59f20c4 	ldr	r2, [pc, #196]	; f5c8 <emmc_issue_command+0x214>
    f500:	e5832030 	str	r2, [r3, #48]	; 0x30
    f504:	e3c03cff 	bic	r3, r0, #65280	; 0xff00
    f508:	e3c330fd 	bic	r3, r3, #253, 0	; 0xfd
    f50c:	e2822811 	add	r2, r2, #1114112	; 0x110000
    f510:	e3530002 	cmp	r3, #2, 0
    f514:	11530002 	cmpne	r3, r2
    f518:	1a000020 	bne	f5a0 <emmc_issue_command+0x1ec>
    f51c:	e59f308c 	ldr	r3, [pc, #140]	; f5b0 <emmc_issue_command+0x1fc>
    f520:	e59f20a0 	ldr	r2, [pc, #160]	; f5c8 <emmc_issue_command+0x214>
    f524:	e5832030 	str	r2, [r3, #48]	; 0x30
    f528:	e3a00001 	mov	r0, #1, 0
    f52c:	e59f3078 	ldr	r3, [pc, #120]	; f5ac <emmc_issue_command+0x1f8>
    f530:	e5c30000 	strb	r0, [r3]
    f534:	e28dd014 	add	sp, sp, #20, 0
    f538:	e8bd8030 	pop	{r4, r5, pc}
    f53c:	e59f0088 	ldr	r0, [pc, #136]	; f5cc <emmc_issue_command+0x218>
    f540:	eb000cb4 	bl	12818 <printk>
    f544:	e3a00000 	mov	r0, #0, 0
    f548:	e59f305c 	ldr	r3, [pc, #92]	; f5ac <emmc_issue_command+0x1f8>
    f54c:	e5c30000 	strb	r0, [r3]
    f550:	eafffff7 	b	f534 <emmc_issue_command+0x180>
    f554:	ebffff20 	bl	f1dc <set_last_error>
    f558:	e3a00000 	mov	r0, #0, 0
    f55c:	e59f3048 	ldr	r3, [pc, #72]	; f5ac <emmc_issue_command+0x1f8>
    f560:	e5c30000 	strb	r0, [r3]
    f564:	eafffff2 	b	f534 <emmc_issue_command+0x180>
    f568:	e59f2040 	ldr	r2, [pc, #64]	; f5b0 <emmc_issue_command+0x1fc>
    f56c:	e5921010 	ldr	r1, [r2, #16]
    f570:	e59f3034 	ldr	r3, [pc, #52]	; f5ac <emmc_issue_command+0x1f8>
    f574:	e5831014 	str	r1, [r3, #20]
    f578:	e5921014 	ldr	r1, [r2, #20]
    f57c:	e5831018 	str	r1, [r3, #24]
    f580:	e5921018 	ldr	r1, [r2, #24]
    f584:	e583101c 	str	r1, [r3, #28]
    f588:	e592201c 	ldr	r2, [r2, #28]
    f58c:	e5832020 	str	r2, [r3, #32]
    f590:	eaffffc9 	b	f4bc <emmc_issue_command+0x108>
    f594:	e59d0004 	ldr	r0, [sp, #4]
    f598:	ebffff49 	bl	f2c4 <do_data_transfer>
    f59c:	eaffffc9 	b	f4c8 <emmc_issue_command+0x114>
    f5a0:	ebffff0d 	bl	f1dc <set_last_error>
    f5a4:	e3a00000 	mov	r0, #0, 0
    f5a8:	eaffffe1 	b	f534 <emmc_issue_command+0x180>
    f5ac:	0019f190 	.word	0x0019f190
    f5b0:	20300000 	.word	0x20300000
    f5b4:	00008001 	.word	0x00008001
    f5b8:	0019cd14 	.word	0x0019cd14
    f5bc:	ffff0001 	.word	0xffff0001
    f5c0:	00008002 	.word	0x00008002
    f5c4:	20300030 	.word	0x20300030
    f5c8:	ffff0002 	.word	0xffff0002
    f5cc:	0019cd3c 	.word	0x0019cd3c

0000f5d0 <emmc_command>:
    f5d0:	e92d40f0 	push	{r4, r5, r6, r7, lr}
    f5d4:	e24dd00c 	sub	sp, sp, #12, 0
    f5d8:	e3500000 	cmp	r0, #0, 0
    f5dc:	ba000017 	blt	f640 <emmc_command+0x70>
    f5e0:	e1a06001 	mov	r6, r1
    f5e4:	e1a05002 	mov	r5, r2
    f5e8:	e59f4070 	ldr	r4, [pc, #112]	; f660 <emmc_command+0x90>
    f5ec:	e7943100 	ldr	r3, [r4, r0, lsl #2]
    f5f0:	e59f106c 	ldr	r1, [pc, #108]	; f664 <emmc_command+0x94>
    f5f4:	e5a13008 	str	r3, [r1, #8]!
    f5f8:	e3a02004 	mov	r2, #4, 0
    f5fc:	e08d0002 	add	r0, sp, r2
    f600:	eb000c12 	bl	12650 <memcpy>
    f604:	e59d7004 	ldr	r7, [sp, #4]
    f608:	e3a02004 	mov	r2, #4, 0
    f60c:	e28410e0 	add	r1, r4, #224, 0	; 0xe0
    f610:	e08d0002 	add	r0, sp, r2
    f614:	eb000c0d 	bl	12650 <memcpy>
    f618:	e59d3004 	ldr	r3, [sp, #4]
    f61c:	e1530007 	cmp	r3, r7
    f620:	0a00000a 	beq	f650 <emmc_command+0x80>
    f624:	e1a02005 	mov	r2, r5
    f628:	e1a01006 	mov	r1, r6
    f62c:	e59f3030 	ldr	r3, [pc, #48]	; f664 <emmc_command+0x94>
    f630:	e5930008 	ldr	r0, [r3, #8]
    f634:	ebffff5e 	bl	f3b4 <emmc_issue_command>
    f638:	e28dd00c 	add	sp, sp, #12, 0
    f63c:	e8bd80f0 	pop	{r4, r5, r6, r7, pc}
    f640:	e59f0020 	ldr	r0, [pc, #32]	; f668 <emmc_command+0x98>
    f644:	eb000c73 	bl	12818 <printk>
    f648:	e3a00000 	mov	r0, #0, 0
    f64c:	eafffff9 	b	f638 <emmc_command+0x68>
    f650:	e59f0014 	ldr	r0, [pc, #20]	; f66c <emmc_command+0x9c>
    f654:	eb000c6f 	bl	12818 <printk>
    f658:	e3a00000 	mov	r0, #0, 0
    f65c:	eafffff5 	b	f638 <emmc_command+0x68>
    f660:	0019d1a0 	.word	0x0019d1a0
    f664:	0019f190 	.word	0x0019f190
    f668:	0019cd68 	.word	0x0019cd68
    f66c:	0019cd8c 	.word	0x0019cd8c

0000f670 <check_v2_card>:
    f670:	e92d4010 	push	{r4, lr}
    f674:	e3a020c8 	mov	r2, #200, 0	; 0xc8
    f678:	e59f10a0 	ldr	r1, [pc, #160]	; f720 <check_v2_card+0xb0>
    f67c:	e3a00008 	mov	r0, #8, 0
    f680:	ebffffd2 	bl	f5d0 <emmc_command>
    f684:	e2504000 	subs	r4, r0, #0, 0
    f688:	1a000017 	bne	f6ec <check_v2_card+0x7c>
    f68c:	e59f3090 	ldr	r3, [pc, #144]	; f724 <check_v2_card+0xb4>
    f690:	e5933040 	ldr	r3, [r3, #64]	; 0x40
    f694:	e3530000 	cmp	r3, #0, 0
    f698:	0a000006 	beq	f6b8 <check_v2_card+0x48>
    f69c:	e3130801 	tst	r3, #65536	; 0x10000
    f6a0:	0a00000e 	beq	f6e0 <check_v2_card+0x70>
    f6a4:	ebfffed3 	bl	f1f8 <reset_command>
    f6a8:	e3500000 	cmp	r0, #0, 0
    f6ac:	1a000004 	bne	f6c4 <check_v2_card+0x54>
    f6b0:	e1a04000 	mov	r4, r0
    f6b4:	ea000013 	b	f708 <check_v2_card+0x98>
    f6b8:	e59f0068 	ldr	r0, [pc, #104]	; f728 <check_v2_card+0xb8>
    f6bc:	eb000c55 	bl	12818 <printk>
    f6c0:	ea000010 	b	f708 <check_v2_card+0x98>
    f6c4:	e3a00000 	mov	r0, #0, 0
    f6c8:	ebfffebf 	bl	f1cc <sd_error_mask>
    f6cc:	e59f3058 	ldr	r3, [pc, #88]	; f72c <check_v2_card+0xbc>
    f6d0:	e5830030 	str	r0, [r3, #48]	; 0x30
    f6d4:	e59f0054 	ldr	r0, [pc, #84]	; f730 <check_v2_card+0xc0>
    f6d8:	eb000c4e 	bl	12818 <printk>
    f6dc:	ea000009 	b	f708 <check_v2_card+0x98>
    f6e0:	e59f004c 	ldr	r0, [pc, #76]	; f734 <check_v2_card+0xc4>
    f6e4:	eb000c4b 	bl	12818 <printk>
    f6e8:	ea000006 	b	f708 <check_v2_card+0x98>
    f6ec:	e59f3030 	ldr	r3, [pc, #48]	; f724 <check_v2_card+0xb4>
    f6f0:	e5931014 	ldr	r1, [r3, #20]
    f6f4:	e1a03a01 	lsl	r3, r1, #20
    f6f8:	e1a03a23 	lsr	r3, r3, #20
    f6fc:	e59f201c 	ldr	r2, [pc, #28]	; f720 <check_v2_card+0xb0>
    f700:	e1530002 	cmp	r3, r2
    f704:	1a000001 	bne	f710 <check_v2_card+0xa0>
    f708:	e1a00004 	mov	r0, r4
    f70c:	e8bd8010 	pop	{r4, pc}
    f710:	e59f0020 	ldr	r0, [pc, #32]	; f738 <check_v2_card+0xc8>
    f714:	eb000c3f 	bl	12818 <printk>
    f718:	e3a04000 	mov	r4, #0, 0
    f71c:	eafffff9 	b	f708 <check_v2_card+0x98>
    f720:	000001aa 	.word	0x000001aa
    f724:	0019f190 	.word	0x0019f190
    f728:	0019cda8 	.word	0x0019cda8
    f72c:	20300000 	.word	0x20300000
    f730:	0019cdc8 	.word	0x0019cdc8
    f734:	0019cdec 	.word	0x0019cdec
    f738:	0019ce14 	.word	0x0019ce14

0000f73c <check_usable_card>:
    f73c:	e92d4010 	push	{r4, lr}
    f740:	e3a02ffa 	mov	r2, #1000	; 0x3e8
    f744:	e3a01000 	mov	r1, #0, 0
    f748:	e3a00005 	mov	r0, #5, 0
    f74c:	ebffff9f 	bl	f5d0 <emmc_command>
    f750:	e2504000 	subs	r4, r0, #0, 0
    f754:	1a000010 	bne	f79c <check_usable_card+0x60>
    f758:	e59f3050 	ldr	r3, [pc, #80]	; f7b0 <check_usable_card+0x74>
    f75c:	e5933040 	ldr	r3, [r3, #64]	; 0x40
    f760:	e3530000 	cmp	r3, #0, 0
    f764:	0a000009 	beq	f790 <check_usable_card+0x54>
    f768:	e3130801 	tst	r3, #65536	; 0x10000
    f76c:	0a00000c 	beq	f7a4 <check_usable_card+0x68>
    f770:	ebfffea0 	bl	f1f8 <reset_command>
    f774:	e2504000 	subs	r4, r0, #0, 0
    f778:	0a000007 	beq	f79c <check_usable_card+0x60>
    f77c:	e3a00000 	mov	r0, #0, 0
    f780:	ebfffe91 	bl	f1cc <sd_error_mask>
    f784:	e59f3028 	ldr	r3, [pc, #40]	; f7b4 <check_usable_card+0x78>
    f788:	e5830030 	str	r0, [r3, #48]	; 0x30
    f78c:	ea000002 	b	f79c <check_usable_card+0x60>
    f790:	e59f0020 	ldr	r0, [pc, #32]	; f7b8 <check_usable_card+0x7c>
    f794:	eb000c1f 	bl	12818 <printk>
    f798:	e3a04001 	mov	r4, #1, 0
    f79c:	e1a00004 	mov	r0, r4
    f7a0:	e8bd8010 	pop	{r4, pc}
    f7a4:	e59f0010 	ldr	r0, [pc, #16]	; f7bc <check_usable_card+0x80>
    f7a8:	eb000c1a 	bl	12818 <printk>
    f7ac:	eafffffa 	b	f79c <check_usable_card+0x60>
    f7b0:	0019f190 	.word	0x0019f190
    f7b4:	20300000 	.word	0x20300000
    f7b8:	0019ce34 	.word	0x0019ce34
    f7bc:	0019ce58 	.word	0x0019ce58

0000f7c0 <check_rca>:
    f7c0:	e92d4010 	push	{r4, lr}
    f7c4:	e3a02e7d 	mov	r2, #2000	; 0x7d0
    f7c8:	e3a01000 	mov	r1, #0, 0
    f7cc:	e3a00002 	mov	r0, #2, 0
    f7d0:	ebffff7e 	bl	f5d0 <emmc_command>
    f7d4:	e2504000 	subs	r4, r0, #0, 0
    f7d8:	0a00000d 	beq	f814 <check_rca+0x54>
    f7dc:	e3a02e7d 	mov	r2, #2000	; 0x7d0
    f7e0:	e3a01000 	mov	r1, #0, 0
    f7e4:	e3a00003 	mov	r0, #3, 0
    f7e8:	ebffff78 	bl	f5d0 <emmc_command>
    f7ec:	e2504000 	subs	r4, r0, #0, 0
    f7f0:	0a00000a 	beq	f820 <check_rca+0x60>
    f7f4:	e59f2040 	ldr	r2, [pc, #64]	; f83c <check_rca+0x7c>
    f7f8:	e5923014 	ldr	r3, [r2, #20]
    f7fc:	e1a01823 	lsr	r1, r3, #16
    f800:	e5821028 	str	r1, [r2, #40]	; 0x28
    f804:	e3130c01 	tst	r3, #256	; 0x100
    f808:	0a000007 	beq	f82c <check_rca+0x6c>
    f80c:	e1a00004 	mov	r0, r4
    f810:	e8bd8010 	pop	{r4, pc}
    f814:	e59f0024 	ldr	r0, [pc, #36]	; f840 <check_rca+0x80>
    f818:	eb000bfe 	bl	12818 <printk>
    f81c:	eafffffa 	b	f80c <check_rca+0x4c>
    f820:	e59f001c 	ldr	r0, [pc, #28]	; f844 <check_rca+0x84>
    f824:	eb000bfb 	bl	12818 <printk>
    f828:	eafffff7 	b	f80c <check_rca+0x4c>
    f82c:	e59f0014 	ldr	r0, [pc, #20]	; f848 <check_rca+0x88>
    f830:	eb000bf8 	bl	12818 <printk>
    f834:	e3a04000 	mov	r4, #0, 0
    f838:	eafffff3 	b	f80c <check_rca+0x4c>
    f83c:	0019f190 	.word	0x0019f190
    f840:	0019ce7c 	.word	0x0019ce7c
    f844:	0019ce9c 	.word	0x0019ce9c
    f848:	0019cec4 	.word	0x0019cec4

0000f84c <select_card>:
    f84c:	e92d4010 	push	{r4, lr}
    f850:	e59f3058 	ldr	r3, [pc, #88]	; f8b0 <select_card+0x64>
    f854:	e5931028 	ldr	r1, [r3, #40]	; 0x28
    f858:	e3a02e7d 	mov	r2, #2000	; 0x7d0
    f85c:	e1a01801 	lsl	r1, r1, #16
    f860:	e3a00007 	mov	r0, #7, 0
    f864:	ebffff59 	bl	f5d0 <emmc_command>
    f868:	e2504000 	subs	r4, r0, #0, 0
    f86c:	0a000008 	beq	f894 <select_card+0x48>
    f870:	e59f3038 	ldr	r3, [pc, #56]	; f8b0 <select_card+0x64>
    f874:	e5931014 	ldr	r1, [r3, #20]
    f878:	e1a014a1 	lsr	r1, r1, #9
    f87c:	e201100f 	and	r1, r1, #15, 0
    f880:	e2413003 	sub	r3, r1, #3, 0
    f884:	e3530001 	cmp	r3, #1, 0
    f888:	8a000004 	bhi	f8a0 <select_card+0x54>
    f88c:	e1a00004 	mov	r0, r4
    f890:	e8bd8010 	pop	{r4, pc}
    f894:	e59f0018 	ldr	r0, [pc, #24]	; f8b4 <select_card+0x68>
    f898:	eb000bde 	bl	12818 <printk>
    f89c:	eafffffa 	b	f88c <select_card+0x40>
    f8a0:	e59f0010 	ldr	r0, [pc, #16]	; f8b8 <select_card+0x6c>
    f8a4:	eb000bdb 	bl	12818 <printk>
    f8a8:	e3a04000 	mov	r4, #0, 0
    f8ac:	eafffff6 	b	f88c <select_card+0x40>
    f8b0:	0019f190 	.word	0x0019f190
    f8b4:	0019cee4 	.word	0x0019cee4
    f8b8:	0019cf08 	.word	0x0019cf08

0000f8bc <do_data_command>:
    f8bc:	e92d40f0 	push	{r4, r5, r6, r7, lr}
    f8c0:	e24dd00c 	sub	sp, sp, #12, 0
    f8c4:	e1a0c001 	mov	ip, r1
    f8c8:	e1a01002 	mov	r1, r2
    f8cc:	e1a05003 	mov	r5, r3
    f8d0:	e59f3114 	ldr	r3, [pc, #276]	; f9ec <do_data_command+0x130>
    f8d4:	e5d33024 	ldrb	r3, [r3, #36]	; 0x24
    f8d8:	e3530000 	cmp	r3, #0, 0
    f8dc:	01a05485 	lsleq	r5, r5, #9
    f8e0:	e59f3104 	ldr	r3, [pc, #260]	; f9ec <do_data_command+0x130>
    f8e4:	e5932010 	ldr	r2, [r3, #16]
    f8e8:	e1520001 	cmp	r2, r1
    f8ec:	8a000010 	bhi	f934 <do_data_command+0x78>
    f8f0:	e3520c02 	cmp	r2, #512	; 0x200
    f8f4:	1a000012 	bne	f944 <do_data_command+0x88>
    f8f8:	e1a034a1 	lsr	r3, r1, #9
    f8fc:	e59f20e8 	ldr	r2, [pc, #232]	; f9ec <do_data_command+0x130>
    f900:	e5823004 	str	r3, [r2, #4]
    f904:	e1a02b81 	lsl	r2, r1, #23
    f908:	e1a02ba2 	lsr	r2, r2, #23
    f90c:	e3520000 	cmp	r2, #0, 0
    f910:	1a000013 	bne	f964 <do_data_command+0xa8>
    f914:	e59f20d0 	ldr	r2, [pc, #208]	; f9ec <do_data_command+0x130>
    f918:	e582c038 	str	ip, [r2, #56]	; 0x38
    f91c:	e3500000 	cmp	r0, #0, 0
    f920:	0a000013 	beq	f974 <do_data_command+0xb8>
    f924:	e3530001 	cmp	r3, #1, 0
    f928:	9a000011 	bls	f974 <do_data_command+0xb8>
    f92c:	e3a07019 	mov	r7, #25, 0
    f930:	ea000017 	b	f994 <do_data_command+0xd8>
    f934:	e59f00b4 	ldr	r0, [pc, #180]	; f9f0 <do_data_command+0x134>
    f938:	eb000bb6 	bl	12818 <printk>
    f93c:	e3a04000 	mov	r4, #0, 0
    f940:	ea000026 	b	f9e0 <do_data_command+0x124>
    f944:	e59f30a8 	ldr	r3, [pc, #168]	; f9f4 <do_data_command+0x138>
    f948:	e58d3000 	str	r3, [sp]
    f94c:	e59f30a4 	ldr	r3, [pc, #164]	; f9f8 <do_data_command+0x13c>
    f950:	e59f20a4 	ldr	r2, [pc, #164]	; f9fc <do_data_command+0x140>
    f954:	e59f10a4 	ldr	r1, [pc, #164]	; fa00 <do_data_command+0x144>
    f958:	e59f00a4 	ldr	r0, [pc, #164]	; fa04 <do_data_command+0x148>
    f95c:	eb000bad 	bl	12818 <printk>
    f960:	eb000cf1 	bl	12d2c <clean_reboot>
    f964:	e59f009c 	ldr	r0, [pc, #156]	; fa08 <do_data_command+0x14c>
    f968:	eb000baa 	bl	12818 <printk>
    f96c:	e3a04000 	mov	r4, #0, 0
    f970:	ea00001a 	b	f9e0 <do_data_command+0x124>
    f974:	e3500000 	cmp	r0, #0, 0
    f978:	1a000004 	bne	f990 <do_data_command+0xd4>
    f97c:	e3530001 	cmp	r3, #1, 0
    f980:	83a07012 	movhi	r7, #18, 0
    f984:	8a000002 	bhi	f994 <do_data_command+0xd8>
    f988:	e3a07011 	mov	r7, #17, 0
    f98c:	ea000000 	b	f994 <do_data_command+0xd8>
    f990:	e3a07018 	mov	r7, #24, 0
    f994:	e3a06000 	mov	r6, #0, 0
    f998:	e3560002 	cmp	r6, #2, 0
    f99c:	ca00000e 	bgt	f9dc <do_data_command+0x120>
    f9a0:	e59f2064 	ldr	r2, [pc, #100]	; fa0c <do_data_command+0x150>
    f9a4:	e1a01005 	mov	r1, r5
    f9a8:	e1a00007 	mov	r0, r7
    f9ac:	ebffff07 	bl	f5d0 <emmc_command>
    f9b0:	e2504000 	subs	r4, r0, #0, 0
    f9b4:	1a000009 	bne	f9e0 <do_data_command+0x124>
    f9b8:	e2866001 	add	r6, r6, #1, 0
    f9bc:	e3560002 	cmp	r6, #2, 0
    f9c0:	ca000002 	bgt	f9d0 <do_data_command+0x114>
    f9c4:	e59f0044 	ldr	r0, [pc, #68]	; fa10 <do_data_command+0x154>
    f9c8:	eb000b92 	bl	12818 <printk>
    f9cc:	eafffff1 	b	f998 <do_data_command+0xdc>
    f9d0:	e59f003c 	ldr	r0, [pc, #60]	; fa14 <do_data_command+0x158>
    f9d4:	eb000b8f 	bl	12818 <printk>
    f9d8:	ea000000 	b	f9e0 <do_data_command+0x124>
    f9dc:	e3a04001 	mov	r4, #1, 0
    f9e0:	e1a00004 	mov	r0, r4
    f9e4:	e28dd00c 	add	sp, sp, #12, 0
    f9e8:	e8bd80f0 	pop	{r4, r5, r6, r7, pc}
    f9ec:	0019f190 	.word	0x0019f190
    f9f0:	0019cf28 	.word	0x0019cf28
    f9f4:	0019cf80 	.word	0x0019cf80
    f9f8:	000002b1 	.word	0x000002b1
    f9fc:	0019d284 	.word	0x0019d284
    fa00:	0019cf48 	.word	0x0019cf48
    fa04:	0019b6f4 	.word	0x0019b6f4
    fa08:	0019cf9c 	.word	0x0019cf9c
    fa0c:	00001388 	.word	0x00001388
    fa10:	0019cfb8 	.word	0x0019cfb8
    fa14:	0019cfdc 	.word	0x0019cfdc

0000fa18 <emmc_setup_clock>:
    fa18:	e92d4070 	push	{r4, r5, r6, lr}
    fa1c:	e59f5074 	ldr	r5, [pc, #116]	; fa98 <emmc_setup_clock+0x80>
    fa20:	e3a03000 	mov	r3, #0, 0
    fa24:	e585303c 	str	r3, [r5, #60]	; 0x3c
    fa28:	e595402c 	ldr	r4, [r5, #44]	; 0x2c
    fa2c:	e3844001 	orr	r4, r4, #1, 0
    fa30:	e59f0064 	ldr	r0, [pc, #100]	; fa9c <emmc_setup_clock+0x84>
    fa34:	ebfffdb3 	bl	f108 <get_clock_divider>
    fa38:	e1844000 	orr	r4, r4, r0
    fa3c:	e3c4480f 	bic	r4, r4, #983040	; 0xf0000
    fa40:	e384480b 	orr	r4, r4, #720896	; 0xb0000
    fa44:	e585402c 	str	r4, [r5, #44]	; 0x2c
    fa48:	e3a03e7d 	mov	r3, #2000	; 0x7d0
    fa4c:	e3a02001 	mov	r2, #1, 0
    fa50:	e3a01002 	mov	r1, #2, 0
    fa54:	e59f0044 	ldr	r0, [pc, #68]	; faa0 <emmc_setup_clock+0x88>
    fa58:	ebfffe02 	bl	f268 <wait_reg_mask>
    fa5c:	e2504000 	subs	r4, r0, #0, 0
    fa60:	0a000009 	beq	fa8c <emmc_setup_clock+0x74>
    fa64:	e3a0001e 	mov	r0, #30, 0
    fa68:	eb000d0c 	bl	12ea0 <delay_ms>
    fa6c:	e59f2024 	ldr	r2, [pc, #36]	; fa98 <emmc_setup_clock+0x80>
    fa70:	e592302c 	ldr	r3, [r2, #44]	; 0x2c
    fa74:	e3833004 	orr	r3, r3, #4, 0
    fa78:	e582302c 	str	r3, [r2, #44]	; 0x2c
    fa7c:	e3a0001e 	mov	r0, #30, 0
    fa80:	eb000d06 	bl	12ea0 <delay_ms>
    fa84:	e1a00004 	mov	r0, r4
    fa88:	e8bd8070 	pop	{r4, r5, r6, pc}
    fa8c:	e59f0010 	ldr	r0, [pc, #16]	; faa4 <emmc_setup_clock+0x8c>
    fa90:	eb000b60 	bl	12818 <printk>
    fa94:	eafffffa 	b	fa84 <emmc_setup_clock+0x6c>
    fa98:	20300000 	.word	0x20300000
    fa9c:	0ee6b280 	.word	0x0ee6b280
    faa0:	2030002c 	.word	0x2030002c
    faa4:	0019d000 	.word	0x0019d000

0000faa8 <emmc_app_command>:
    faa8:	e92d4070 	push	{r4, r5, r6, lr}
    faac:	e59f307c 	ldr	r3, [pc, #124]	; fb30 <emmc_app_command+0x88>
    fab0:	e0833100 	add	r3, r3, r0, lsl #2
    fab4:	e5d33003 	ldrb	r3, [r3, #3]
    fab8:	e203303f 	and	r3, r3, #63, 0	; 0x3f
    fabc:	e353003b 	cmp	r3, #59, 0	; 0x3b
    fac0:	8a000016 	bhi	fb20 <emmc_app_command+0x78>
    fac4:	e1a04000 	mov	r4, r0
    fac8:	e1a05001 	mov	r5, r1
    facc:	e59f3060 	ldr	r3, [pc, #96]	; fb34 <emmc_app_command+0x8c>
    fad0:	e59f2058 	ldr	r2, [pc, #88]	; fb30 <emmc_app_command+0x88>
    fad4:	e59220dc 	ldr	r2, [r2, #220]	; 0xdc
    fad8:	e5832008 	str	r2, [r3, #8]
    fadc:	e5931028 	ldr	r1, [r3, #40]	; 0x28
    fae0:	e3510000 	cmp	r1, #0, 0
    fae4:	11a01801 	lslne	r1, r1, #16
    fae8:	e3a02e7d 	mov	r2, #2000	; 0x7d0
    faec:	e59f3040 	ldr	r3, [pc, #64]	; fb34 <emmc_app_command+0x8c>
    faf0:	e5930008 	ldr	r0, [r3, #8]
    faf4:	ebfffe2e 	bl	f3b4 <emmc_issue_command>
    faf8:	e3500000 	cmp	r0, #0, 0
    fafc:	08bd8070 	popeq	{r4, r5, r6, pc}
    fb00:	e59f3028 	ldr	r3, [pc, #40]	; fb30 <emmc_app_command+0x88>
    fb04:	e7930104 	ldr	r0, [r3, r4, lsl #2]
    fb08:	e59f3024 	ldr	r3, [pc, #36]	; fb34 <emmc_app_command+0x8c>
    fb0c:	e5830008 	str	r0, [r3, #8]
    fb10:	e3a02e7d 	mov	r2, #2000	; 0x7d0
    fb14:	e1a01005 	mov	r1, r5
    fb18:	ebfffe25 	bl	f3b4 <emmc_issue_command>
    fb1c:	e8bd8070 	pop	{r4, r5, r6, pc}
    fb20:	e59f0010 	ldr	r0, [pc, #16]	; fb38 <emmc_app_command+0x90>
    fb24:	eb000b3b 	bl	12818 <printk>
    fb28:	e3a00000 	mov	r0, #0, 0
    fb2c:	e8bd8070 	pop	{r4, r5, r6, pc}
    fb30:	0019d1a0 	.word	0x0019d1a0
    fb34:	0019f190 	.word	0x0019f190
    fb38:	0019d020 	.word	0x0019d020

0000fb3c <check_ocr>:
    fb3c:	e92d4010 	push	{r4, lr}
    fb40:	e3a02e7d 	mov	r2, #2000	; 0x7d0
    fb44:	e3a01000 	mov	r1, #0, 0
    fb48:	e3a00029 	mov	r0, #41, 0	; 0x29
    fb4c:	ebffffd5 	bl	faa8 <emmc_app_command>
    fb50:	e2504000 	subs	r4, r0, #0, 0
    fb54:	0a000005 	beq	fb70 <check_ocr+0x34>
    fb58:	e59f2020 	ldr	r2, [pc, #32]	; fb80 <check_ocr+0x44>
    fb5c:	e5923014 	ldr	r3, [r2, #20]
    fb60:	e1a03423 	lsr	r3, r3, #8
    fb64:	e1c232b6 	strh	r3, [r2, #38]	; 0x26
    fb68:	e1a00004 	mov	r0, r4
    fb6c:	e8bd8010 	pop	{r4, pc}
    fb70:	e3a01001 	mov	r1, #1, 0
    fb74:	e59f0008 	ldr	r0, [pc, #8]	; fb84 <check_ocr+0x48>
    fb78:	eb000b26 	bl	12818 <printk>
    fb7c:	eafffff9 	b	fb68 <check_ocr+0x2c>
    fb80:	0019f190 	.word	0x0019f190
    fb84:	0019d040 	.word	0x0019d040

0000fb88 <check_sdhc_support>:
    fb88:	e92d4070 	push	{r4, r5, r6, lr}
    fb8c:	e1a05000 	mov	r5, r0
    fb90:	ea00000d 	b	fbcc <check_sdhc_support+0x44>
    fb94:	e3a01101 	mov	r1, #1073741824	; 0x40000000
    fb98:	e3a02e7d 	mov	r2, #2000	; 0x7d0
    fb9c:	e38118ff 	orr	r1, r1, #16711680	; 0xff0000
    fba0:	e3811902 	orr	r1, r1, #32768	; 0x8000
    fba4:	e3a00029 	mov	r0, #41, 0	; 0x29
    fba8:	ebffffbe 	bl	faa8 <emmc_app_command>
    fbac:	e2504000 	subs	r4, r0, #0, 0
    fbb0:	0a000009 	beq	fbdc <check_sdhc_support+0x54>
    fbb4:	e59f304c 	ldr	r3, [pc, #76]	; fc08 <check_sdhc_support+0x80>
    fbb8:	e5933014 	ldr	r3, [r3, #20]
    fbbc:	e3530000 	cmp	r3, #0, 0
    fbc0:	ba000009 	blt	fbec <check_sdhc_support+0x64>
    fbc4:	e3a00f7d 	mov	r0, #500	; 0x1f4
    fbc8:	eb000cb4 	bl	12ea0 <delay_ms>
    fbcc:	e3550000 	cmp	r5, #0, 0
    fbd0:	1affffef 	bne	fb94 <check_sdhc_support+0xc>
    fbd4:	e3a01000 	mov	r1, #0, 0
    fbd8:	eaffffee 	b	fb98 <check_sdhc_support+0x10>
    fbdc:	e59f0028 	ldr	r0, [pc, #40]	; fc0c <check_sdhc_support+0x84>
    fbe0:	eb000b0c 	bl	12818 <printk>
    fbe4:	e1a00004 	mov	r0, r4
    fbe8:	e8bd8070 	pop	{r4, r5, r6, pc}
    fbec:	e1a01423 	lsr	r1, r3, #8
    fbf0:	e59f2010 	ldr	r2, [pc, #16]	; fc08 <check_sdhc_support+0x80>
    fbf4:	e1c212b6 	strh	r1, [r2, #38]	; 0x26
    fbf8:	e1a03f23 	lsr	r3, r3, #30
    fbfc:	e2033001 	and	r3, r3, #1, 0
    fc00:	e5c23024 	strb	r3, [r2, #36]	; 0x24
    fc04:	eafffff6 	b	fbe4 <check_sdhc_support+0x5c>
    fc08:	0019f190 	.word	0x0019f190
    fc0c:	0019d06c 	.word	0x0019d06c

0000fc10 <set_scr>:
    fc10:	e92d4010 	push	{r4, lr}
    fc14:	e59f313c 	ldr	r3, [pc, #316]	; fd58 <set_scr+0x148>
    fc18:	e5d33024 	ldrb	r3, [r3, #36]	; 0x24
    fc1c:	e3530000 	cmp	r3, #0, 0
    fc20:	1a000005 	bne	fc3c <set_scr+0x2c>
    fc24:	e3a02e7d 	mov	r2, #2000	; 0x7d0
    fc28:	e3a01c02 	mov	r1, #512	; 0x200
    fc2c:	e3a00010 	mov	r0, #16, 0
    fc30:	ebfffe66 	bl	f5d0 <emmc_command>
    fc34:	e2504000 	subs	r4, r0, #0, 0
    fc38:	0a00002a 	beq	fce8 <set_scr+0xd8>
    fc3c:	e59f2118 	ldr	r2, [pc, #280]	; fd5c <set_scr+0x14c>
    fc40:	e5923004 	ldr	r3, [r2, #4]
    fc44:	e3c33eff 	bic	r3, r3, #4080	; 0xff0
    fc48:	e3c3300f 	bic	r3, r3, #15, 0
    fc4c:	e3833c02 	orr	r3, r3, #512	; 0x200
    fc50:	e5823004 	str	r3, [r2, #4]
    fc54:	e59f30fc 	ldr	r3, [pc, #252]	; fd58 <set_scr+0x148>
    fc58:	e2832048 	add	r2, r3, #72, 0	; 0x48
    fc5c:	e5832038 	str	r2, [r3, #56]	; 0x38
    fc60:	e3a02008 	mov	r2, #8, 0
    fc64:	e5832010 	str	r2, [r3, #16]
    fc68:	e3a02001 	mov	r2, #1, 0
    fc6c:	e5832004 	str	r2, [r3, #4]
    fc70:	e59f20e8 	ldr	r2, [pc, #232]	; fd60 <set_scr+0x150>
    fc74:	e3a01000 	mov	r1, #0, 0
    fc78:	e3a00033 	mov	r0, #51, 0	; 0x33
    fc7c:	ebffff89 	bl	faa8 <emmc_app_command>
    fc80:	e2504000 	subs	r4, r0, #0, 0
    fc84:	0a00001a 	beq	fcf4 <set_scr+0xe4>
    fc88:	e59f10c8 	ldr	r1, [pc, #200]	; fd58 <set_scr+0x148>
    fc8c:	e3a03c02 	mov	r3, #512	; 0x200
    fc90:	e5813010 	str	r3, [r1, #16]
    fc94:	e5913048 	ldr	r3, [r1, #72]	; 0x48
    fc98:	e1a02403 	lsl	r2, r3, #8
    fc9c:	e20228ff 	and	r2, r2, #16711680	; 0xff0000
    fca0:	e1822c03 	orr	r2, r2, r3, lsl #24
    fca4:	e1a03423 	lsr	r3, r3, #8
    fca8:	e2033cff 	and	r3, r3, #65280	; 0xff00
    fcac:	e1823003 	orr	r3, r2, r3
    fcb0:	e3e00000 	mvn	r0, #0, 0
    fcb4:	e5810054 	str	r0, [r1, #84]	; 0x54
    fcb8:	e1a02c22 	lsr	r2, r2, #24
    fcbc:	e1a017a3 	lsr	r1, r3, #15
    fcc0:	e2011001 	and	r1, r1, #1, 0
    fcc4:	e1a03523 	lsr	r3, r3, #10
    fcc8:	e2033001 	and	r3, r3, #1, 0
    fccc:	e212200f 	ands	r2, r2, #15, 0
    fcd0:	1a00000a 	bne	fd00 <set_scr+0xf0>
    fcd4:	e59f307c 	ldr	r3, [pc, #124]	; fd58 <set_scr+0x148>
    fcd8:	e3a02001 	mov	r2, #1, 0
    fcdc:	e5832054 	str	r2, [r3, #84]	; 0x54
    fce0:	e1a00004 	mov	r0, r4
    fce4:	e8bd8010 	pop	{r4, pc}
    fce8:	e59f0074 	ldr	r0, [pc, #116]	; fd64 <set_scr+0x154>
    fcec:	eb000ac9 	bl	12818 <printk>
    fcf0:	eafffffa 	b	fce0 <set_scr+0xd0>
    fcf4:	e59f006c 	ldr	r0, [pc, #108]	; fd68 <set_scr+0x158>
    fcf8:	eb000ac6 	bl	12818 <printk>
    fcfc:	eafffff7 	b	fce0 <set_scr+0xd0>
    fd00:	e3520001 	cmp	r2, #1, 0
    fd04:	0a000006 	beq	fd24 <set_scr+0x114>
    fd08:	e3520002 	cmp	r2, #2, 0
    fd0c:	1afffff3 	bne	fce0 <set_scr+0xd0>
    fd10:	e3510000 	cmp	r1, #0, 0
    fd14:	1a000006 	bne	fd34 <set_scr+0x124>
    fd18:	e59f3038 	ldr	r3, [pc, #56]	; fd58 <set_scr+0x148>
    fd1c:	e5832054 	str	r2, [r3, #84]	; 0x54
    fd20:	eaffffee 	b	fce0 <set_scr+0xd0>
    fd24:	e59f302c 	ldr	r3, [pc, #44]	; fd58 <set_scr+0x148>
    fd28:	e3a0200b 	mov	r2, #11, 0
    fd2c:	e5832054 	str	r2, [r3, #84]	; 0x54
    fd30:	eaffffea 	b	fce0 <set_scr+0xd0>
    fd34:	e3530000 	cmp	r3, #0, 0
    fd38:	059f2018 	ldreq	r2, [pc, #24]	; fd58 <set_scr+0x148>
    fd3c:	03a01003 	moveq	r1, #3, 0
    fd40:	05821054 	streq	r1, [r2, #84]	; 0x54
    fd44:	e3530000 	cmp	r3, #0, 0
    fd48:	159f3008 	ldrne	r3, [pc, #8]	; fd58 <set_scr+0x148>
    fd4c:	13a02004 	movne	r2, #4, 0
    fd50:	15832054 	strne	r2, [r3, #84]	; 0x54
    fd54:	eaffffe1 	b	fce0 <set_scr+0xd0>
    fd58:	0019f190 	.word	0x0019f190
    fd5c:	20300000 	.word	0x20300000
    fd60:	00007530 	.word	0x00007530
    fd64:	0019d090 	.word	0x0019d090
    fd68:	0019d0b4 	.word	0x0019d0b4

0000fd6c <emmc_card_reset>:
    fd6c:	e92d4070 	push	{r4, r5, r6, lr}
    fd70:	e59f30fc 	ldr	r3, [pc, #252]	; fe74 <emmc_card_reset+0x108>
    fd74:	e3a02401 	mov	r2, #16777216	; 0x1000000
    fd78:	e583202c 	str	r2, [r3, #44]	; 0x2c
    fd7c:	e3a03e7d 	mov	r3, #2000	; 0x7d0
    fd80:	e3a02000 	mov	r2, #0, 0
    fd84:	e3a01407 	mov	r1, #117440512	; 0x7000000
    fd88:	e59f00e8 	ldr	r0, [pc, #232]	; fe78 <emmc_card_reset+0x10c>
    fd8c:	ebfffd35 	bl	f268 <wait_reg_mask>
    fd90:	e2504000 	subs	r4, r0, #0, 0
    fd94:	0a00002f 	beq	fe58 <emmc_card_reset+0xec>
    fd98:	ebffff1e 	bl	fa18 <emmc_setup_clock>
    fd9c:	e2504000 	subs	r4, r0, #0, 0
    fda0:	0a00002e 	beq	fe60 <emmc_card_reset+0xf4>
    fda4:	e59f30c8 	ldr	r3, [pc, #200]	; fe74 <emmc_card_reset+0x108>
    fda8:	e3a04000 	mov	r4, #0, 0
    fdac:	e5834038 	str	r4, [r3, #56]	; 0x38
    fdb0:	e3e02000 	mvn	r2, #0, 0
    fdb4:	e5832030 	str	r2, [r3, #48]	; 0x30
    fdb8:	e5832034 	str	r2, [r3, #52]	; 0x34
    fdbc:	e3a000cb 	mov	r0, #203, 0	; 0xcb
    fdc0:	eb000c36 	bl	12ea0 <delay_ms>
    fdc4:	e59f30b0 	ldr	r3, [pc, #176]	; fe7c <emmc_card_reset+0x110>
    fdc8:	e5834004 	str	r4, [r3, #4]
    fdcc:	e583400c 	str	r4, [r3, #12]
    fdd0:	e5c34000 	strb	r4, [r3]
    fdd4:	e5834010 	str	r4, [r3, #16]
    fdd8:	e3a02e7d 	mov	r2, #2000	; 0x7d0
    fddc:	e1a01004 	mov	r1, r4
    fde0:	e1a00004 	mov	r0, r4
    fde4:	ebfffdf9 	bl	f5d0 <emmc_command>
    fde8:	e2504000 	subs	r4, r0, #0, 0
    fdec:	0a00001d 	beq	fe68 <emmc_card_reset+0xfc>
    fdf0:	ebfffe1e 	bl	f670 <check_v2_card>
    fdf4:	e1a05000 	mov	r5, r0
    fdf8:	ebfffe4f 	bl	f73c <check_usable_card>
    fdfc:	e2504000 	subs	r4, r0, #0, 0
    fe00:	0a000016 	beq	fe60 <emmc_card_reset+0xf4>
    fe04:	ebffff4c 	bl	fb3c <check_ocr>
    fe08:	e2504000 	subs	r4, r0, #0, 0
    fe0c:	0a000013 	beq	fe60 <emmc_card_reset+0xf4>
    fe10:	e1a00005 	mov	r0, r5
    fe14:	ebffff5b 	bl	fb88 <check_sdhc_support>
    fe18:	e2504000 	subs	r4, r0, #0, 0
    fe1c:	0a00000f 	beq	fe60 <emmc_card_reset+0xf4>
    fe20:	e3a0000a 	mov	r0, #10, 0
    fe24:	eb000c1d 	bl	12ea0 <delay_ms>
    fe28:	ebfffe64 	bl	f7c0 <check_rca>
    fe2c:	e2504000 	subs	r4, r0, #0, 0
    fe30:	0a00000a 	beq	fe60 <emmc_card_reset+0xf4>
    fe34:	ebfffe84 	bl	f84c <select_card>
    fe38:	e2504000 	subs	r4, r0, #0, 0
    fe3c:	0a000007 	beq	fe60 <emmc_card_reset+0xf4>
    fe40:	ebffff72 	bl	fc10 <set_scr>
    fe44:	e2504000 	subs	r4, r0, #0, 0
    fe48:	159f3024 	ldrne	r3, [pc, #36]	; fe74 <emmc_card_reset+0x108>
    fe4c:	13e02000 	mvnne	r2, #0, 0
    fe50:	15832030 	strne	r2, [r3, #48]	; 0x30
    fe54:	ea000001 	b	fe60 <emmc_card_reset+0xf4>
    fe58:	e59f0020 	ldr	r0, [pc, #32]	; fe80 <emmc_card_reset+0x114>
    fe5c:	eb000a6d 	bl	12818 <printk>
    fe60:	e1a00004 	mov	r0, r4
    fe64:	e8bd8070 	pop	{r4, r5, r6, pc}
    fe68:	e59f0014 	ldr	r0, [pc, #20]	; fe84 <emmc_card_reset+0x118>
    fe6c:	eb000a69 	bl	12818 <printk>
    fe70:	eafffffa 	b	fe60 <emmc_card_reset+0xf4>
    fe74:	20300000 	.word	0x20300000
    fe78:	2030002c 	.word	0x2030002c
    fe7c:	0019f190 	.word	0x0019f190
    fe80:	0019d0d4 	.word	0x0019d0d4
    fe84:	0019d0f4 	.word	0x0019d0f4

0000fe88 <emmc_read>:
    fe88:	e92d4030 	push	{r4, r5, lr}
    fe8c:	e24dd00c 	sub	sp, sp, #12, 0
    fe90:	e1a03b82 	lsl	r3, r2, #23
    fe94:	e1a03ba3 	lsr	r3, r3, #23
    fe98:	e3530000 	cmp	r3, #0, 0
    fe9c:	1a000009 	bne	fec8 <emmc_read+0x40>
    fea0:	e1a05000 	mov	r5, r0
    fea4:	e1a04002 	mov	r4, r2
    fea8:	e1a03000 	mov	r3, r0
    feac:	e3a00000 	mov	r0, #0, 0
    feb0:	ebfffe81 	bl	f8bc <do_data_command>
    feb4:	e3500000 	cmp	r0, #0, 0
    feb8:	0a00000a 	beq	fee8 <emmc_read+0x60>
    febc:	e1a00004 	mov	r0, r4
    fec0:	e28dd00c 	add	sp, sp, #12, 0
    fec4:	e8bd8030 	pop	{r4, r5, pc}
    fec8:	e59f3030 	ldr	r3, [pc, #48]	; ff00 <emmc_read+0x78>
    fecc:	e58d3000 	str	r3, [sp]
    fed0:	e59f302c 	ldr	r3, [pc, #44]	; ff04 <emmc_read+0x7c>
    fed4:	e59f202c 	ldr	r2, [pc, #44]	; ff08 <emmc_read+0x80>
    fed8:	e59f102c 	ldr	r1, [pc, #44]	; ff0c <emmc_read+0x84>
    fedc:	e59f002c 	ldr	r0, [pc, #44]	; ff10 <emmc_read+0x88>
    fee0:	eb000a4c 	bl	12818 <printk>
    fee4:	eb000b90 	bl	12d2c <clean_reboot>
    fee8:	e1a02004 	mov	r2, r4
    feec:	e1a01005 	mov	r1, r5
    fef0:	e59f001c 	ldr	r0, [pc, #28]	; ff14 <emmc_read+0x8c>
    fef4:	eb000a47 	bl	12818 <printk>
    fef8:	e3e00000 	mvn	r0, #0, 0
    fefc:	eaffffef 	b	fec0 <emmc_read+0x38>
    ff00:	0019d114 	.word	0x0019d114
    ff04:	000002dd 	.word	0x000002dd
    ff08:	0019d294 	.word	0x0019d294
    ff0c:	0019cf48 	.word	0x0019cf48
    ff10:	0019b6f4 	.word	0x0019b6f4
    ff14:	0019d124 	.word	0x0019d124

0000ff18 <emmc_write>:
    ff18:	e92d4010 	push	{r4, lr}
    ff1c:	e24dd008 	sub	sp, sp, #8, 0
    ff20:	e1a04002 	mov	r4, r2
    ff24:	e1a02b82 	lsl	r2, r2, #23
    ff28:	e1a02ba2 	lsr	r2, r2, #23
    ff2c:	e3520000 	cmp	r2, #0, 0
    ff30:	1a000008 	bne	ff58 <emmc_write+0x40>
    ff34:	e1a03000 	mov	r3, r0
    ff38:	e1a02004 	mov	r2, r4
    ff3c:	e3a00001 	mov	r0, #1, 0
    ff40:	ebfffe5d 	bl	f8bc <do_data_command>
    ff44:	e3500000 	cmp	r0, #0, 0
    ff48:	0a00000a 	beq	ff78 <emmc_write+0x60>
    ff4c:	e1a00004 	mov	r0, r4
    ff50:	e28dd008 	add	sp, sp, #8, 0
    ff54:	e8bd8010 	pop	{r4, pc}
    ff58:	e59f302c 	ldr	r3, [pc, #44]	; ff8c <emmc_write+0x74>
    ff5c:	e58d3000 	str	r3, [sp]
    ff60:	e3a03e2f 	mov	r3, #752	; 0x2f0
    ff64:	e59f2024 	ldr	r2, [pc, #36]	; ff90 <emmc_write+0x78>
    ff68:	e59f1024 	ldr	r1, [pc, #36]	; ff94 <emmc_write+0x7c>
    ff6c:	e59f0024 	ldr	r0, [pc, #36]	; ff98 <emmc_write+0x80>
    ff70:	eb000a28 	bl	12818 <printk>
    ff74:	eb000b6c 	bl	12d2c <clean_reboot>
    ff78:	e1a01000 	mov	r1, r0
    ff7c:	e59f0018 	ldr	r0, [pc, #24]	; ff9c <emmc_write+0x84>
    ff80:	eb000a24 	bl	12818 <printk>
    ff84:	e3e00000 	mvn	r0, #0, 0
    ff88:	eafffff0 	b	ff50 <emmc_write+0x38>
    ff8c:	0019d114 	.word	0x0019d114
    ff90:	0019d2a0 	.word	0x0019d2a0
    ff94:	0019cf48 	.word	0x0019cf48
    ff98:	0019b6f4 	.word	0x0019b6f4
    ff9c:	0019d150 	.word	0x0019d150

0000ffa0 <emmc_init>:
    ffa0:	e92d4070 	push	{r4, r5, r6, lr}
    ffa4:	e3a01000 	mov	r1, #0, 0
    ffa8:	e3a00022 	mov	r0, #34, 0	; 0x22
    ffac:	eb0007e3 	bl	11f40 <gpio_set_function>
    ffb0:	e3a01000 	mov	r1, #0, 0
    ffb4:	e3a00023 	mov	r0, #35, 0	; 0x23
    ffb8:	eb0007e0 	bl	11f40 <gpio_set_function>
    ffbc:	e3a01000 	mov	r1, #0, 0
    ffc0:	e3a00024 	mov	r0, #36, 0	; 0x24
    ffc4:	eb0007dd 	bl	11f40 <gpio_set_function>
    ffc8:	e3a01000 	mov	r1, #0, 0
    ffcc:	e3a00025 	mov	r0, #37, 0	; 0x25
    ffd0:	eb0007da 	bl	11f40 <gpio_set_function>
    ffd4:	e3a01000 	mov	r1, #0, 0
    ffd8:	e3a00026 	mov	r0, #38, 0	; 0x26
    ffdc:	eb0007d7 	bl	11f40 <gpio_set_function>
    ffe0:	e3a01000 	mov	r1, #0, 0
    ffe4:	e3a00027 	mov	r0, #39, 0	; 0x27
    ffe8:	eb0007d4 	bl	11f40 <gpio_set_function>
    ffec:	e3a01007 	mov	r1, #7, 0
    fff0:	e3a00030 	mov	r0, #48, 0	; 0x30
    fff4:	eb0007d1 	bl	11f40 <gpio_set_function>
    fff8:	e3a01007 	mov	r1, #7, 0
    fffc:	e3a00031 	mov	r0, #49, 0	; 0x31
   10000:	eb0007ce 	bl	11f40 <gpio_set_function>
   10004:	e3a01007 	mov	r1, #7, 0
   10008:	e3a00032 	mov	r0, #50, 0	; 0x32
   1000c:	eb0007cb 	bl	11f40 <gpio_set_function>
   10010:	e3a01007 	mov	r1, #7, 0
   10014:	e3a00033 	mov	r0, #51, 0	; 0x33
   10018:	eb0007c8 	bl	11f40 <gpio_set_function>
   1001c:	e3a01007 	mov	r1, #7, 0
   10020:	e3a00034 	mov	r0, #52, 0	; 0x34
   10024:	eb0007c5 	bl	11f40 <gpio_set_function>
   10028:	e59f305c 	ldr	r3, [pc, #92]	; 1008c <emmc_init+0xec>
   1002c:	e3a00000 	mov	r0, #0, 0
   10030:	e5830004 	str	r0, [r3, #4]
   10034:	e583000c 	str	r0, [r3, #12]
   10038:	e5c30000 	strb	r0, [r3]
   1003c:	e5830010 	str	r0, [r3, #16]
   10040:	e5c30024 	strb	r0, [r3, #36]	; 0x24
   10044:	e1c302b6 	strh	r0, [r3, #38]	; 0x26
   10048:	e5830028 	str	r0, [r3, #40]	; 0x28
   1004c:	e583003c 	str	r0, [r3, #60]	; 0x3c
   10050:	e1a05000 	mov	r5, r0
   10054:	e1a04000 	mov	r4, r0
   10058:	e3550009 	cmp	r5, #9, 0
   1005c:	ca000008 	bgt	10084 <emmc_init+0xe4>
   10060:	ebffff41 	bl	fd6c <emmc_card_reset>
   10064:	e2504000 	subs	r4, r0, #0, 0
   10068:	1a000005 	bne	10084 <emmc_init+0xe4>
   1006c:	e3a00064 	mov	r0, #100, 0	; 0x64
   10070:	eb000b8a 	bl	12ea0 <delay_ms>
   10074:	e59f0014 	ldr	r0, [pc, #20]	; 10090 <emmc_init+0xf0>
   10078:	eb0009e6 	bl	12818 <printk>
   1007c:	e2855001 	add	r5, r5, #1, 0
   10080:	eafffff4 	b	10058 <emmc_init+0xb8>
   10084:	e1a00004 	mov	r0, r4
   10088:	e8bd8070 	pop	{r4, r5, r6, pc}
   1008c:	0019f190 	.word	0x0019f190
   10090:	0019d16c 	.word	0x0019d16c

00010094 <cluster_to_lba>:
   10094:	e3510001 	cmp	r1, #1, 0
   10098:	9a000004 	bls	100b0 <cluster_to_lba+0x1c>
   1009c:	e5903008 	ldr	r3, [r0, #8]
   100a0:	e590000c 	ldr	r0, [r0, #12]
   100a4:	e2411002 	sub	r1, r1, #2, 0
   100a8:	e0203091 	mla	r0, r1, r0, r3
   100ac:	e12fff1e 	bx	lr
   100b0:	e52de004 	push	{lr}		; (str lr, [sp, #-4]!)
   100b4:	e24dd00c 	sub	sp, sp, #12, 0
   100b8:	e59f3018 	ldr	r3, [pc, #24]	; 100d8 <cluster_to_lba+0x44>
   100bc:	e58d3000 	str	r3, [sp]
   100c0:	e3a0305a 	mov	r3, #90, 0	; 0x5a
   100c4:	e59f2010 	ldr	r2, [pc, #16]	; 100dc <cluster_to_lba+0x48>
   100c8:	e59f1010 	ldr	r1, [pc, #16]	; 100e0 <cluster_to_lba+0x4c>
   100cc:	e59f0010 	ldr	r0, [pc, #16]	; 100e4 <cluster_to_lba+0x50>
   100d0:	eb0009d0 	bl	12818 <printk>
   100d4:	eb000b14 	bl	12d2c <clean_reboot>
   100d8:	0019d2d8 	.word	0x0019d2d8
   100dc:	0019d580 	.word	0x0019d580
   100e0:	0019d2ac 	.word	0x0019d2ac
   100e4:	0019b6f4 	.word	0x0019b6f4

000100e8 <get_cluster_chain_length>:
   100e8:	e92d4070 	push	{r4, r5, r6, lr}
   100ec:	e1a06000 	mov	r6, r0
   100f0:	e1a04001 	mov	r4, r1
   100f4:	e3a05000 	mov	r5, #0, 0
   100f8:	e1a00004 	mov	r0, r4
   100fc:	ebfff70c 	bl	dd34 <fat32_fat_entry_type>
   10100:	e370028f 	cmn	r0, #-268435448	; 0xf0000008
   10104:	15963014 	ldrne	r3, [r6, #20]
   10108:	17934104 	ldrne	r4, [r3, r4, lsl #2]
   1010c:	12855001 	addne	r5, r5, #1, 0
   10110:	1afffff8 	bne	100f8 <get_cluster_chain_length+0x10>
   10114:	e1a00005 	mov	r0, r5
   10118:	e8bd8070 	pop	{r4, r5, r6, pc}

0001011c <read_cluster_chain>:
   1011c:	e92d4070 	push	{r4, r5, r6, lr}
   10120:	e1a04000 	mov	r4, r0
   10124:	e1a05001 	mov	r5, r1
   10128:	e1a06002 	mov	r6, r2
   1012c:	e1a00005 	mov	r0, r5
   10130:	ebfff6ff 	bl	dd34 <fat32_fat_entry_type>
   10134:	e370028f 	cmn	r0, #-268435448	; 0xf0000008
   10138:	08bd8070 	popeq	{r4, r5, r6, pc}
   1013c:	e1a01005 	mov	r1, r5
   10140:	e1a00004 	mov	r0, r4
   10144:	ebffffd2 	bl	10094 <cluster_to_lba>
   10148:	e594100c 	ldr	r1, [r4, #12]
   1014c:	ebfff22b 	bl	ca00 <pi_sec_read>
   10150:	e1a01000 	mov	r1, r0
   10154:	e594200c 	ldr	r2, [r4, #12]
   10158:	e1a02482 	lsl	r2, r2, #9
   1015c:	e1a00006 	mov	r0, r6
   10160:	eb00093a 	bl	12650 <memcpy>
   10164:	e5943014 	ldr	r3, [r4, #20]
   10168:	e7935105 	ldr	r5, [r3, r5, lsl #2]
   1016c:	e594300c 	ldr	r3, [r4, #12]
   10170:	e0866483 	add	r6, r6, r3, lsl #9
   10174:	eaffffec 	b	1012c <read_cluster_chain+0x10>

00010178 <get_dirents>:
   10178:	e92d4070 	push	{r4, r5, r6, lr}
   1017c:	e1a05000 	mov	r5, r0
   10180:	e1a06001 	mov	r6, r1
   10184:	e1a04002 	mov	r4, r2
   10188:	ebffffd6 	bl	100e8 <get_cluster_chain_length>
   1018c:	e595300c 	ldr	r3, [r5, #12]
   10190:	e0000093 	mul	r0, r3, r0
   10194:	e1a00480 	lsl	r0, r0, #9
   10198:	e1a002a0 	lsr	r0, r0, #5
   1019c:	e5840000 	str	r0, [r4]
   101a0:	e1a00280 	lsl	r0, r0, #5
   101a4:	eb00068d 	bl	11be0 <kmalloc>
   101a8:	e1a04000 	mov	r4, r0
   101ac:	e1a02000 	mov	r2, r0
   101b0:	e1a01006 	mov	r1, r6
   101b4:	e1a00005 	mov	r0, r5
   101b8:	ebffffd7 	bl	1011c <read_cluster_chain>
   101bc:	e1a00004 	mov	r0, r4
   101c0:	e8bd8070 	pop	{r4, r5, r6, pc}

000101c4 <find_free_cluster>:
   101c4:	e92d4070 	push	{r4, r5, r6, lr}
   101c8:	e1a05000 	mov	r5, r0
   101cc:	e3510002 	cmp	r1, #2, 0
   101d0:	9a00000a 	bls	10200 <find_free_cluster+0x3c>
   101d4:	e1a04001 	mov	r4, r1
   101d8:	e5953018 	ldr	r3, [r5, #24]
   101dc:	e1530004 	cmp	r3, r4
   101e0:	9a000008 	bls	10208 <find_free_cluster+0x44>
   101e4:	e5953014 	ldr	r3, [r5, #20]
   101e8:	e7930104 	ldr	r0, [r3, r4, lsl #2]
   101ec:	ebfff6d0 	bl	dd34 <fat32_fat_entry_type>
   101f0:	e3500000 	cmp	r0, #0, 0
   101f4:	0a000009 	beq	10220 <find_free_cluster+0x5c>
   101f8:	e2844001 	add	r4, r4, #1, 0
   101fc:	eafffff5 	b	101d8 <find_free_cluster+0x14>
   10200:	e3a04003 	mov	r4, #3, 0
   10204:	eafffff3 	b	101d8 <find_free_cluster+0x14>
   10208:	e59f3018 	ldr	r3, [pc, #24]	; 10228 <find_free_cluster+0x64>
   1020c:	e59f2018 	ldr	r2, [pc, #24]	; 1022c <find_free_cluster+0x68>
   10210:	e59f1018 	ldr	r1, [pc, #24]	; 10230 <find_free_cluster+0x6c>
   10214:	e59f0018 	ldr	r0, [pc, #24]	; 10234 <find_free_cluster+0x70>
   10218:	eb00097e 	bl	12818 <printk>
   1021c:	eb000ac2 	bl	12d2c <clean_reboot>
   10220:	e1a00004 	mov	r0, r4
   10224:	e8bd8070 	pop	{r4, r5, r6, pc}
   10228:	00000143 	.word	0x00000143
   1022c:	0019d590 	.word	0x0019d590
   10230:	0019d2ac 	.word	0x0019d2ac
   10234:	0019d2ec 	.word	0x0019d2ec

00010238 <dirent_convert>:
   10238:	e92d4030 	push	{r4, r5, lr}
   1023c:	e24dd034 	sub	sp, sp, #52, 0	; 0x34
   10240:	e1a05000 	mov	r5, r0
   10244:	e1a04001 	mov	r4, r1
   10248:	e3a0202c 	mov	r2, #44, 0	; 0x2c
   1024c:	e3a01000 	mov	r1, #0, 0
   10250:	e28d0004 	add	r0, sp, #4, 0
   10254:	eb000934 	bl	1272c <memset>
   10258:	e5d43014 	ldrb	r3, [r4, #20]
   1025c:	e5d42015 	ldrb	r2, [r4, #21]
   10260:	e1832402 	orr	r2, r3, r2, lsl #8
   10264:	e5d4301a 	ldrb	r3, [r4, #26]
   10268:	e5d4101b 	ldrb	r1, [r4, #27]
   1026c:	e1833401 	orr	r3, r3, r1, lsl #8
   10270:	e1833802 	orr	r3, r3, r2, lsl #16
   10274:	e58d3024 	str	r3, [sp, #36]	; 0x24
   10278:	e5d4300b 	ldrb	r3, [r4, #11]
   1027c:	e3530010 	cmp	r3, #16, 0
   10280:	13a03000 	movne	r3, #0, 0
   10284:	03a03001 	moveq	r3, #1, 0
   10288:	e58d3028 	str	r3, [sp, #40]	; 0x28
   1028c:	e5d4301c 	ldrb	r3, [r4, #28]
   10290:	e5d4201d 	ldrb	r2, [r4, #29]
   10294:	e1833402 	orr	r3, r3, r2, lsl #8
   10298:	e5d4201e 	ldrb	r2, [r4, #30]
   1029c:	e1833802 	orr	r3, r3, r2, lsl #16
   102a0:	e5d4201f 	ldrb	r2, [r4, #31]
   102a4:	e1833c02 	orr	r3, r3, r2, lsl #24
   102a8:	e58d302c 	str	r3, [sp, #44]	; 0x2c
   102ac:	e3a0200b 	mov	r2, #11, 0
   102b0:	e1a01004 	mov	r1, r4
   102b4:	e28d0014 	add	r0, sp, #20, 0
   102b8:	eb0008e4 	bl	12650 <memcpy>
   102bc:	e28d1004 	add	r1, sp, #4, 0
   102c0:	e1a00004 	mov	r0, r4
   102c4:	ebfff745 	bl	dfe0 <fat32_dirent_name>
   102c8:	e1a0e005 	mov	lr, r5
   102cc:	e28dc004 	add	ip, sp, #4, 0
   102d0:	e8bc000f 	ldm	ip!, {r0, r1, r2, r3}
   102d4:	e8ae000f 	stmia	lr!, {r0, r1, r2, r3}
   102d8:	e8bc000f 	ldm	ip!, {r0, r1, r2, r3}
   102dc:	e8ae000f 	stmia	lr!, {r0, r1, r2, r3}
   102e0:	e89c0007 	ldm	ip, {r0, r1, r2}
   102e4:	e88e0007 	stm	lr, {r0, r1, r2}
   102e8:	e1a00005 	mov	r0, r5
   102ec:	e28dd034 	add	sp, sp, #52, 0	; 0x34
   102f0:	e8bd8030 	pop	{r4, r5, pc}

000102f4 <find_dirent_with_name>:
   102f4:	e92d40f0 	push	{r4, r5, r6, r7, lr}
   102f8:	e24dd014 	sub	sp, sp, #20, 0
   102fc:	e1a07000 	mov	r7, r0
   10300:	e1a05001 	mov	r5, r1
   10304:	e1a06002 	mov	r6, r2
   10308:	e3a04000 	mov	r4, #0, 0
   1030c:	e1540005 	cmp	r4, r5
   10310:	aa000009 	bge	1033c <find_dirent_with_name+0x48>
   10314:	e1a0100d 	mov	r1, sp
   10318:	e0870284 	add	r0, r7, r4, lsl #5
   1031c:	ebfff72f 	bl	dfe0 <fat32_dirent_name>
   10320:	e1a01006 	mov	r1, r6
   10324:	e1a0000d 	mov	r0, sp
   10328:	eb000a5a 	bl	12c98 <strcmp>
   1032c:	e3500000 	cmp	r0, #0, 0
   10330:	0a000002 	beq	10340 <find_dirent_with_name+0x4c>
   10334:	e2844001 	add	r4, r4, #1, 0
   10338:	eafffff3 	b	1030c <find_dirent_with_name+0x18>
   1033c:	e3e04000 	mvn	r4, #0, 0
   10340:	e1a00004 	mov	r0, r4
   10344:	e28dd014 	add	sp, sp, #20, 0
   10348:	e8bd80f0 	pop	{r4, r5, r6, r7, pc}

0001034c <write_fat_to_disk>:
   1034c:	e92d4010 	push	{r4, lr}
   10350:	e59f1028 	ldr	r1, [pc, #40]	; 10380 <write_fat_to_disk+0x34>
   10354:	e5d13024 	ldrb	r3, [r1, #36]	; 0x24
   10358:	e5d12025 	ldrb	r2, [r1, #37]	; 0x25
   1035c:	e1833402 	orr	r3, r3, r2, lsl #8
   10360:	e5d12026 	ldrb	r2, [r1, #38]	; 0x26
   10364:	e1833802 	orr	r3, r3, r2, lsl #16
   10368:	e5d12027 	ldrb	r2, [r1, #39]	; 0x27
   1036c:	e1832c02 	orr	r2, r3, r2, lsl #24
   10370:	e5901014 	ldr	r1, [r0, #20]
   10374:	e5900004 	ldr	r0, [r0, #4]
   10378:	ebfff1fc 	bl	cb70 <pi_sec_write>
   1037c:	e8bd8010 	pop	{r4, pc}
   10380:	0019f1f8 	.word	0x0019f1f8

00010384 <write_cluster_chain>:
   10384:	e92d4ff0 	push	{r4, r5, r6, r7, r8, r9, sl, fp, lr}
   10388:	e24dd00c 	sub	sp, sp, #12, 0
   1038c:	e1a05000 	mov	r5, r0
   10390:	e1a04001 	mov	r4, r1
   10394:	e58d2004 	str	r2, [sp, #4]
   10398:	e590100c 	ldr	r1, [r0, #12]
   1039c:	e59f21d4 	ldr	r2, [pc, #468]	; 10578 <write_cluster_chain+0x1f4>
   103a0:	e5d2800b 	ldrb	r8, [r2, #11]
   103a4:	e5d2200c 	ldrb	r2, [r2, #12]
   103a8:	e1888402 	orr	r8, r8, r2, lsl #8
   103ac:	e0080198 	mul	r8, r8, r1
   103b0:	e253a000 	subs	sl, r3, #0, 0
   103b4:	0a000007 	beq	103d8 <write_cluster_chain+0x54>
   103b8:	e3a09000 	mov	r9, #0, 0
   103bc:	e1a07009 	mov	r7, r9
   103c0:	ea00002a 	b	10470 <write_cluster_chain+0xec>
   103c4:	e5953014 	ldr	r3, [r5, #20]
   103c8:	e7934104 	ldr	r4, [r3, r4, lsl #2]
   103cc:	e5953014 	ldr	r3, [r5, #20]
   103d0:	e3a02000 	mov	r2, #0, 0
   103d4:	e7832006 	str	r2, [r3, r6]
   103d8:	e3540001 	cmp	r4, #1, 0
   103dc:	9a00000b 	bls	10410 <write_cluster_chain+0x8c>
   103e0:	e1a00004 	mov	r0, r4
   103e4:	ebfff652 	bl	dd34 <fat32_fat_entry_type>
   103e8:	e3500000 	cmp	r0, #0, 0
   103ec:	0a000007 	beq	10410 <write_cluster_chain+0x8c>
   103f0:	e5953014 	ldr	r3, [r5, #20]
   103f4:	e1a06104 	lsl	r6, r4, #2
   103f8:	e7930104 	ldr	r0, [r3, r4, lsl #2]
   103fc:	ebfff64c 	bl	dd34 <fat32_fat_entry_type>
   10400:	e370028f 	cmn	r0, #-268435448	; 0xf0000008
   10404:	1affffee 	bne	103c4 <write_cluster_chain+0x40>
   10408:	e1a0400a 	mov	r4, sl
   1040c:	eaffffee 	b	103cc <write_cluster_chain+0x48>
   10410:	e1a00005 	mov	r0, r5
   10414:	ebffffcc 	bl	1034c <write_fat_to_disk>
   10418:	ea000054 	b	10570 <write_cluster_chain+0x1ec>
   1041c:	e3a01003 	mov	r1, #3, 0
   10420:	e1a00005 	mov	r0, r5
   10424:	ebffff66 	bl	101c4 <find_free_cluster>
   10428:	e1a04000 	mov	r4, r0
   1042c:	e5953014 	ldr	r3, [r5, #20]
   10430:	e3e0227f 	mvn	r2, #-268435449	; 0xf0000007
   10434:	e7832100 	str	r2, [r3, r0, lsl #2]
   10438:	e3590001 	cmp	r9, #1, 0
   1043c:	85953014 	ldrhi	r3, [r5, #20]
   10440:	87830109 	strhi	r0, [r3, r9, lsl #2]
   10444:	ea000010 	b	1048c <write_cluster_chain+0x108>
   10448:	e595200c 	ldr	r2, [r5, #12]
   1044c:	e59d3004 	ldr	r3, [sp, #4]
   10450:	e0831007 	add	r1, r3, r7
   10454:	ebfff1c5 	bl	cb70 <pi_sec_write>
   10458:	e0877006 	add	r7, r7, r6
   1045c:	e15a0007 	cmp	sl, r7
   10460:	8a000023 	bhi	104f4 <write_cluster_chain+0x170>
   10464:	e1a03004 	mov	r3, r4
   10468:	e1a09004 	mov	r9, r4
   1046c:	e1a04003 	mov	r4, r3
   10470:	e157000a 	cmp	r7, sl
   10474:	2a000027 	bcs	10518 <write_cluster_chain+0x194>
   10478:	e04a6007 	sub	r6, sl, r7
   1047c:	e1560008 	cmp	r6, r8
   10480:	21a06008 	movcs	r6, r8
   10484:	e3540001 	cmp	r4, #1, 0
   10488:	9affffe3 	bls	1041c <write_cluster_chain+0x98>
   1048c:	e1a01004 	mov	r1, r4
   10490:	e1a00005 	mov	r0, r5
   10494:	ebfffefe 	bl	10094 <cluster_to_lba>
   10498:	e1a09000 	mov	r9, r0
   1049c:	e1580006 	cmp	r8, r6
   104a0:	9affffe8 	bls	10448 <write_cluster_chain+0xc4>
   104a4:	e1a00008 	mov	r0, r8
   104a8:	eb0005cc 	bl	11be0 <kmalloc>
   104ac:	e1a0b000 	mov	fp, r0
   104b0:	e595100c 	ldr	r1, [r5, #12]
   104b4:	e1a00009 	mov	r0, r9
   104b8:	ebfff150 	bl	ca00 <pi_sec_read>
   104bc:	e1a01000 	mov	r1, r0
   104c0:	e1a02008 	mov	r2, r8
   104c4:	e1a0000b 	mov	r0, fp
   104c8:	eb000860 	bl	12650 <memcpy>
   104cc:	e1a02006 	mov	r2, r6
   104d0:	e59d3004 	ldr	r3, [sp, #4]
   104d4:	e0831007 	add	r1, r3, r7
   104d8:	e1a0000b 	mov	r0, fp
   104dc:	eb00085b 	bl	12650 <memcpy>
   104e0:	e595200c 	ldr	r2, [r5, #12]
   104e4:	e1a0100b 	mov	r1, fp
   104e8:	e1a00009 	mov	r0, r9
   104ec:	ebfff19f 	bl	cb70 <pi_sec_write>
   104f0:	eaffffd8 	b	10458 <write_cluster_chain+0xd4>
   104f4:	e5953014 	ldr	r3, [r5, #20]
   104f8:	e7930104 	ldr	r0, [r3, r4, lsl #2]
   104fc:	ebfff60c 	bl	dd34 <fat32_fat_entry_type>
   10500:	e370028f 	cmn	r0, #-268435448	; 0xf0000008
   10504:	15953014 	ldrne	r3, [r5, #20]
   10508:	17933104 	ldrne	r3, [r3, r4, lsl #2]
   1050c:	1affffd5 	bne	10468 <write_cluster_chain+0xe4>
   10510:	e3a03000 	mov	r3, #0, 0
   10514:	eaffffd3 	b	10468 <write_cluster_chain+0xe4>
   10518:	e5953014 	ldr	r3, [r5, #20]
   1051c:	e7934109 	ldr	r4, [r3, r9, lsl #2]
   10520:	e3e0227f 	mvn	r2, #-268435449	; 0xf0000007
   10524:	e7832109 	str	r2, [r3, r9, lsl #2]
   10528:	ea000004 	b	10540 <write_cluster_chain+0x1bc>
   1052c:	e5953014 	ldr	r3, [r5, #20]
   10530:	e1a02104 	lsl	r2, r4, #2
   10534:	e7934104 	ldr	r4, [r3, r4, lsl #2]
   10538:	e3a01000 	mov	r1, #0, 0
   1053c:	e7831002 	str	r1, [r3, r2]
   10540:	e3540001 	cmp	r4, #1, 0
   10544:	9a000007 	bls	10568 <write_cluster_chain+0x1e4>
   10548:	e1a00004 	mov	r0, r4
   1054c:	ebfff5f8 	bl	dd34 <fat32_fat_entry_type>
   10550:	e3500000 	cmp	r0, #0, 0
   10554:	0a000003 	beq	10568 <write_cluster_chain+0x1e4>
   10558:	e1a00004 	mov	r0, r4
   1055c:	ebfff5f4 	bl	dd34 <fat32_fat_entry_type>
   10560:	e370028f 	cmn	r0, #-268435448	; 0xf0000008
   10564:	1afffff0 	bne	1052c <write_cluster_chain+0x1a8>
   10568:	e1a00005 	mov	r0, r5
   1056c:	ebffff76 	bl	1034c <write_fat_to_disk>
   10570:	e28dd00c 	add	sp, sp, #12, 0
   10574:	e8bd8ff0 	pop	{r4, r5, r6, r7, r8, r9, sl, fp, pc}
   10578:	0019f1f8 	.word	0x0019f1f8

0001057c <fat32_mk>:
   1057c:	e92d4ff0 	push	{r4, r5, r6, r7, r8, r9, sl, fp, lr}
   10580:	e24dd014 	sub	sp, sp, #20, 0
   10584:	e59f31d4 	ldr	r3, [pc, #468]	; 10760 <fat32_mk+0x1e4>
   10588:	e5933000 	ldr	r3, [r3]
   1058c:	e3530000 	cmp	r3, #0, 0
   10590:	1a000062 	bne	10720 <fat32_mk+0x1a4>
   10594:	e1a06000 	mov	r6, r0
   10598:	e1a04001 	mov	r4, r1
   1059c:	e5d13008 	ldrb	r3, [r1, #8]
   105a0:	e5d10009 	ldrb	r0, [r1, #9]
   105a4:	e1833400 	orr	r3, r3, r0, lsl #8
   105a8:	e5d1000a 	ldrb	r0, [r1, #10]
   105ac:	e1833800 	orr	r3, r3, r0, lsl #16
   105b0:	e5d1000b 	ldrb	r0, [r1, #11]
   105b4:	e3a01001 	mov	r1, #1, 0
   105b8:	e1830c00 	orr	r0, r3, r0, lsl #24
   105bc:	ebfff10f 	bl	ca00 <pi_sec_read>
   105c0:	e1a05000 	mov	r5, r0
   105c4:	e59f7198 	ldr	r7, [pc, #408]	; 10764 <fat32_mk+0x1e8>
   105c8:	e3a02c02 	mov	r2, #512	; 0x200
   105cc:	e1a01000 	mov	r1, r0
   105d0:	e1a00007 	mov	r0, r7
   105d4:	eb00081d 	bl	12650 <memcpy>
   105d8:	e1a00005 	mov	r0, r5
   105dc:	ebfff406 	bl	d5fc <fat32_volume_id_check>
   105e0:	e5d40008 	ldrb	r0, [r4, #8]
   105e4:	e5d43009 	ldrb	r3, [r4, #9]
   105e8:	e1800403 	orr	r0, r0, r3, lsl #8
   105ec:	e5d4300a 	ldrb	r3, [r4, #10]
   105f0:	e1800803 	orr	r0, r0, r3, lsl #16
   105f4:	e5d4300b 	ldrb	r3, [r4, #11]
   105f8:	e1800c03 	orr	r0, r0, r3, lsl #24
   105fc:	e3a01001 	mov	r1, #1, 0
   10600:	e0800001 	add	r0, r0, r1
   10604:	ebfff0fd 	bl	ca00 <pi_sec_read>
   10608:	ebfff572 	bl	dbd8 <fat32_fsinfo_check>
   1060c:	e5d73030 	ldrb	r3, [r7, #48]	; 0x30
   10610:	e5d72031 	ldrb	r2, [r7, #49]	; 0x31
   10614:	e1833402 	orr	r3, r3, r2, lsl #8
   10618:	e3530001 	cmp	r3, #1, 0
   1061c:	1a000047 	bne	10740 <fat32_mk+0x1c4>
   10620:	e5d47008 	ldrb	r7, [r4, #8]
   10624:	e5d43009 	ldrb	r3, [r4, #9]
   10628:	e1877403 	orr	r7, r7, r3, lsl #8
   1062c:	e5d4300a 	ldrb	r3, [r4, #10]
   10630:	e1877803 	orr	r7, r7, r3, lsl #16
   10634:	e5d4300b 	ldrb	r3, [r4, #11]
   10638:	e1877c03 	orr	r7, r7, r3, lsl #24
   1063c:	e59f4120 	ldr	r4, [pc, #288]	; 10764 <fat32_mk+0x1e8>
   10640:	e5d4900e 	ldrb	r9, [r4, #14]
   10644:	e5d4300f 	ldrb	r3, [r4, #15]
   10648:	e1899403 	orr	r9, r9, r3, lsl #8
   1064c:	e0899007 	add	r9, r9, r7
   10650:	e5d4a010 	ldrb	sl, [r4, #16]
   10654:	e5d45024 	ldrb	r5, [r4, #36]	; 0x24
   10658:	e5d43025 	ldrb	r3, [r4, #37]	; 0x25
   1065c:	e1855403 	orr	r5, r5, r3, lsl #8
   10660:	e5d43026 	ldrb	r3, [r4, #38]	; 0x26
   10664:	e1855803 	orr	r5, r5, r3, lsl #16
   10668:	e5d43027 	ldrb	r3, [r4, #39]	; 0x27
   1066c:	e1855c03 	orr	r5, r5, r3, lsl #24
   10670:	e02a9a95 	mla	sl, r5, sl, r9
   10674:	e5d4b00d 	ldrb	fp, [r4, #13]
   10678:	e5d4802c 	ldrb	r8, [r4, #44]	; 0x2c
   1067c:	e5d4302d 	ldrb	r3, [r4, #45]	; 0x2d
   10680:	e1888403 	orr	r8, r8, r3, lsl #8
   10684:	e5d4302e 	ldrb	r3, [r4, #46]	; 0x2e
   10688:	e1888803 	orr	r8, r8, r3, lsl #16
   1068c:	e5d4302f 	ldrb	r3, [r4, #47]	; 0x2f
   10690:	e1888c03 	orr	r8, r8, r3, lsl #24
   10694:	e1a05485 	lsl	r5, r5, #9
   10698:	e1a03125 	lsr	r3, r5, #2
   1069c:	e58d3008 	str	r3, [sp, #8]
   106a0:	e3c55003 	bic	r5, r5, #3, 0
   106a4:	e1a00005 	mov	r0, r5
   106a8:	eb00054c 	bl	11be0 <kmalloc>
   106ac:	e58d000c 	str	r0, [sp, #12]
   106b0:	e5d43024 	ldrb	r3, [r4, #36]	; 0x24
   106b4:	e5d41025 	ldrb	r1, [r4, #37]	; 0x25
   106b8:	e1833401 	orr	r3, r3, r1, lsl #8
   106bc:	e5d41026 	ldrb	r1, [r4, #38]	; 0x26
   106c0:	e1833801 	orr	r3, r3, r1, lsl #16
   106c4:	e5d41027 	ldrb	r1, [r4, #39]	; 0x27
   106c8:	e1831c01 	orr	r1, r3, r1, lsl #24
   106cc:	e1a00009 	mov	r0, r9
   106d0:	ebfff0ca 	bl	ca00 <pi_sec_read>
   106d4:	e1a01000 	mov	r1, r0
   106d8:	e1a02005 	mov	r2, r5
   106dc:	e59d400c 	ldr	r4, [sp, #12]
   106e0:	e1a00004 	mov	r0, r4
   106e4:	eb0007d9 	bl	12650 <memcpy>
   106e8:	e5867000 	str	r7, [r6]
   106ec:	e5869004 	str	r9, [r6, #4]
   106f0:	e586a008 	str	sl, [r6, #8]
   106f4:	e586b00c 	str	fp, [r6, #12]
   106f8:	e5868010 	str	r8, [r6, #16]
   106fc:	e5864014 	str	r4, [r6, #20]
   10700:	e59d3008 	ldr	r3, [sp, #8]
   10704:	e5863018 	str	r3, [r6, #24]
   10708:	e59f3050 	ldr	r3, [pc, #80]	; 10760 <fat32_mk+0x1e4>
   1070c:	e3a02001 	mov	r2, #1, 0
   10710:	e5832000 	str	r2, [r3]
   10714:	e1a00006 	mov	r0, r6
   10718:	e28dd014 	add	sp, sp, #20, 0
   1071c:	e8bd8ff0 	pop	{r4, r5, r6, r7, r8, r9, sl, fp, pc}
   10720:	e59f3040 	ldr	r3, [pc, #64]	; 10768 <fat32_mk+0x1ec>
   10724:	e58d3000 	str	r3, [sp]
   10728:	e3a03011 	mov	r3, #17, 0
   1072c:	e59f2038 	ldr	r2, [pc, #56]	; 1076c <fat32_mk+0x1f0>
   10730:	e59f1038 	ldr	r1, [pc, #56]	; 10770 <fat32_mk+0x1f4>
   10734:	e59f0038 	ldr	r0, [pc, #56]	; 10774 <fat32_mk+0x1f8>
   10738:	eb000836 	bl	12818 <printk>
   1073c:	eb00097a 	bl	12d2c <clean_reboot>
   10740:	e59f3030 	ldr	r3, [pc, #48]	; 10778 <fat32_mk+0x1fc>
   10744:	e58d3000 	str	r3, [sp]
   10748:	e3a03023 	mov	r3, #35, 0	; 0x23
   1074c:	e59f2018 	ldr	r2, [pc, #24]	; 1076c <fat32_mk+0x1f0>
   10750:	e59f1018 	ldr	r1, [pc, #24]	; 10770 <fat32_mk+0x1f4>
   10754:	e59f0020 	ldr	r0, [pc, #32]	; 1077c <fat32_mk+0x200>
   10758:	eb00082e 	bl	12818 <printk>
   1075c:	eb000972 	bl	12d2c <clean_reboot>
   10760:	0019f1e8 	.word	0x0019f1e8
   10764:	0019f1f8 	.word	0x0019f1f8
   10768:	0019d370 	.word	0x0019d370
   1076c:	0019d5a4 	.word	0x0019d5a4
   10770:	0019d2ac 	.word	0x0019d2ac
   10774:	0019d31c 	.word	0x0019d31c
   10778:	0019d378 	.word	0x0019d378
   1077c:	0019b6f4 	.word	0x0019b6f4

00010780 <fat32_get_root>:
   10780:	e59f3070 	ldr	r3, [pc, #112]	; 107f8 <fat32_get_root+0x78>
   10784:	e5933000 	ldr	r3, [r3]
   10788:	e3530000 	cmp	r3, #0, 0
   1078c:	0a00000f 	beq	107d0 <fat32_get_root+0x50>
   10790:	e5911010 	ldr	r1, [r1, #16]
   10794:	e3a03000 	mov	r3, #0, 0
   10798:	e1a02000 	mov	r2, r0
   1079c:	e4823004 	str	r3, [r2], #4
   107a0:	e5803004 	str	r3, [r0, #4]
   107a4:	e5823004 	str	r3, [r2, #4]
   107a8:	e5823008 	str	r3, [r2, #8]
   107ac:	e5803010 	str	r3, [r0, #16]
   107b0:	e5803014 	str	r3, [r0, #20]
   107b4:	e5803018 	str	r3, [r0, #24]
   107b8:	e580301c 	str	r3, [r0, #28]
   107bc:	e5801020 	str	r1, [r0, #32]
   107c0:	e3a02001 	mov	r2, #1, 0
   107c4:	e5802024 	str	r2, [r0, #36]	; 0x24
   107c8:	e5803028 	str	r3, [r0, #40]	; 0x28
   107cc:	e12fff1e 	bx	lr
   107d0:	e52de004 	push	{lr}		; (str lr, [sp, #-4]!)
   107d4:	e24dd00c 	sub	sp, sp, #12, 0
   107d8:	e59f301c 	ldr	r3, [pc, #28]	; 107fc <fat32_get_root+0x7c>
   107dc:	e58d3000 	str	r3, [sp]
   107e0:	e3a03063 	mov	r3, #99, 0	; 0x63
   107e4:	e59f2014 	ldr	r2, [pc, #20]	; 10800 <fat32_get_root+0x80>
   107e8:	e59f1014 	ldr	r1, [pc, #20]	; 10804 <fat32_get_root+0x84>
   107ec:	e59f0014 	ldr	r0, [pc, #20]	; 10808 <fat32_get_root+0x88>
   107f0:	eb000808 	bl	12818 <printk>
   107f4:	eb00094c 	bl	12d2c <clean_reboot>
   107f8:	0019f1e8 	.word	0x0019f1e8
   107fc:	0019ba94 	.word	0x0019ba94
   10800:	0019d5b0 	.word	0x0019d5b0
   10804:	0019d2ac 	.word	0x0019d2ac
   10808:	0019d398 	.word	0x0019d398

0001080c <fat32_readdir>:
   1080c:	e92d47f0 	push	{r4, r5, r6, r7, r8, r9, sl, lr}
   10810:	e24dd040 	sub	sp, sp, #64, 0	; 0x40
   10814:	e1a03002 	mov	r3, r2
   10818:	e59f2128 	ldr	r2, [pc, #296]	; 10948 <fat32_readdir+0x13c>
   1081c:	e5922000 	ldr	r2, [r2]
   10820:	e3520000 	cmp	r2, #0, 0
   10824:	0a000011 	beq	10870 <fat32_readdir+0x64>
   10828:	e1a09000 	mov	r9, r0
   1082c:	e1a00001 	mov	r0, r1
   10830:	e5932024 	ldr	r2, [r3, #36]	; 0x24
   10834:	e3520000 	cmp	r2, #0, 0
   10838:	0a000014 	beq	10890 <fat32_readdir+0x84>
   1083c:	e28d203c 	add	r2, sp, #60, 0	; 0x3c
   10840:	e5931020 	ldr	r1, [r3, #32]
   10844:	ebfffe4b 	bl	10178 <get_dirents>
   10848:	e1a06000 	mov	r6, r0
   1084c:	e59d003c 	ldr	r0, [sp, #60]	; 0x3c
   10850:	e0803100 	add	r3, r0, r0, lsl #2
   10854:	e0800083 	add	r0, r0, r3, lsl #1
   10858:	e1a00100 	lsl	r0, r0, #2
   1085c:	eb0004df 	bl	11be0 <kmalloc>
   10860:	e1a08000 	mov	r8, r0
   10864:	e3a05000 	mov	r5, #0, 0
   10868:	e1a07005 	mov	r7, r5
   1086c:	ea000010 	b	108b4 <fat32_readdir+0xa8>
   10870:	e59f30d4 	ldr	r3, [pc, #212]	; 1094c <fat32_readdir+0x140>
   10874:	e58d3000 	str	r3, [sp]
   10878:	e3a030c9 	mov	r3, #201, 0	; 0xc9
   1087c:	e59f20cc 	ldr	r2, [pc, #204]	; 10950 <fat32_readdir+0x144>
   10880:	e59f10cc 	ldr	r1, [pc, #204]	; 10954 <fat32_readdir+0x148>
   10884:	e59f00cc 	ldr	r0, [pc, #204]	; 10958 <fat32_readdir+0x14c>
   10888:	eb0007e2 	bl	12818 <printk>
   1088c:	eb000926 	bl	12d2c <clean_reboot>
   10890:	e59f30c4 	ldr	r3, [pc, #196]	; 1095c <fat32_readdir+0x150>
   10894:	e58d3000 	str	r3, [sp]
   10898:	e3a030ca 	mov	r3, #202, 0	; 0xca
   1089c:	e59f20ac 	ldr	r2, [pc, #172]	; 10950 <fat32_readdir+0x144>
   108a0:	e59f10ac 	ldr	r1, [pc, #172]	; 10954 <fat32_readdir+0x148>
   108a4:	e59f00b4 	ldr	r0, [pc, #180]	; 10960 <fat32_readdir+0x154>
   108a8:	eb0007da 	bl	12818 <printk>
   108ac:	eb00091e 	bl	12d2c <clean_reboot>
   108b0:	e2855001 	add	r5, r5, #1, 0
   108b4:	e59d303c 	ldr	r3, [sp, #60]	; 0x3c
   108b8:	e1550003 	cmp	r5, r3
   108bc:	2a00001c 	bcs	10934 <fat32_readdir+0x128>
   108c0:	e086a285 	add	sl, r6, r5, lsl #5
   108c4:	e7d63285 	ldrb	r3, [r6, r5, lsl #5]
   108c8:	e3530000 	cmp	r3, #0, 0
   108cc:	0a000018 	beq	10934 <fat32_readdir+0x128>
   108d0:	e1a0000a 	mov	r0, sl
   108d4:	ebfff540 	bl	dddc <fat32_dirent_free>
   108d8:	e3500000 	cmp	r0, #0, 0
   108dc:	1afffff3 	bne	108b0 <fat32_readdir+0xa4>
   108e0:	e5da300b 	ldrb	r3, [sl, #11]
   108e4:	e353000f 	cmp	r3, #15, 0
   108e8:	0afffff0 	beq	108b0 <fat32_readdir+0xa4>
   108ec:	e3130008 	tst	r3, #8, 0
   108f0:	1affffee 	bne	108b0 <fat32_readdir+0xa4>
   108f4:	e087c107 	add	ip, r7, r7, lsl #2
   108f8:	e087c08c 	add	ip, r7, ip, lsl #1
   108fc:	e088410c 	add	r4, r8, ip, lsl #2
   10900:	e1a0100a 	mov	r1, sl
   10904:	e28d0008 	add	r0, sp, #8, 0
   10908:	ebfffe4a 	bl	10238 <dirent_convert>
   1090c:	e1a0c004 	mov	ip, r4
   10910:	e28de008 	add	lr, sp, #8, 0
   10914:	e8be000f 	ldm	lr!, {r0, r1, r2, r3}
   10918:	e8ac000f 	stmia	ip!, {r0, r1, r2, r3}
   1091c:	e8be000f 	ldm	lr!, {r0, r1, r2, r3}
   10920:	e8ac000f 	stmia	ip!, {r0, r1, r2, r3}
   10924:	e89e0007 	ldm	lr, {r0, r1, r2}
   10928:	e88c0007 	stm	ip, {r0, r1, r2}
   1092c:	e2877001 	add	r7, r7, #1, 0
   10930:	eaffffde 	b	108b0 <fat32_readdir+0xa4>
   10934:	e5898000 	str	r8, [r9]
   10938:	e5897004 	str	r7, [r9, #4]
   1093c:	e1a00009 	mov	r0, r9
   10940:	e28dd040 	add	sp, sp, #64, 0	; 0x40
   10944:	e8bd87f0 	pop	{r4, r5, r6, r7, r8, r9, sl, pc}
   10948:	0019f1e8 	.word	0x0019f1e8
   1094c:	0019ba94 	.word	0x0019ba94
   10950:	0019d5c0 	.word	0x0019d5c0
   10954:	0019d2ac 	.word	0x0019d2ac
   10958:	0019d398 	.word	0x0019d398
   1095c:	0019d424 	.word	0x0019d424
   10960:	0019d3dc 	.word	0x0019d3dc

00010964 <fat32_stat>:
   10964:	e92d4070 	push	{r4, r5, r6, lr}
   10968:	e24dd040 	sub	sp, sp, #64, 0	; 0x40
   1096c:	e59f30cc 	ldr	r3, [pc, #204]	; 10a40 <fat32_stat+0xdc>
   10970:	e5933000 	ldr	r3, [r3]
   10974:	e3530000 	cmp	r3, #0, 0
   10978:	0a00001e 	beq	109f8 <fat32_stat+0x94>
   1097c:	e1a04002 	mov	r4, r2
   10980:	e5913024 	ldr	r3, [r1, #36]	; 0x24
   10984:	e3530000 	cmp	r3, #0, 0
   10988:	0a000022 	beq	10a18 <fat32_stat+0xb4>
   1098c:	e28d203c 	add	r2, sp, #60, 0	; 0x3c
   10990:	e5911020 	ldr	r1, [r1, #32]
   10994:	ebfffdf7 	bl	10178 <get_dirents>
   10998:	e1a06000 	mov	r6, r0
   1099c:	e1a02004 	mov	r2, r4
   109a0:	e59d103c 	ldr	r1, [sp, #60]	; 0x3c
   109a4:	ebfffe52 	bl	102f4 <find_dirent_with_name>
   109a8:	e1a04000 	mov	r4, r0
   109ac:	e3700001 	cmn	r0, #1, 0
   109b0:	0a000020 	beq	10a38 <fat32_stat+0xd4>
   109b4:	e3a0002c 	mov	r0, #44, 0	; 0x2c
   109b8:	eb000488 	bl	11be0 <kmalloc>
   109bc:	e1a05000 	mov	r5, r0
   109c0:	e0861284 	add	r1, r6, r4, lsl #5
   109c4:	e28d0008 	add	r0, sp, #8, 0
   109c8:	ebfffe1a 	bl	10238 <dirent_convert>
   109cc:	e1a0e005 	mov	lr, r5
   109d0:	e28dc008 	add	ip, sp, #8, 0
   109d4:	e8bc000f 	ldm	ip!, {r0, r1, r2, r3}
   109d8:	e8ae000f 	stmia	lr!, {r0, r1, r2, r3}
   109dc:	e8bc000f 	ldm	ip!, {r0, r1, r2, r3}
   109e0:	e8ae000f 	stmia	lr!, {r0, r1, r2, r3}
   109e4:	e89c0007 	ldm	ip, {r0, r1, r2}
   109e8:	e88e0007 	stm	lr, {r0, r1, r2}
   109ec:	e1a00005 	mov	r0, r5
   109f0:	e28dd040 	add	sp, sp, #64, 0	; 0x40
   109f4:	e8bd8070 	pop	{r4, r5, r6, pc}
   109f8:	e59f3044 	ldr	r3, [pc, #68]	; 10a44 <fat32_stat+0xe0>
   109fc:	e58d3000 	str	r3, [sp]
   10a00:	e3a030fc 	mov	r3, #252, 0	; 0xfc
   10a04:	e59f203c 	ldr	r2, [pc, #60]	; 10a48 <fat32_stat+0xe4>
   10a08:	e59f103c 	ldr	r1, [pc, #60]	; 10a4c <fat32_stat+0xe8>
   10a0c:	e59f003c 	ldr	r0, [pc, #60]	; 10a50 <fat32_stat+0xec>
   10a10:	eb000780 	bl	12818 <printk>
   10a14:	eb0008c4 	bl	12d2c <clean_reboot>
   10a18:	e59f3034 	ldr	r3, [pc, #52]	; 10a54 <fat32_stat+0xf0>
   10a1c:	e58d3000 	str	r3, [sp]
   10a20:	e3a030fd 	mov	r3, #253, 0	; 0xfd
   10a24:	e59f201c 	ldr	r2, [pc, #28]	; 10a48 <fat32_stat+0xe4>
   10a28:	e59f101c 	ldr	r1, [pc, #28]	; 10a4c <fat32_stat+0xe8>
   10a2c:	e59f0024 	ldr	r0, [pc, #36]	; 10a58 <fat32_stat+0xf4>
   10a30:	eb000778 	bl	12818 <printk>
   10a34:	eb0008bc 	bl	12d2c <clean_reboot>
   10a38:	e3a05000 	mov	r5, #0, 0
   10a3c:	eaffffea 	b	109ec <fat32_stat+0x88>
   10a40:	0019f1e8 	.word	0x0019f1e8
   10a44:	0019ba94 	.word	0x0019ba94
   10a48:	0019d5d0 	.word	0x0019d5d0
   10a4c:	0019d2ac 	.word	0x0019d2ac
   10a50:	0019d398 	.word	0x0019d398
   10a54:	0019d488 	.word	0x0019d488
   10a58:	0019d438 	.word	0x0019d438

00010a5c <fat32_read>:
   10a5c:	e92d40f0 	push	{r4, r5, r6, r7, lr}
   10a60:	e24dd00c 	sub	sp, sp, #12, 0
   10a64:	e59f30d0 	ldr	r3, [pc, #208]	; 10b3c <fat32_read+0xe0>
   10a68:	e5933000 	ldr	r3, [r3]
   10a6c:	e3530000 	cmp	r3, #0, 0
   10a70:	0a00001b 	beq	10ae4 <fat32_read+0x88>
   10a74:	e1a04000 	mov	r4, r0
   10a78:	e5913024 	ldr	r3, [r1, #36]	; 0x24
   10a7c:	e3530000 	cmp	r3, #0, 0
   10a80:	0a00001f 	beq	10b04 <fat32_read+0xa8>
   10a84:	ebffffb6 	bl	10964 <fat32_stat>
   10a88:	e2505000 	subs	r5, r0, #0, 0
   10a8c:	0a000024 	beq	10b24 <fat32_read+0xc8>
   10a90:	e5951020 	ldr	r1, [r5, #32]
   10a94:	e1a00004 	mov	r0, r4
   10a98:	ebfffd92 	bl	100e8 <get_cluster_chain_length>
   10a9c:	e594600c 	ldr	r6, [r4, #12]
   10aa0:	e0060690 	mul	r6, r0, r6
   10aa4:	e1a06486 	lsl	r6, r6, #9
   10aa8:	e1a00006 	mov	r0, r6
   10aac:	eb00044b 	bl	11be0 <kmalloc>
   10ab0:	e1a07000 	mov	r7, r0
   10ab4:	e1a02000 	mov	r2, r0
   10ab8:	e5951020 	ldr	r1, [r5, #32]
   10abc:	e1a00004 	mov	r0, r4
   10ac0:	ebfffd95 	bl	1011c <read_cluster_chain>
   10ac4:	e3a0000c 	mov	r0, #12, 0
   10ac8:	eb000444 	bl	11be0 <kmalloc>
   10acc:	e5952028 	ldr	r2, [r5, #40]	; 0x28
   10ad0:	e5807000 	str	r7, [r0]
   10ad4:	e5806004 	str	r6, [r0, #4]
   10ad8:	e5802008 	str	r2, [r0, #8]
   10adc:	e28dd00c 	add	sp, sp, #12, 0
   10ae0:	e8bd80f0 	pop	{r4, r5, r6, r7, pc}
   10ae4:	e59f3054 	ldr	r3, [pc, #84]	; 10b40 <fat32_read+0xe4>
   10ae8:	e58d3000 	str	r3, [sp]
   10aec:	e3a03f45 	mov	r3, #276	; 0x114
   10af0:	e59f204c 	ldr	r2, [pc, #76]	; 10b44 <fat32_read+0xe8>
   10af4:	e59f104c 	ldr	r1, [pc, #76]	; 10b48 <fat32_read+0xec>
   10af8:	e59f004c 	ldr	r0, [pc, #76]	; 10b4c <fat32_read+0xf0>
   10afc:	eb000745 	bl	12818 <printk>
   10b00:	eb000889 	bl	12d2c <clean_reboot>
   10b04:	e59f3044 	ldr	r3, [pc, #68]	; 10b50 <fat32_read+0xf4>
   10b08:	e58d3000 	str	r3, [sp]
   10b0c:	e59f3040 	ldr	r3, [pc, #64]	; 10b54 <fat32_read+0xf8>
   10b10:	e59f202c 	ldr	r2, [pc, #44]	; 10b44 <fat32_read+0xe8>
   10b14:	e59f102c 	ldr	r1, [pc, #44]	; 10b48 <fat32_read+0xec>
   10b18:	e59f0038 	ldr	r0, [pc, #56]	; 10b58 <fat32_read+0xfc>
   10b1c:	eb00073d 	bl	12818 <printk>
   10b20:	eb000881 	bl	12d2c <clean_reboot>
   10b24:	e59f3030 	ldr	r3, [pc, #48]	; 10b5c <fat32_read+0x100>
   10b28:	e59f2014 	ldr	r2, [pc, #20]	; 10b44 <fat32_read+0xe8>
   10b2c:	e59f1014 	ldr	r1, [pc, #20]	; 10b48 <fat32_read+0xec>
   10b30:	e59f0028 	ldr	r0, [pc, #40]	; 10b60 <fat32_read+0x104>
   10b34:	eb000737 	bl	12818 <printk>
   10b38:	eb00087b 	bl	12d2c <clean_reboot>
   10b3c:	0019f1e8 	.word	0x0019f1e8
   10b40:	0019ba94 	.word	0x0019ba94
   10b44:	0019d5dc 	.word	0x0019d5dc
   10b48:	0019d2ac 	.word	0x0019d2ac
   10b4c:	0019d398 	.word	0x0019d398
   10b50:	0019d488 	.word	0x0019d488
   10b54:	00000115 	.word	0x00000115
   10b58:	0019d49c 	.word	0x0019d49c
   10b5c:	0000011a 	.word	0x0000011a
   10b60:	0019d4ec 	.word	0x0019d4ec

00010b64 <fat32_rename>:
   10b64:	e92d41f0 	push	{r4, r5, r6, r7, r8, lr}
   10b68:	e24dd010 	sub	sp, sp, #16, 0
   10b6c:	e1a04003 	mov	r4, r3
   10b70:	e59f30e4 	ldr	r3, [pc, #228]	; 10c5c <fat32_rename+0xf8>
   10b74:	e5933000 	ldr	r3, [r3]
   10b78:	e3530000 	cmp	r3, #0, 0
   10b7c:	0a000008 	beq	10ba4 <fat32_rename+0x40>
   10b80:	e1a05000 	mov	r5, r0
   10b84:	e1a06001 	mov	r6, r1
   10b88:	e1a07002 	mov	r7, r2
   10b8c:	e1a00004 	mov	r0, r4
   10b90:	ebfff519 	bl	dffc <fat32_is_valid_name>
   10b94:	e3500000 	cmp	r0, #0, 0
   10b98:	1a000009 	bne	10bc4 <fat32_rename+0x60>
   10b9c:	e28dd010 	add	sp, sp, #16, 0
   10ba0:	e8bd81f0 	pop	{r4, r5, r6, r7, r8, pc}
   10ba4:	e59f30b4 	ldr	r3, [pc, #180]	; 10c60 <fat32_rename+0xfc>
   10ba8:	e58d3000 	str	r3, [sp]
   10bac:	e59f30b0 	ldr	r3, [pc, #176]	; 10c64 <fat32_rename+0x100>
   10bb0:	e59f20b0 	ldr	r2, [pc, #176]	; 10c68 <fat32_rename+0x104>
   10bb4:	e59f10b0 	ldr	r1, [pc, #176]	; 10c6c <fat32_rename+0x108>
   10bb8:	e59f00b0 	ldr	r0, [pc, #176]	; 10c70 <fat32_rename+0x10c>
   10bbc:	eb000715 	bl	12818 <printk>
   10bc0:	eb000859 	bl	12d2c <clean_reboot>
   10bc4:	e28d200c 	add	r2, sp, #12, 0
   10bc8:	e5961020 	ldr	r1, [r6, #32]
   10bcc:	e1a00005 	mov	r0, r5
   10bd0:	ebfffd68 	bl	10178 <get_dirents>
   10bd4:	e1a08000 	mov	r8, r0
   10bd8:	e1a02004 	mov	r2, r4
   10bdc:	e59d100c 	ldr	r1, [sp, #12]
   10be0:	ebfffdc3 	bl	102f4 <find_dirent_with_name>
   10be4:	e3700001 	cmn	r0, #1, 0
   10be8:	13a00000 	movne	r0, #0, 0
   10bec:	1affffea 	bne	10b9c <fat32_rename+0x38>
   10bf0:	e1a02007 	mov	r2, r7
   10bf4:	e59d100c 	ldr	r1, [sp, #12]
   10bf8:	e1a00008 	mov	r0, r8
   10bfc:	ebfffdbc 	bl	102f4 <find_dirent_with_name>
   10c00:	e3700001 	cmn	r0, #1, 0
   10c04:	0a000012 	beq	10c54 <fat32_rename+0xf0>
   10c08:	e1a01004 	mov	r1, r4
   10c0c:	e0880280 	add	r0, r8, r0, lsl #5
   10c10:	ebfff53d 	bl	e10c <fat32_dirent_set_name>
   10c14:	e5961020 	ldr	r1, [r6, #32]
   10c18:	e1a00005 	mov	r0, r5
   10c1c:	ebfffd31 	bl	100e8 <get_cluster_chain_length>
   10c20:	e595300c 	ldr	r3, [r5, #12]
   10c24:	e0030093 	mul	r3, r3, r0
   10c28:	e59f1044 	ldr	r1, [pc, #68]	; 10c74 <fat32_rename+0x110>
   10c2c:	e5d1200b 	ldrb	r2, [r1, #11]
   10c30:	e5d1100c 	ldrb	r1, [r1, #12]
   10c34:	e1822401 	orr	r2, r2, r1, lsl #8
   10c38:	e0030392 	mul	r3, r2, r3
   10c3c:	e1a02008 	mov	r2, r8
   10c40:	e5961020 	ldr	r1, [r6, #32]
   10c44:	e1a00005 	mov	r0, r5
   10c48:	ebfffdcd 	bl	10384 <write_cluster_chain>
   10c4c:	e3a00001 	mov	r0, #1, 0
   10c50:	eaffffd1 	b	10b9c <fat32_rename+0x38>
   10c54:	e3a00000 	mov	r0, #0, 0
   10c58:	eaffffcf 	b	10b9c <fat32_rename+0x38>
   10c5c:	0019f1e8 	.word	0x0019f1e8
   10c60:	0019ba94 	.word	0x0019ba94
   10c64:	000001be 	.word	0x000001be
   10c68:	0019d5e8 	.word	0x0019d5e8
   10c6c:	0019d2ac 	.word	0x0019d2ac
   10c70:	0019d398 	.word	0x0019d398
   10c74:	0019f1f8 	.word	0x0019f1f8

00010c78 <fat32_create>:
   10c78:	e92d47f0 	push	{r4, r5, r6, r7, r8, r9, sl, lr}
   10c7c:	e24dd040 	sub	sp, sp, #64, 0	; 0x40
   10c80:	e1a0a003 	mov	sl, r3
   10c84:	e59f3180 	ldr	r3, [pc, #384]	; 10e0c <fat32_create+0x194>
   10c88:	e5933000 	ldr	r3, [r3]
   10c8c:	e3530000 	cmp	r3, #0, 0
   10c90:	0a00001b 	beq	10d04 <fat32_create+0x8c>
   10c94:	e1a08000 	mov	r8, r0
   10c98:	e1a09001 	mov	r9, r1
   10c9c:	e1a07002 	mov	r7, r2
   10ca0:	e1a00002 	mov	r0, r2
   10ca4:	ebfff4d4 	bl	dffc <fat32_is_valid_name>
   10ca8:	e3500000 	cmp	r0, #0, 0
   10cac:	0a000052 	beq	10dfc <fat32_create+0x184>
   10cb0:	e28d203c 	add	r2, sp, #60, 0	; 0x3c
   10cb4:	e5991020 	ldr	r1, [r9, #32]
   10cb8:	e1a00008 	mov	r0, r8
   10cbc:	ebfffd2d 	bl	10178 <get_dirents>
   10cc0:	e1a05000 	mov	r5, r0
   10cc4:	e1a02007 	mov	r2, r7
   10cc8:	e59d103c 	ldr	r1, [sp, #60]	; 0x3c
   10ccc:	ebfffd88 	bl	102f4 <find_dirent_with_name>
   10cd0:	e1a06000 	mov	r6, r0
   10cd4:	e3700001 	cmn	r0, #1, 0
   10cd8:	1a000049 	bne	10e04 <fat32_create+0x18c>
   10cdc:	e3a04000 	mov	r4, #0, 0
   10ce0:	e59dc03c 	ldr	ip, [sp, #60]	; 0x3c
   10ce4:	e154000c 	cmp	r4, ip
   10ce8:	2a00000e 	bcs	10d28 <fat32_create+0xb0>
   10cec:	e0850284 	add	r0, r5, r4, lsl #5
   10cf0:	ebfff439 	bl	dddc <fat32_dirent_free>
   10cf4:	e3500000 	cmp	r0, #0, 0
   10cf8:	1a000009 	bne	10d24 <fat32_create+0xac>
   10cfc:	e2844001 	add	r4, r4, #1, 0
   10d00:	eafffff6 	b	10ce0 <fat32_create+0x68>
   10d04:	e59f3104 	ldr	r3, [pc, #260]	; 10e10 <fat32_create+0x198>
   10d08:	e58d3000 	str	r3, [sp]
   10d0c:	e59f3100 	ldr	r3, [pc, #256]	; 10e14 <fat32_create+0x19c>
   10d10:	e59f2100 	ldr	r2, [pc, #256]	; 10e18 <fat32_create+0x1a0>
   10d14:	e59f1100 	ldr	r1, [pc, #256]	; 10e1c <fat32_create+0x1a4>
   10d18:	e59f0100 	ldr	r0, [pc, #256]	; 10e20 <fat32_create+0x1a8>
   10d1c:	eb0006bd 	bl	12818 <printk>
   10d20:	eb000801 	bl	12d2c <clean_reboot>
   10d24:	e1a06004 	mov	r6, r4
   10d28:	e3760001 	cmn	r6, #1, 0
   10d2c:	0a00002a 	beq	10ddc <fat32_create+0x164>
   10d30:	e0856286 	add	r6, r5, r6, lsl #5
   10d34:	e3a02020 	mov	r2, #32, 0
   10d38:	e3a01000 	mov	r1, #0, 0
   10d3c:	e1a00006 	mov	r0, r6
   10d40:	eb000679 	bl	1272c <memset>
   10d44:	e1a01007 	mov	r1, r7
   10d48:	e1a00006 	mov	r0, r6
   10d4c:	ebfff4ee 	bl	e10c <fat32_dirent_set_name>
   10d50:	e35a0000 	cmp	sl, #0, 0
   10d54:	0a000026 	beq	10df4 <fat32_create+0x17c>
   10d58:	e3a03010 	mov	r3, #16, 0
   10d5c:	e5c6300b 	strb	r3, [r6, #11]
   10d60:	e5991020 	ldr	r1, [r9, #32]
   10d64:	e1a00008 	mov	r0, r8
   10d68:	ebfffcde 	bl	100e8 <get_cluster_chain_length>
   10d6c:	e598300c 	ldr	r3, [r8, #12]
   10d70:	e0030093 	mul	r3, r3, r0
   10d74:	e59f10a8 	ldr	r1, [pc, #168]	; 10e24 <fat32_create+0x1ac>
   10d78:	e5d1200b 	ldrb	r2, [r1, #11]
   10d7c:	e5d1100c 	ldrb	r1, [r1, #12]
   10d80:	e1822401 	orr	r2, r2, r1, lsl #8
   10d84:	e0030392 	mul	r3, r2, r3
   10d88:	e1a02005 	mov	r2, r5
   10d8c:	e5991020 	ldr	r1, [r9, #32]
   10d90:	e1a00008 	mov	r0, r8
   10d94:	ebfffd7a 	bl	10384 <write_cluster_chain>
   10d98:	e3a0002c 	mov	r0, #44, 0	; 0x2c
   10d9c:	eb00038f 	bl	11be0 <kmalloc>
   10da0:	e1a04000 	mov	r4, r0
   10da4:	e1a01006 	mov	r1, r6
   10da8:	e28d0008 	add	r0, sp, #8, 0
   10dac:	ebfffd21 	bl	10238 <dirent_convert>
   10db0:	e1a0e004 	mov	lr, r4
   10db4:	e28dc008 	add	ip, sp, #8, 0
   10db8:	e8bc000f 	ldm	ip!, {r0, r1, r2, r3}
   10dbc:	e8ae000f 	stmia	lr!, {r0, r1, r2, r3}
   10dc0:	e8bc000f 	ldm	ip!, {r0, r1, r2, r3}
   10dc4:	e8ae000f 	stmia	lr!, {r0, r1, r2, r3}
   10dc8:	e89c0007 	ldm	ip, {r0, r1, r2}
   10dcc:	e88e0007 	stm	lr, {r0, r1, r2}
   10dd0:	e1a00004 	mov	r0, r4
   10dd4:	e28dd040 	add	sp, sp, #64, 0	; 0x40
   10dd8:	e8bd87f0 	pop	{r4, r5, r6, r7, r8, r9, sl, pc}
   10ddc:	e59f3044 	ldr	r3, [pc, #68]	; 10e28 <fat32_create+0x1b0>
   10de0:	e59f2030 	ldr	r2, [pc, #48]	; 10e18 <fat32_create+0x1a0>
   10de4:	e59f1030 	ldr	r1, [pc, #48]	; 10e1c <fat32_create+0x1a4>
   10de8:	e59f003c 	ldr	r0, [pc, #60]	; 10e2c <fat32_create+0x1b4>
   10dec:	eb000689 	bl	12818 <printk>
   10df0:	eb0007cd 	bl	12d2c <clean_reboot>
   10df4:	e3a03020 	mov	r3, #32, 0
   10df8:	eaffffd7 	b	10d5c <fat32_create+0xe4>
   10dfc:	e3a04000 	mov	r4, #0, 0
   10e00:	eafffff2 	b	10dd0 <fat32_create+0x158>
   10e04:	e3a04000 	mov	r4, #0, 0
   10e08:	eafffff0 	b	10dd0 <fat32_create+0x158>
   10e0c:	0019f1e8 	.word	0x0019f1e8
   10e10:	0019ba94 	.word	0x0019ba94
   10e14:	000001da 	.word	0x000001da
   10e18:	0019d5f8 	.word	0x0019d5f8
   10e1c:	0019d2ac 	.word	0x0019d2ac
   10e20:	0019d398 	.word	0x0019d398
   10e24:	0019f1f8 	.word	0x0019f1f8
   10e28:	000001f2 	.word	0x000001f2
   10e2c:	0019d538 	.word	0x0019d538

00010e30 <fat32_delete>:
   10e30:	e92d40f0 	push	{r4, r5, r6, r7, lr}
   10e34:	e24dd014 	sub	sp, sp, #20, 0
   10e38:	e59f3128 	ldr	r3, [pc, #296]	; 10f68 <fat32_delete+0x138>
   10e3c:	e5933000 	ldr	r3, [r3]
   10e40:	e3530000 	cmp	r3, #0, 0
   10e44:	0a000008 	beq	10e6c <fat32_delete+0x3c>
   10e48:	e1a05000 	mov	r5, r0
   10e4c:	e1a06001 	mov	r6, r1
   10e50:	e1a04002 	mov	r4, r2
   10e54:	e1a00002 	mov	r0, r2
   10e58:	ebfff467 	bl	dffc <fat32_is_valid_name>
   10e5c:	e3500000 	cmp	r0, #0, 0
   10e60:	1a000009 	bne	10e8c <fat32_delete+0x5c>
   10e64:	e28dd014 	add	sp, sp, #20, 0
   10e68:	e8bd80f0 	pop	{r4, r5, r6, r7, pc}
   10e6c:	e59f30f8 	ldr	r3, [pc, #248]	; 10f6c <fat32_delete+0x13c>
   10e70:	e58d3000 	str	r3, [sp]
   10e74:	e3a03f82 	mov	r3, #520	; 0x208
   10e78:	e59f20f0 	ldr	r2, [pc, #240]	; 10f70 <fat32_delete+0x140>
   10e7c:	e59f10f0 	ldr	r1, [pc, #240]	; 10f74 <fat32_delete+0x144>
   10e80:	e59f00f0 	ldr	r0, [pc, #240]	; 10f78 <fat32_delete+0x148>
   10e84:	eb000663 	bl	12818 <printk>
   10e88:	eb0007a7 	bl	12d2c <clean_reboot>
   10e8c:	e28d200c 	add	r2, sp, #12, 0
   10e90:	e5961020 	ldr	r1, [r6, #32]
   10e94:	e1a00005 	mov	r0, r5
   10e98:	ebfffcb6 	bl	10178 <get_dirents>
   10e9c:	e1a07000 	mov	r7, r0
   10ea0:	e1a02004 	mov	r2, r4
   10ea4:	e59d100c 	ldr	r1, [sp, #12]
   10ea8:	ebfffd11 	bl	102f4 <find_dirent_with_name>
   10eac:	e3700001 	cmn	r0, #1, 0
   10eb0:	0a00002a 	beq	10f60 <fat32_delete+0x130>
   10eb4:	e0873280 	add	r3, r7, r0, lsl #5
   10eb8:	e3e0201a 	mvn	r2, #26, 0
   10ebc:	e7c72280 	strb	r2, [r7, r0, lsl #5]
   10ec0:	e5d34014 	ldrb	r4, [r3, #20]
   10ec4:	e5d32015 	ldrb	r2, [r3, #21]
   10ec8:	e1842402 	orr	r2, r4, r2, lsl #8
   10ecc:	e5d3401a 	ldrb	r4, [r3, #26]
   10ed0:	e5d3301b 	ldrb	r3, [r3, #27]
   10ed4:	e1844403 	orr	r4, r4, r3, lsl #8
   10ed8:	e1844802 	orr	r4, r4, r2, lsl #16
   10edc:	e3540001 	cmp	r4, #1, 0
   10ee0:	8a000005 	bhi	10efc <fat32_delete+0xcc>
   10ee4:	ea00000d 	b	10f20 <fat32_delete+0xf0>
   10ee8:	e5953014 	ldr	r3, [r5, #20]
   10eec:	e1a02104 	lsl	r2, r4, #2
   10ef0:	e7934104 	ldr	r4, [r3, r4, lsl #2]
   10ef4:	e3a01000 	mov	r1, #0, 0
   10ef8:	e7831002 	str	r1, [r3, r2]
   10efc:	e1a00004 	mov	r0, r4
   10f00:	ebfff38b 	bl	dd34 <fat32_fat_entry_type>
   10f04:	e370028f 	cmn	r0, #-268435448	; 0xf0000008
   10f08:	1afffff6 	bne	10ee8 <fat32_delete+0xb8>
   10f0c:	e5953014 	ldr	r3, [r5, #20]
   10f10:	e3a02000 	mov	r2, #0, 0
   10f14:	e7832104 	str	r2, [r3, r4, lsl #2]
   10f18:	e1a00005 	mov	r0, r5
   10f1c:	ebfffd0a 	bl	1034c <write_fat_to_disk>
   10f20:	e5961020 	ldr	r1, [r6, #32]
   10f24:	e1a00005 	mov	r0, r5
   10f28:	ebfffc6e 	bl	100e8 <get_cluster_chain_length>
   10f2c:	e595300c 	ldr	r3, [r5, #12]
   10f30:	e0030093 	mul	r3, r3, r0
   10f34:	e59f1040 	ldr	r1, [pc, #64]	; 10f7c <fat32_delete+0x14c>
   10f38:	e5d1200b 	ldrb	r2, [r1, #11]
   10f3c:	e5d1100c 	ldrb	r1, [r1, #12]
   10f40:	e1822401 	orr	r2, r2, r1, lsl #8
   10f44:	e0030392 	mul	r3, r2, r3
   10f48:	e1a02007 	mov	r2, r7
   10f4c:	e5961020 	ldr	r1, [r6, #32]
   10f50:	e1a00005 	mov	r0, r5
   10f54:	ebfffd0a 	bl	10384 <write_cluster_chain>
   10f58:	e3a00001 	mov	r0, #1, 0
   10f5c:	eaffffc0 	b	10e64 <fat32_delete+0x34>
   10f60:	e3a00000 	mov	r0, #0, 0
   10f64:	eaffffbe 	b	10e64 <fat32_delete+0x34>
   10f68:	0019f1e8 	.word	0x0019f1e8
   10f6c:	0019ba94 	.word	0x0019ba94
   10f70:	0019d608 	.word	0x0019d608
   10f74:	0019d2ac 	.word	0x0019d2ac
   10f78:	0019d398 	.word	0x0019d398
   10f7c:	0019f1f8 	.word	0x0019f1f8

00010f80 <fat32_truncate>:
   10f80:	e92d4ff0 	push	{r4, r5, r6, r7, r8, r9, sl, fp, lr}
   10f84:	e24dd01c 	sub	sp, sp, #28, 0
   10f88:	e1a08003 	mov	r8, r3
   10f8c:	e59f3250 	ldr	r3, [pc, #592]	; 111e4 <fat32_truncate+0x264>
   10f90:	e5933000 	ldr	r3, [r3]
   10f94:	e3530000 	cmp	r3, #0, 0
   10f98:	0a00003b 	beq	1108c <fat32_truncate+0x10c>
   10f9c:	e1a04000 	mov	r4, r0
   10fa0:	e1a0a001 	mov	sl, r1
   10fa4:	e1a05002 	mov	r5, r2
   10fa8:	e28d2014 	add	r2, sp, #20, 0
   10fac:	e5911020 	ldr	r1, [r1, #32]
   10fb0:	ebfffc70 	bl	10178 <get_dirents>
   10fb4:	e1a06000 	mov	r6, r0
   10fb8:	e58d000c 	str	r0, [sp, #12]
   10fbc:	e1a02005 	mov	r2, r5
   10fc0:	e59d1014 	ldr	r1, [sp, #20]
   10fc4:	ebfffcca 	bl	102f4 <find_dirent_with_name>
   10fc8:	e3700001 	cmn	r0, #1, 0
   10fcc:	0a000082 	beq	111dc <fat32_truncate+0x25c>
   10fd0:	e0866280 	add	r6, r6, r0, lsl #5
   10fd4:	e5d65014 	ldrb	r5, [r6, #20]
   10fd8:	e5d60015 	ldrb	r0, [r6, #21]
   10fdc:	e1850400 	orr	r0, r5, r0, lsl #8
   10fe0:	e5d6501a 	ldrb	r5, [r6, #26]
   10fe4:	e5d6301b 	ldrb	r3, [r6, #27]
   10fe8:	e1855403 	orr	r5, r5, r3, lsl #8
   10fec:	e1855800 	orr	r5, r5, r0, lsl #16
   10ff0:	e594200c 	ldr	r2, [r4, #12]
   10ff4:	e59f31ec 	ldr	r3, [pc, #492]	; 111e8 <fat32_truncate+0x268>
   10ff8:	e5d3100b 	ldrb	r1, [r3, #11]
   10ffc:	e5d3300c 	ldrb	r3, [r3, #12]
   11000:	e1811403 	orr	r1, r1, r3, lsl #8
   11004:	e0010291 	mul	r1, r1, r2
   11008:	e3580000 	cmp	r8, #0, 0
   1100c:	1a00002c 	bne	110c4 <fat32_truncate+0x144>
   11010:	e3550001 	cmp	r5, #1, 0
   11014:	8a000024 	bhi	110ac <fat32_truncate+0x12c>
   11018:	e3a03000 	mov	r3, #0, 0
   1101c:	e5c63014 	strb	r3, [r6, #20]
   11020:	e5c63015 	strb	r3, [r6, #21]
   11024:	e5c6301a 	strb	r3, [r6, #26]
   11028:	e5c6301b 	strb	r3, [r6, #27]
   1102c:	e5c6801c 	strb	r8, [r6, #28]
   11030:	e1a03428 	lsr	r3, r8, #8
   11034:	e5c6301d 	strb	r3, [r6, #29]
   11038:	e1a03828 	lsr	r3, r8, #16
   1103c:	e5c6301e 	strb	r3, [r6, #30]
   11040:	e1a08c28 	lsr	r8, r8, #24
   11044:	e5c6801f 	strb	r8, [r6, #31]
   11048:	e59a1020 	ldr	r1, [sl, #32]
   1104c:	e1a00004 	mov	r0, r4
   11050:	ebfffc24 	bl	100e8 <get_cluster_chain_length>
   11054:	e594300c 	ldr	r3, [r4, #12]
   11058:	e0030093 	mul	r3, r3, r0
   1105c:	e59f1184 	ldr	r1, [pc, #388]	; 111e8 <fat32_truncate+0x268>
   11060:	e5d1200b 	ldrb	r2, [r1, #11]
   11064:	e5d1100c 	ldrb	r1, [r1, #12]
   11068:	e1822401 	orr	r2, r2, r1, lsl #8
   1106c:	e0030392 	mul	r3, r2, r3
   11070:	e59d200c 	ldr	r2, [sp, #12]
   11074:	e59a1020 	ldr	r1, [sl, #32]
   11078:	e1a00004 	mov	r0, r4
   1107c:	ebfffcc0 	bl	10384 <write_cluster_chain>
   11080:	e3a00001 	mov	r0, #1, 0
   11084:	e28dd01c 	add	sp, sp, #28, 0
   11088:	e8bd8ff0 	pop	{r4, r5, r6, r7, r8, r9, sl, fp, pc}
   1108c:	e59f3158 	ldr	r3, [pc, #344]	; 111ec <fat32_truncate+0x26c>
   11090:	e58d3000 	str	r3, [sp]
   11094:	e59f3154 	ldr	r3, [pc, #340]	; 111f0 <fat32_truncate+0x270>
   11098:	e59f2154 	ldr	r2, [pc, #340]	; 111f4 <fat32_truncate+0x274>
   1109c:	e59f1154 	ldr	r1, [pc, #340]	; 111f8 <fat32_truncate+0x278>
   110a0:	e59f0154 	ldr	r0, [pc, #340]	; 111fc <fat32_truncate+0x27c>
   110a4:	eb0005db 	bl	12818 <printk>
   110a8:	eb00071f 	bl	12d2c <clean_reboot>
   110ac:	e3a03000 	mov	r3, #0, 0
   110b0:	e1a02003 	mov	r2, r3
   110b4:	e1a01005 	mov	r1, r5
   110b8:	e1a00004 	mov	r0, r4
   110bc:	ebfffcb0 	bl	10384 <write_cluster_chain>
   110c0:	eaffffd4 	b	11018 <fat32_truncate+0x98>
   110c4:	e0810008 	add	r0, r1, r8
   110c8:	e2400001 	sub	r0, r0, #1, 0
   110cc:	eb000874 	bl	132a4 <__udivsi3>
   110d0:	e1a0b000 	mov	fp, r0
   110d4:	e3550001 	cmp	r5, #1, 0
   110d8:	9a000001 	bls	110e4 <fat32_truncate+0x164>
   110dc:	e3a07001 	mov	r7, #1, 0
   110e0:	ea00001a 	b	11150 <fat32_truncate+0x1d0>
   110e4:	e3a01003 	mov	r1, #3, 0
   110e8:	e1a00004 	mov	r0, r4
   110ec:	ebfffc34 	bl	101c4 <find_free_cluster>
   110f0:	e1a05000 	mov	r5, r0
   110f4:	e5943014 	ldr	r3, [r4, #20]
   110f8:	e3e0227f 	mvn	r2, #-268435449	; 0xf0000007
   110fc:	e7832100 	str	r2, [r3, r0, lsl #2]
   11100:	e1a03820 	lsr	r3, r0, #16
   11104:	e5c63014 	strb	r3, [r6, #20]
   11108:	e1a03423 	lsr	r3, r3, #8
   1110c:	e5c63015 	strb	r3, [r6, #21]
   11110:	e6ff3070 	uxth	r3, r0
   11114:	e5c6001a 	strb	r0, [r6, #26]
   11118:	e1a03423 	lsr	r3, r3, #8
   1111c:	e5c6301b 	strb	r3, [r6, #27]
   11120:	eaffffed 	b	110dc <fat32_truncate+0x15c>
   11124:	e3a01003 	mov	r1, #3, 0
   11128:	e1a00004 	mov	r0, r4
   1112c:	ebfffc24 	bl	101c4 <find_free_cluster>
   11130:	e5943014 	ldr	r3, [r4, #20]
   11134:	e7830105 	str	r0, [r3, r5, lsl #2]
   11138:	e5943014 	ldr	r3, [r4, #20]
   1113c:	e3e0227f 	mvn	r2, #-268435449	; 0xf0000007
   11140:	e7832100 	str	r2, [r3, r0, lsl #2]
   11144:	e5943014 	ldr	r3, [r4, #20]
   11148:	e7935009 	ldr	r5, [r3, r9]
   1114c:	e2877001 	add	r7, r7, #1, 0
   11150:	e157000b 	cmp	r7, fp
   11154:	2a000006 	bcs	11174 <fat32_truncate+0x1f4>
   11158:	e5943014 	ldr	r3, [r4, #20]
   1115c:	e1a09105 	lsl	r9, r5, #2
   11160:	e7930105 	ldr	r0, [r3, r5, lsl #2]
   11164:	ebfff2f2 	bl	dd34 <fat32_fat_entry_type>
   11168:	e370028f 	cmn	r0, #-268435448	; 0xf0000008
   1116c:	1afffff4 	bne	11144 <fat32_truncate+0x1c4>
   11170:	eaffffeb 	b	11124 <fat32_truncate+0x1a4>
   11174:	e5943014 	ldr	r3, [r4, #20]
   11178:	e7937105 	ldr	r7, [r3, r5, lsl #2]
   1117c:	e3e0227f 	mvn	r2, #-268435449	; 0xf0000007
   11180:	e7832105 	str	r2, [r3, r5, lsl #2]
   11184:	ea000005 	b	111a0 <fat32_truncate+0x220>
   11188:	e5943014 	ldr	r3, [r4, #20]
   1118c:	e7931107 	ldr	r1, [r3, r7, lsl #2]
   11190:	e5943014 	ldr	r3, [r4, #20]
   11194:	e3a02000 	mov	r2, #0, 0
   11198:	e7832107 	str	r2, [r3, r7, lsl #2]
   1119c:	e1a07001 	mov	r7, r1
   111a0:	e3570001 	cmp	r7, #1, 0
   111a4:	9a000009 	bls	111d0 <fat32_truncate+0x250>
   111a8:	e1a00007 	mov	r0, r7
   111ac:	ebfff2e0 	bl	dd34 <fat32_fat_entry_type>
   111b0:	e3500000 	cmp	r0, #0, 0
   111b4:	0a000005 	beq	111d0 <fat32_truncate+0x250>
   111b8:	e1a00007 	mov	r0, r7
   111bc:	ebfff2dc 	bl	dd34 <fat32_fat_entry_type>
   111c0:	e370028f 	cmn	r0, #-268435448	; 0xf0000008
   111c4:	1affffef 	bne	11188 <fat32_truncate+0x208>
   111c8:	e3a01000 	mov	r1, #0, 0
   111cc:	eaffffef 	b	11190 <fat32_truncate+0x210>
   111d0:	e1a00004 	mov	r0, r4
   111d4:	ebfffc5c 	bl	1034c <write_fat_to_disk>
   111d8:	eaffff93 	b	1102c <fat32_truncate+0xac>
   111dc:	e3a00000 	mov	r0, #0, 0
   111e0:	eaffffa7 	b	11084 <fat32_truncate+0x104>
   111e4:	0019f1e8 	.word	0x0019f1e8
   111e8:	0019f1f8 	.word	0x0019f1f8
   111ec:	0019ba94 	.word	0x0019ba94
   111f0:	00000229 	.word	0x00000229
   111f4:	0019d618 	.word	0x0019d618
   111f8:	0019d2ac 	.word	0x0019d2ac
   111fc:	0019d398 	.word	0x0019d398

00011200 <fat32_write>:
   11200:	e92d43f0 	push	{r4, r5, r6, r7, r8, r9, lr}
   11204:	e24dd014 	sub	sp, sp, #20, 0
   11208:	e1a08003 	mov	r8, r3
   1120c:	e59f31b4 	ldr	r3, [pc, #436]	; 113c8 <fat32_write+0x1c8>
   11210:	e5933000 	ldr	r3, [r3]
   11214:	e3530000 	cmp	r3, #0, 0
   11218:	0a000040 	beq	11320 <fat32_write+0x120>
   1121c:	e1a05000 	mov	r5, r0
   11220:	e1a07001 	mov	r7, r1
   11224:	e1a04002 	mov	r4, r2
   11228:	e5913024 	ldr	r3, [r1, #36]	; 0x24
   1122c:	e3530000 	cmp	r3, #0, 0
   11230:	0a000042 	beq	11340 <fat32_write+0x140>
   11234:	e28d200c 	add	r2, sp, #12, 0
   11238:	e5911020 	ldr	r1, [r1, #32]
   1123c:	ebfffbcd 	bl	10178 <get_dirents>
   11240:	e1a09000 	mov	r9, r0
   11244:	e1a02004 	mov	r2, r4
   11248:	e59d100c 	ldr	r1, [sp, #12]
   1124c:	ebfffc28 	bl	102f4 <find_dirent_with_name>
   11250:	e3700001 	cmn	r0, #1, 0
   11254:	0a000059 	beq	113c0 <fat32_write+0x1c0>
   11258:	e0894280 	add	r4, r9, r0, lsl #5
   1125c:	e5d46014 	ldrb	r6, [r4, #20]
   11260:	e5d40015 	ldrb	r0, [r4, #21]
   11264:	e1860400 	orr	r0, r6, r0, lsl #8
   11268:	e5d4601a 	ldrb	r6, [r4, #26]
   1126c:	e5d4301b 	ldrb	r3, [r4, #27]
   11270:	e1866403 	orr	r6, r6, r3, lsl #8
   11274:	e1866800 	orr	r6, r6, r0, lsl #16
   11278:	e5983008 	ldr	r3, [r8, #8]
   1127c:	e5c4301c 	strb	r3, [r4, #28]
   11280:	e1a02423 	lsr	r2, r3, #8
   11284:	e5c4201d 	strb	r2, [r4, #29]
   11288:	e1a02823 	lsr	r2, r3, #16
   1128c:	e5c4201e 	strb	r2, [r4, #30]
   11290:	e1a03c23 	lsr	r3, r3, #24
   11294:	e5c4301f 	strb	r3, [r4, #31]
   11298:	e5983008 	ldr	r3, [r8, #8]
   1129c:	e3530000 	cmp	r3, #0, 0
   112a0:	1a000006 	bne	112c0 <fat32_write+0xc0>
   112a4:	e3560001 	cmp	r6, #1, 0
   112a8:	8a00002c 	bhi	11360 <fat32_write+0x160>
   112ac:	e3a03000 	mov	r3, #0, 0
   112b0:	e5c43014 	strb	r3, [r4, #20]
   112b4:	e5c43015 	strb	r3, [r4, #21]
   112b8:	e5c4301a 	strb	r3, [r4, #26]
   112bc:	e5c4301b 	strb	r3, [r4, #27]
   112c0:	e3560001 	cmp	r6, #1, 0
   112c4:	9a00002a 	bls	11374 <fat32_write+0x174>
   112c8:	e5983008 	ldr	r3, [r8, #8]
   112cc:	e5982000 	ldr	r2, [r8]
   112d0:	e1a01006 	mov	r1, r6
   112d4:	e1a00005 	mov	r0, r5
   112d8:	ebfffc29 	bl	10384 <write_cluster_chain>
   112dc:	e5971020 	ldr	r1, [r7, #32]
   112e0:	e1a00005 	mov	r0, r5
   112e4:	ebfffb7f 	bl	100e8 <get_cluster_chain_length>
   112e8:	e595300c 	ldr	r3, [r5, #12]
   112ec:	e0030093 	mul	r3, r3, r0
   112f0:	e59f10d4 	ldr	r1, [pc, #212]	; 113cc <fat32_write+0x1cc>
   112f4:	e5d1200b 	ldrb	r2, [r1, #11]
   112f8:	e5d1100c 	ldrb	r1, [r1, #12]
   112fc:	e1822401 	orr	r2, r2, r1, lsl #8
   11300:	e0030392 	mul	r3, r2, r3
   11304:	e1a02009 	mov	r2, r9
   11308:	e5971020 	ldr	r1, [r7, #32]
   1130c:	e1a00005 	mov	r0, r5
   11310:	ebfffc1b 	bl	10384 <write_cluster_chain>
   11314:	e3a00001 	mov	r0, #1, 0
   11318:	e28dd014 	add	sp, sp, #20, 0
   1131c:	e8bd83f0 	pop	{r4, r5, r6, r7, r8, r9, pc}
   11320:	e59f30a8 	ldr	r3, [pc, #168]	; 113d0 <fat32_write+0x1d0>
   11324:	e58d3000 	str	r3, [sp]
   11328:	e59f30a4 	ldr	r3, [pc, #164]	; 113d4 <fat32_write+0x1d4>
   1132c:	e59f20a4 	ldr	r2, [pc, #164]	; 113d8 <fat32_write+0x1d8>
   11330:	e59f10a4 	ldr	r1, [pc, #164]	; 113dc <fat32_write+0x1dc>
   11334:	e59f00a4 	ldr	r0, [pc, #164]	; 113e0 <fat32_write+0x1e0>
   11338:	eb000536 	bl	12818 <printk>
   1133c:	eb00067a 	bl	12d2c <clean_reboot>
   11340:	e59f309c 	ldr	r3, [pc, #156]	; 113e4 <fat32_write+0x1e4>
   11344:	e58d3000 	str	r3, [sp]
   11348:	e59f3098 	ldr	r3, [pc, #152]	; 113e8 <fat32_write+0x1e8>
   1134c:	e59f2084 	ldr	r2, [pc, #132]	; 113d8 <fat32_write+0x1d8>
   11350:	e59f1084 	ldr	r1, [pc, #132]	; 113dc <fat32_write+0x1dc>
   11354:	e59f0090 	ldr	r0, [pc, #144]	; 113ec <fat32_write+0x1ec>
   11358:	eb00052e 	bl	12818 <printk>
   1135c:	eb000672 	bl	12d2c <clean_reboot>
   11360:	e1a02003 	mov	r2, r3
   11364:	e1a01006 	mov	r1, r6
   11368:	e1a00005 	mov	r0, r5
   1136c:	ebfffc04 	bl	10384 <write_cluster_chain>
   11370:	eaffffcd 	b	112ac <fat32_write+0xac>
   11374:	e5983008 	ldr	r3, [r8, #8]
   11378:	e3530000 	cmp	r3, #0, 0
   1137c:	0affffd1 	beq	112c8 <fat32_write+0xc8>
   11380:	e3a01003 	mov	r1, #3, 0
   11384:	e1a00005 	mov	r0, r5
   11388:	ebfffb8d 	bl	101c4 <find_free_cluster>
   1138c:	e1a06000 	mov	r6, r0
   11390:	e5953014 	ldr	r3, [r5, #20]
   11394:	e3e0227f 	mvn	r2, #-268435449	; 0xf0000007
   11398:	e7832100 	str	r2, [r3, r0, lsl #2]
   1139c:	e1a03820 	lsr	r3, r0, #16
   113a0:	e5c43014 	strb	r3, [r4, #20]
   113a4:	e1a03423 	lsr	r3, r3, #8
   113a8:	e5c43015 	strb	r3, [r4, #21]
   113ac:	e6ff3070 	uxth	r3, r0
   113b0:	e5c4001a 	strb	r0, [r4, #26]
   113b4:	e1a03423 	lsr	r3, r3, #8
   113b8:	e5c4301b 	strb	r3, [r4, #27]
   113bc:	eaffffc1 	b	112c8 <fat32_write+0xc8>
   113c0:	e3a00000 	mov	r0, #0, 0
   113c4:	eaffffd3 	b	11318 <fat32_write+0x118>
   113c8:	0019f1e8 	.word	0x0019f1e8
   113cc:	0019f1f8 	.word	0x0019f1f8
   113d0:	0019ba94 	.word	0x0019ba94
   113d4:	0000026d 	.word	0x0000026d
   113d8:	0019d628 	.word	0x0019d628
   113dc:	0019d2ac 	.word	0x0019d2ac
   113e0:	0019d398 	.word	0x0019d398
   113e4:	0019d488 	.word	0x0019d488
   113e8:	0000026e 	.word	0x0000026e
   113ec:	0019d49c 	.word	0x0019d49c

000113f0 <fat32_flush>:
   113f0:	e59f3038 	ldr	r3, [pc, #56]	; 11430 <fat32_flush+0x40>
   113f4:	e5933000 	ldr	r3, [r3]
   113f8:	e3530000 	cmp	r3, #0, 0
   113fc:	0a000001 	beq	11408 <fat32_flush+0x18>
   11400:	e3a00000 	mov	r0, #0, 0
   11404:	e12fff1e 	bx	lr
   11408:	e52de004 	push	{lr}		; (str lr, [sp, #-4]!)
   1140c:	e24dd00c 	sub	sp, sp, #12, 0
   11410:	e59f301c 	ldr	r3, [pc, #28]	; 11434 <fat32_flush+0x44>
   11414:	e58d3000 	str	r3, [sp]
   11418:	e59f3018 	ldr	r3, [pc, #24]	; 11438 <fat32_flush+0x48>
   1141c:	e59f2018 	ldr	r2, [pc, #24]	; 1143c <fat32_flush+0x4c>
   11420:	e59f1018 	ldr	r1, [pc, #24]	; 11440 <fat32_flush+0x50>
   11424:	e59f0018 	ldr	r0, [pc, #24]	; 11444 <fat32_flush+0x54>
   11428:	eb0004fa 	bl	12818 <printk>
   1142c:	eb00063e 	bl	12d2c <clean_reboot>
   11430:	0019f1e8 	.word	0x0019f1e8
   11434:	0019ba94 	.word	0x0019ba94
   11438:	00000292 	.word	0x00000292
   1143c:	0019d634 	.word	0x0019d634
   11440:	0019d2ac 	.word	0x0019d2ac
   11444:	0019d398 	.word	0x0019d398

00011448 <mbr_read>:
   11448:	e92d4010 	push	{r4, lr}
   1144c:	e3a01001 	mov	r1, #1, 0
   11450:	e3a00000 	mov	r0, #0, 0
   11454:	ebffed69 	bl	ca00 <pi_sec_read>
   11458:	e1a04000 	mov	r4, r0
   1145c:	ebffef84 	bl	d274 <mbr_check>
   11460:	e1a00004 	mov	r0, r4
   11464:	e8bd8010 	pop	{r4, pc}

00011468 <new_cs>:
   11468:	e3a00000 	mov	r0, #0, 0
   1146c:	e12fff1e 	bx	lr

00011470 <read_cs>:
   11470:	e92d4010 	push	{r4, lr}
   11474:	ebffdaec 	bl	802c <GET32>
   11478:	e8bd8010 	pop	{r4, pc}

0001147c <start_transfer>:
   1147c:	e24dd010 	sub	sp, sp, #16, 0
   11480:	e92d4010 	push	{r4, lr}
   11484:	e24dd008 	sub	sp, sp, #8, 0
   11488:	e28dc00c 	add	ip, sp, #12, 0
   1148c:	e98c000f 	stmib	ip, {r0, r1, r2, r3}
   11490:	eb000657 	bl	12df4 <dev_barrier>
   11494:	e59f306c 	ldr	r3, [pc, #108]	; 11508 <start_transfer+0x8c>
   11498:	e5933000 	ldr	r3, [r3]
   1149c:	e3530000 	cmp	r3, #0, 0
   114a0:	1a000010 	bne	114e8 <start_transfer+0x6c>
   114a4:	e59f4060 	ldr	r4, [pc, #96]	; 1150c <start_transfer+0x90>
   114a8:	e1a00004 	mov	r0, r4
   114ac:	ebffffef 	bl	11470 <read_cs>
   114b0:	e38000b0 	orr	r0, r0, #176, 0	; 0xb0
   114b4:	e59d1010 	ldr	r1, [sp, #16]
   114b8:	e2011003 	and	r1, r1, #3, 0
   114bc:	e3c00003 	bic	r0, r0, #3, 0
   114c0:	e1811000 	orr	r1, r1, r0
   114c4:	e1a00004 	mov	r0, r4
   114c8:	ebffdad5 	bl	8024 <PUT32>
   114cc:	eb000648 	bl	12df4 <dev_barrier>
   114d0:	e3a00003 	mov	r0, #3, 0
   114d4:	eb00062d 	bl	12d90 <delay_cycles>
   114d8:	e28dd008 	add	sp, sp, #8, 0
   114dc:	e8bd4010 	pop	{r4, lr}
   114e0:	e28dd010 	add	sp, sp, #16, 0
   114e4:	e12fff1e 	bx	lr
   114e8:	e59d3010 	ldr	r3, [sp, #16]
   114ec:	e58d3000 	str	r3, [sp]
   114f0:	e3a030f5 	mov	r3, #245, 0	; 0xf5
   114f4:	e59f2014 	ldr	r2, [pc, #20]	; 11510 <start_transfer+0x94>
   114f8:	e59f1014 	ldr	r1, [pc, #20]	; 11514 <start_transfer+0x98>
   114fc:	e59f0014 	ldr	r0, [pc, #20]	; 11518 <start_transfer+0x9c>
   11500:	eb0004c4 	bl	12818 <printk>
   11504:	eaffffe6 	b	114a4 <start_transfer+0x28>
   11508:	0019f1ec 	.word	0x0019f1ec
   1150c:	20204000 	.word	0x20204000
   11510:	0019d804 	.word	0x0019d804
   11514:	0019d640 	.word	0x0019d640
   11518:	0019d650 	.word	0x0019d650

0001151c <end_transfer>:
   1151c:	e24dd010 	sub	sp, sp, #16, 0
   11520:	e52de004 	push	{lr}		; (str lr, [sp, #-4]!)
   11524:	e24dd00c 	sub	sp, sp, #12, 0
   11528:	e28dc00c 	add	ip, sp, #12, 0
   1152c:	e98c000f 	stmib	ip, {r0, r1, r2, r3}
   11530:	e59f30c4 	ldr	r3, [pc, #196]	; 115fc <end_transfer+0xe0>
   11534:	e5933000 	ldr	r3, [r3]
   11538:	e3530000 	cmp	r3, #0, 0
   1153c:	1a000017 	bne	115a0 <end_transfer+0x84>
   11540:	e59f30b8 	ldr	r3, [pc, #184]	; 11600 <end_transfer+0xe4>
   11544:	e5933000 	ldr	r3, [r3]
   11548:	e3130801 	tst	r3, #65536	; 0x10000
   1154c:	0afffffb 	beq	11540 <end_transfer+0x24>
   11550:	e59f30a4 	ldr	r3, [pc, #164]	; 115fc <end_transfer+0xe0>
   11554:	e5933000 	ldr	r3, [r3]
   11558:	e3530000 	cmp	r3, #0, 0
   1155c:	1a000016 	bne	115bc <end_transfer+0xa0>
   11560:	e59f0098 	ldr	r0, [pc, #152]	; 11600 <end_transfer+0xe4>
   11564:	ebffffc1 	bl	11470 <read_cs>
   11568:	e3c01080 	bic	r1, r0, #128, 0	; 0x80
   1156c:	e2000003 	and	r0, r0, #3, 0
   11570:	e59d3010 	ldr	r3, [sp, #16]
   11574:	e1500003 	cmp	r0, r3
   11578:	1a000017 	bne	115dc <end_transfer+0xc0>
   1157c:	e59f007c 	ldr	r0, [pc, #124]	; 11600 <end_transfer+0xe4>
   11580:	ebffdaa7 	bl	8024 <PUT32>
   11584:	eb00061a 	bl	12df4 <dev_barrier>
   11588:	e3a00003 	mov	r0, #3, 0
   1158c:	eb0005ff 	bl	12d90 <delay_cycles>
   11590:	e28dd00c 	add	sp, sp, #12, 0
   11594:	e49de004 	pop	{lr}		; (ldr lr, [sp], #4)
   11598:	e28dd010 	add	sp, sp, #16, 0
   1159c:	e12fff1e 	bx	lr
   115a0:	e58d0000 	str	r0, [sp]
   115a4:	e59f3058 	ldr	r3, [pc, #88]	; 11604 <end_transfer+0xe8>
   115a8:	e59f2058 	ldr	r2, [pc, #88]	; 11608 <end_transfer+0xec>
   115ac:	e59f1058 	ldr	r1, [pc, #88]	; 1160c <end_transfer+0xf0>
   115b0:	e59f0058 	ldr	r0, [pc, #88]	; 11610 <end_transfer+0xf4>
   115b4:	eb000497 	bl	12818 <printk>
   115b8:	eaffffe0 	b	11540 <end_transfer+0x24>
   115bc:	e59d3010 	ldr	r3, [sp, #16]
   115c0:	e58d3000 	str	r3, [sp]
   115c4:	e3a03f47 	mov	r3, #284	; 0x11c
   115c8:	e59f2038 	ldr	r2, [pc, #56]	; 11608 <end_transfer+0xec>
   115cc:	e59f1038 	ldr	r1, [pc, #56]	; 1160c <end_transfer+0xf0>
   115d0:	e59f003c 	ldr	r0, [pc, #60]	; 11614 <end_transfer+0xf8>
   115d4:	eb00048f 	bl	12818 <printk>
   115d8:	eaffffe0 	b	11560 <end_transfer+0x44>
   115dc:	e58d3004 	str	r3, [sp, #4]
   115e0:	e58d0000 	str	r0, [sp]
   115e4:	e59f302c 	ldr	r3, [pc, #44]	; 11618 <end_transfer+0xfc>
   115e8:	e59f2018 	ldr	r2, [pc, #24]	; 11608 <end_transfer+0xec>
   115ec:	e59f1018 	ldr	r1, [pc, #24]	; 1160c <end_transfer+0xf0>
   115f0:	e59f0024 	ldr	r0, [pc, #36]	; 1161c <end_transfer+0x100>
   115f4:	eb000487 	bl	12818 <printk>
   115f8:	eb0005cb 	bl	12d2c <clean_reboot>
   115fc:	0019f1ec 	.word	0x0019f1ec
   11600:	20204000 	.word	0x20204000
   11604:	00000119 	.word	0x00000119
   11608:	0019d814 	.word	0x0019d814
   1160c:	0019d640 	.word	0x0019d640
   11610:	0019d674 	.word	0x0019d674
   11614:	0019d6a4 	.word	0x0019d6a4
   11618:	00000122 	.word	0x00000122
   1161c:	0019d6c4 	.word	0x0019d6c4

00011620 <move_data>:
   11620:	e92d41f0 	push	{r4, r5, r6, r7, r8, lr}
   11624:	e24dd010 	sub	sp, sp, #16, 0
   11628:	e1a08000 	mov	r8, r0
   1162c:	e1a06001 	mov	r6, r1
   11630:	e1a05002 	mov	r5, r2
   11634:	e3520010 	cmp	r2, #16, 0
   11638:	31a07002 	movcc	r7, r2
   1163c:	23a07010 	movcs	r7, #16, 0
   11640:	e3a04000 	mov	r4, #0, 0
   11644:	ea000003 	b	11658 <move_data+0x38>
   11648:	e7d61004 	ldrb	r1, [r6, r4]
   1164c:	e59f00c4 	ldr	r0, [pc, #196]	; 11718 <move_data+0xf8>
   11650:	ebffda73 	bl	8024 <PUT32>
   11654:	e2844001 	add	r4, r4, #1, 0
   11658:	e1540007 	cmp	r4, r7
   1165c:	3afffff9 	bcc	11648 <move_data+0x28>
   11660:	e3a07000 	mov	r7, #0, 0
   11664:	ea00000d 	b	116a0 <move_data+0x80>
   11668:	e7d61004 	ldrb	r1, [r6, r4]
   1166c:	e59f00a4 	ldr	r0, [pc, #164]	; 11718 <move_data+0xf8>
   11670:	ebffda6b 	bl	8024 <PUT32>
   11674:	e2844001 	add	r4, r4, #1, 0
   11678:	e1540005 	cmp	r4, r5
   1167c:	2a000003 	bcs	11690 <move_data+0x70>
   11680:	e59f3094 	ldr	r3, [pc, #148]	; 1171c <move_data+0xfc>
   11684:	e5933000 	ldr	r3, [r3]
   11688:	e3130701 	tst	r3, #262144	; 0x40000
   1168c:	1afffff5 	bne	11668 <move_data+0x48>
   11690:	e59f3084 	ldr	r3, [pc, #132]	; 1171c <move_data+0xfc>
   11694:	e5933000 	ldr	r3, [r3]
   11698:	e3130802 	tst	r3, #131072	; 0x20000
   1169c:	1a000007 	bne	116c0 <move_data+0xa0>
   116a0:	e1570005 	cmp	r7, r5
   116a4:	3afffff3 	bcc	11678 <move_data+0x58>
   116a8:	e1540005 	cmp	r4, r5
   116ac:	1a000008 	bne	116d4 <move_data+0xb4>
   116b0:	e1570005 	cmp	r7, r5
   116b4:	1a00000f 	bne	116f8 <move_data+0xd8>
   116b8:	e28dd010 	add	sp, sp, #16, 0
   116bc:	e8bd81f0 	pop	{r4, r5, r6, r7, r8, pc}
   116c0:	e59f0050 	ldr	r0, [pc, #80]	; 11718 <move_data+0xf8>
   116c4:	ebffda58 	bl	802c <GET32>
   116c8:	e7c80007 	strb	r0, [r8, r7]
   116cc:	e2877001 	add	r7, r7, #1, 0
   116d0:	eafffff2 	b	116a0 <move_data+0x80>
   116d4:	e58d5008 	str	r5, [sp, #8]
   116d8:	e58d7004 	str	r7, [sp, #4]
   116dc:	e58d4000 	str	r4, [sp]
   116e0:	e59f3038 	ldr	r3, [pc, #56]	; 11720 <move_data+0x100>
   116e4:	e59f2038 	ldr	r2, [pc, #56]	; 11724 <move_data+0x104>
   116e8:	e59f1038 	ldr	r1, [pc, #56]	; 11728 <move_data+0x108>
   116ec:	e59f0038 	ldr	r0, [pc, #56]	; 1172c <move_data+0x10c>
   116f0:	eb000448 	bl	12818 <printk>
   116f4:	eb00058c 	bl	12d2c <clean_reboot>
   116f8:	e59f3030 	ldr	r3, [pc, #48]	; 11730 <move_data+0x110>
   116fc:	e58d3000 	str	r3, [sp]
   11700:	e3a03e1a 	mov	r3, #416	; 0x1a0
   11704:	e59f2018 	ldr	r2, [pc, #24]	; 11724 <move_data+0x104>
   11708:	e59f1018 	ldr	r1, [pc, #24]	; 11728 <move_data+0x108>
   1170c:	e59f0020 	ldr	r0, [pc, #32]	; 11734 <move_data+0x114>
   11710:	eb000440 	bl	12818 <printk>
   11714:	eb000584 	bl	12d2c <clean_reboot>
   11718:	20204004 	.word	0x20204004
   1171c:	20204000 	.word	0x20204000
   11720:	0000019e 	.word	0x0000019e
   11724:	0019d824 	.word	0x0019d824
   11728:	0019d640 	.word	0x0019d640
   1172c:	0019d6fc 	.word	0x0019d6fc
   11730:	0019d72c 	.word	0x0019d72c
   11734:	0019b6f4 	.word	0x0019b6f4

00011738 <spi_set_verbose>:
   11738:	e59f3004 	ldr	r3, [pc, #4]	; 11744 <spi_set_verbose+0xc>
   1173c:	e5830000 	str	r0, [r3]
   11740:	e12fff1e 	bx	lr
   11744:	0019f1ec 	.word	0x0019f1ec

00011748 <spi_n_transfer>:
   11748:	e24dd010 	sub	sp, sp, #16, 0
   1174c:	e92d4070 	push	{r4, r5, r6, lr}
   11750:	e24dd010 	sub	sp, sp, #16, 0
   11754:	e28dc01c 	add	ip, sp, #28, 0
   11758:	e98c000f 	stmib	ip, {r0, r1, r2, r3}
   1175c:	e59d6040 	ldr	r6, [sp, #64]	; 0x40
   11760:	e3560000 	cmp	r6, #0, 0
   11764:	0a000013 	beq	117b8 <spi_n_transfer+0x70>
   11768:	e58d6008 	str	r6, [sp, #8]
   1176c:	e28d5030 	add	r5, sp, #48, 0	; 0x30
   11770:	e8950003 	ldm	r5, {r0, r1}
   11774:	e88d0003 	stm	sp, {r0, r1}
   11778:	e28d4020 	add	r4, sp, #32, 0
   1177c:	e894000f 	ldm	r4, {r0, r1, r2, r3}
   11780:	ebffff3d 	bl	1147c <start_transfer>
   11784:	e1a02006 	mov	r2, r6
   11788:	e59d103c 	ldr	r1, [sp, #60]	; 0x3c
   1178c:	e59d0038 	ldr	r0, [sp, #56]	; 0x38
   11790:	ebffffa2 	bl	11620 <move_data>
   11794:	e8950003 	ldm	r5, {r0, r1}
   11798:	e88d0003 	stm	sp, {r0, r1}
   1179c:	e894000f 	ldm	r4, {r0, r1, r2, r3}
   117a0:	ebffff5d 	bl	1151c <end_transfer>
   117a4:	e3a00001 	mov	r0, #1, 0
   117a8:	e28dd010 	add	sp, sp, #16, 0
   117ac:	e8bd4070 	pop	{r4, r5, r6, lr}
   117b0:	e28dd010 	add	sp, sp, #16, 0
   117b4:	e12fff1e 	bx	lr
   117b8:	e59f3018 	ldr	r3, [pc, #24]	; 117d8 <spi_n_transfer+0x90>
   117bc:	e58d3000 	str	r3, [sp]
   117c0:	e59f3014 	ldr	r3, [pc, #20]	; 117dc <spi_n_transfer+0x94>
   117c4:	e59f2014 	ldr	r2, [pc, #20]	; 117e0 <spi_n_transfer+0x98>
   117c8:	e59f1014 	ldr	r1, [pc, #20]	; 117e4 <spi_n_transfer+0x9c>
   117cc:	e59f0014 	ldr	r0, [pc, #20]	; 117e8 <spi_n_transfer+0xa0>
   117d0:	eb000410 	bl	12818 <printk>
   117d4:	eb000554 	bl	12d2c <clean_reboot>
   117d8:	0019d734 	.word	0x0019d734
   117dc:	000001c3 	.word	0x000001c3
   117e0:	0019d830 	.word	0x0019d830
   117e4:	0019d640 	.word	0x0019d640
   117e8:	0019b6f4 	.word	0x0019b6f4

000117ec <spi_n_init>:
   117ec:	e92d40f0 	push	{r4, r5, r6, r7, lr}
   117f0:	e24dd014 	sub	sp, sp, #20, 0
   117f4:	e1a04000 	mov	r4, r0
   117f8:	e1a05001 	mov	r5, r1
   117fc:	e1a06002 	mov	r6, r2
   11800:	e59f3168 	ldr	r3, [pc, #360]	; 11970 <spi_n_init+0x184>
   11804:	e5933004 	ldr	r3, [r3, #4]
   11808:	e3530000 	cmp	r3, #0, 0
   1180c:	1a00002b 	bne	118c0 <spi_n_init+0xd4>
   11810:	e59f3158 	ldr	r3, [pc, #344]	; 11970 <spi_n_init+0x184>
   11814:	e5832004 	str	r2, [r3, #4]
   11818:	eb000575 	bl	12df4 <dev_barrier>
   1181c:	e3550000 	cmp	r5, #0, 0
   11820:	0a000030 	beq	118e8 <spi_n_init+0xfc>
   11824:	e3550001 	cmp	r5, #1, 0
   11828:	1a000032 	bne	118f8 <spi_n_init+0x10c>
   1182c:	e3a01004 	mov	r1, #4, 0
   11830:	e3a00007 	mov	r0, #7, 0
   11834:	eb0001c1 	bl	11f40 <gpio_set_function>
   11838:	e59f3130 	ldr	r3, [pc, #304]	; 11970 <spi_n_init+0x184>
   1183c:	e5933008 	ldr	r3, [r3, #8]
   11840:	e3530000 	cmp	r3, #0, 0
   11844:	0a000032 	beq	11914 <spi_n_init+0x128>
   11848:	eb000569 	bl	12df4 <dev_barrier>
   1184c:	ebffff05 	bl	11468 <new_cs>
   11850:	e2051003 	and	r1, r5, #3, 0
   11854:	e3c00003 	bic	r0, r0, #3, 0
   11858:	e1811000 	orr	r1, r1, r0
   1185c:	e59f7110 	ldr	r7, [pc, #272]	; 11974 <spi_n_init+0x188>
   11860:	e3811030 	orr	r1, r1, #48, 0	; 0x30
   11864:	e1a00007 	mov	r0, r7
   11868:	ebffd9ed 	bl	8024 <PUT32>
   1186c:	eb000560 	bl	12df4 <dev_barrier>
   11870:	e1a00007 	mov	r0, r7
   11874:	ebfffefd 	bl	11470 <read_cs>
   11878:	e2000003 	and	r0, r0, #3, 0
   1187c:	e1500005 	cmp	r0, r5
   11880:	1a000030 	bne	11948 <spi_n_init+0x15c>
   11884:	e1a01006 	mov	r1, r6
   11888:	e59f00e8 	ldr	r0, [pc, #232]	; 11978 <spi_n_init+0x18c>
   1188c:	ebffd9e4 	bl	8024 <PUT32>
   11890:	eb000557 	bl	12df4 <dev_barrier>
   11894:	e3a03000 	mov	r3, #0, 0
   11898:	e5843000 	str	r3, [r4]
   1189c:	e5843004 	str	r3, [r4, #4]
   118a0:	e5843008 	str	r3, [r4, #8]
   118a4:	e584300c 	str	r3, [r4, #12]
   118a8:	e5843010 	str	r3, [r4, #16]
   118ac:	e5843014 	str	r3, [r4, #20]
   118b0:	e5845000 	str	r5, [r4]
   118b4:	e1a00004 	mov	r0, r4
   118b8:	e28dd014 	add	sp, sp, #20, 0
   118bc:	e8bd80f0 	pop	{r4, r5, r6, r7, pc}
   118c0:	e1530002 	cmp	r3, r2
   118c4:	0affffd3 	beq	11818 <spi_n_init+0x2c>
   118c8:	e58d2004 	str	r2, [sp, #4]
   118cc:	e58d3000 	str	r3, [sp]
   118d0:	e59f30a4 	ldr	r3, [pc, #164]	; 1197c <spi_n_init+0x190>
   118d4:	e59f20a4 	ldr	r2, [pc, #164]	; 11980 <spi_n_init+0x194>
   118d8:	e59f10a4 	ldr	r1, [pc, #164]	; 11984 <spi_n_init+0x198>
   118dc:	e59f00a4 	ldr	r0, [pc, #164]	; 11988 <spi_n_init+0x19c>
   118e0:	eb0003cc 	bl	12818 <printk>
   118e4:	eb000510 	bl	12d2c <clean_reboot>
   118e8:	e3a01004 	mov	r1, #4, 0
   118ec:	e3a00008 	mov	r0, #8, 0
   118f0:	eb000192 	bl	11f40 <gpio_set_function>
   118f4:	eaffffcf 	b	11838 <spi_n_init+0x4c>
   118f8:	e58d5000 	str	r5, [sp]
   118fc:	e59f3088 	ldr	r3, [pc, #136]	; 1198c <spi_n_init+0x1a0>
   11900:	e59f2078 	ldr	r2, [pc, #120]	; 11980 <spi_n_init+0x194>
   11904:	e59f1078 	ldr	r1, [pc, #120]	; 11984 <spi_n_init+0x198>
   11908:	e59f0080 	ldr	r0, [pc, #128]	; 11990 <spi_n_init+0x1a4>
   1190c:	eb0003c1 	bl	12818 <printk>
   11910:	eb000505 	bl	12d2c <clean_reboot>
   11914:	e59f3054 	ldr	r3, [pc, #84]	; 11970 <spi_n_init+0x184>
   11918:	e3a02001 	mov	r2, #1, 0
   1191c:	e5832008 	str	r2, [r3, #8]
   11920:	e3a01004 	mov	r1, #4, 0
   11924:	e3a00009 	mov	r0, #9, 0
   11928:	eb000184 	bl	11f40 <gpio_set_function>
   1192c:	e3a01004 	mov	r1, #4, 0
   11930:	e3a0000a 	mov	r0, #10, 0
   11934:	eb000181 	bl	11f40 <gpio_set_function>
   11938:	e3a01004 	mov	r1, #4, 0
   1193c:	e3a0000b 	mov	r0, #11, 0
   11940:	eb00017e 	bl	11f40 <gpio_set_function>
   11944:	eaffffbf 	b	11848 <spi_n_init+0x5c>
   11948:	e58d0008 	str	r0, [sp, #8]
   1194c:	e58d5004 	str	r5, [sp, #4]
   11950:	e59f303c 	ldr	r3, [pc, #60]	; 11994 <spi_n_init+0x1a8>
   11954:	e58d3000 	str	r3, [sp]
   11958:	e3a03f8e 	mov	r3, #568	; 0x238
   1195c:	e59f201c 	ldr	r2, [pc, #28]	; 11980 <spi_n_init+0x194>
   11960:	e59f101c 	ldr	r1, [pc, #28]	; 11984 <spi_n_init+0x198>
   11964:	e59f002c 	ldr	r0, [pc, #44]	; 11998 <spi_n_init+0x1ac>
   11968:	eb0003aa 	bl	12818 <printk>
   1196c:	eb0004ee 	bl	12d2c <clean_reboot>
   11970:	0019f1ec 	.word	0x0019f1ec
   11974:	20204000 	.word	0x20204000
   11978:	20204008 	.word	0x20204008
   1197c:	00000213 	.word	0x00000213
   11980:	0019d840 	.word	0x0019d840
   11984:	0019d640 	.word	0x0019d640
   11988:	0019d73c 	.word	0x0019d73c
   1198c:	00000222 	.word	0x00000222
   11990:	0019d78c 	.word	0x0019d78c
   11994:	0019d7f4 	.word	0x0019d7f4
   11998:	0019d7b4 	.word	0x0019d7b4

0001199c <kmalloc_heap_end>:
   1199c:	e59f3004 	ldr	r3, [pc, #4]	; 119a8 <kmalloc_heap_end+0xc>
   119a0:	e5930000 	ldr	r0, [r3]
   119a4:	e12fff1e 	bx	lr
   119a8:	0019ee3c 	.word	0x0019ee3c

000119ac <kmalloc_heap_start>:
   119ac:	e59f3004 	ldr	r3, [pc, #4]	; 119b8 <kmalloc_heap_start+0xc>
   119b0:	e5930004 	ldr	r0, [r3, #4]
   119b4:	e12fff1e 	bx	lr
   119b8:	0019ee3c 	.word	0x0019ee3c

000119bc <kmalloc_heap_ptr>:
   119bc:	e59f3004 	ldr	r3, [pc, #4]	; 119c8 <kmalloc_heap_ptr+0xc>
   119c0:	e5930008 	ldr	r0, [r3, #8]
   119c4:	e12fff1e 	bx	lr
   119c8:	0019ee3c 	.word	0x0019ee3c

000119cc <kmalloc_init_set_start>:
   119cc:	e92d4030 	push	{r4, r5, lr}
   119d0:	e24dd00c 	sub	sp, sp, #12, 0
   119d4:	e1a05001 	mov	r5, r1
   119d8:	e3510201 	cmp	r1, #268435456	; 0x10000000
   119dc:	8a000014 	bhi	11a34 <kmalloc_init_set_start+0x68>
   119e0:	e1a04000 	mov	r4, r0
   119e4:	eb0004d8 	bl	12d4c <program_end>
   119e8:	e1540000 	cmp	r4, r0
   119ec:	3a000017 	bcc	11a50 <kmalloc_init_set_start+0x84>
   119f0:	e3550000 	cmp	r5, #0, 0
   119f4:	0a00001b 	beq	11a68 <kmalloc_init_set_start+0x9c>
   119f8:	e59f30d0 	ldr	r3, [pc, #208]	; 11ad0 <kmalloc_init_set_start+0x104>
   119fc:	e5933004 	ldr	r3, [r3, #4]
   11a00:	e1530004 	cmp	r3, r4
   11a04:	8a00001f 	bhi	11a88 <kmalloc_init_set_start+0xbc>
   11a08:	e59f30c0 	ldr	r3, [pc, #192]	; 11ad0 <kmalloc_init_set_start+0x104>
   11a0c:	e5933008 	ldr	r3, [r3, #8]
   11a10:	e1530004 	cmp	r3, r4
   11a14:	8a000023 	bhi	11aa8 <kmalloc_init_set_start+0xdc>
   11a18:	e59f30b0 	ldr	r3, [pc, #176]	; 11ad0 <kmalloc_init_set_start+0x104>
   11a1c:	e5834008 	str	r4, [r3, #8]
   11a20:	e5834004 	str	r4, [r3, #4]
   11a24:	e0844005 	add	r4, r4, r5
   11a28:	e5834000 	str	r4, [r3]
   11a2c:	e28dd00c 	add	sp, sp, #12, 0
   11a30:	e8bd8030 	pop	{r4, r5, pc}
   11a34:	e58d1000 	str	r1, [sp]
   11a38:	e3a0303c 	mov	r3, #60, 0	; 0x3c
   11a3c:	e59f2090 	ldr	r2, [pc, #144]	; 11ad4 <kmalloc_init_set_start+0x108>
   11a40:	e59f1090 	ldr	r1, [pc, #144]	; 11ad8 <kmalloc_init_set_start+0x10c>
   11a44:	e59f0090 	ldr	r0, [pc, #144]	; 11adc <kmalloc_init_set_start+0x110>
   11a48:	eb000372 	bl	12818 <printk>
   11a4c:	eb0004b6 	bl	12d2c <clean_reboot>
   11a50:	e3a03040 	mov	r3, #64, 0	; 0x40
   11a54:	e59f2078 	ldr	r2, [pc, #120]	; 11ad4 <kmalloc_init_set_start+0x108>
   11a58:	e59f1078 	ldr	r1, [pc, #120]	; 11ad8 <kmalloc_init_set_start+0x10c>
   11a5c:	e59f007c 	ldr	r0, [pc, #124]	; 11ae0 <kmalloc_init_set_start+0x114>
   11a60:	eb00036c 	bl	12818 <printk>
   11a64:	eb0004b0 	bl	12d2c <clean_reboot>
   11a68:	e59f3074 	ldr	r3, [pc, #116]	; 11ae4 <kmalloc_init_set_start+0x118>
   11a6c:	e58d3000 	str	r3, [sp]
   11a70:	e3a03042 	mov	r3, #66, 0	; 0x42
   11a74:	e59f2058 	ldr	r2, [pc, #88]	; 11ad4 <kmalloc_init_set_start+0x108>
   11a78:	e59f1058 	ldr	r1, [pc, #88]	; 11ad8 <kmalloc_init_set_start+0x10c>
   11a7c:	e59f0064 	ldr	r0, [pc, #100]	; 11ae8 <kmalloc_init_set_start+0x11c>
   11a80:	eb000364 	bl	12818 <printk>
   11a84:	eb0004a8 	bl	12d2c <clean_reboot>
   11a88:	e58d4004 	str	r4, [sp, #4]
   11a8c:	e58d3000 	str	r3, [sp]
   11a90:	e3a03044 	mov	r3, #68, 0	; 0x44
   11a94:	e59f2038 	ldr	r2, [pc, #56]	; 11ad4 <kmalloc_init_set_start+0x108>
   11a98:	e59f1038 	ldr	r1, [pc, #56]	; 11ad8 <kmalloc_init_set_start+0x10c>
   11a9c:	e59f0048 	ldr	r0, [pc, #72]	; 11aec <kmalloc_init_set_start+0x120>
   11aa0:	eb00035c 	bl	12818 <printk>
   11aa4:	eb0004a0 	bl	12d2c <clean_reboot>
   11aa8:	e59f3020 	ldr	r3, [pc, #32]	; 11ad0 <kmalloc_init_set_start+0x104>
   11aac:	e5933000 	ldr	r3, [r3]
   11ab0:	e58d3004 	str	r3, [sp, #4]
   11ab4:	e58d4000 	str	r4, [sp]
   11ab8:	e3a03048 	mov	r3, #72, 0	; 0x48
   11abc:	e59f2010 	ldr	r2, [pc, #16]	; 11ad4 <kmalloc_init_set_start+0x108>
   11ac0:	e59f1010 	ldr	r1, [pc, #16]	; 11ad8 <kmalloc_init_set_start+0x10c>
   11ac4:	e59f0024 	ldr	r0, [pc, #36]	; 11af0 <kmalloc_init_set_start+0x124>
   11ac8:	eb000352 	bl	12818 <printk>
   11acc:	eb000496 	bl	12d2c <clean_reboot>
   11ad0:	0019ee3c 	.word	0x0019ee3c
   11ad4:	0019daac 	.word	0x0019daac
   11ad8:	0019d84c 	.word	0x0019d84c
   11adc:	0019d85c 	.word	0x0019d85c
   11ae0:	0019d88c 	.word	0x0019d88c
   11ae4:	0019d8b4 	.word	0x0019d8b4
   11ae8:	0019b6f4 	.word	0x0019b6f4
   11aec:	0019d8c0 	.word	0x0019d8c0
   11af0:	0019d928 	.word	0x0019d928

00011af4 <kmalloc_notzero>:
   11af4:	e52de004 	push	{lr}		; (str lr, [sp, #-4]!)
   11af8:	e24dd00c 	sub	sp, sp, #12, 0
   11afc:	e3500000 	cmp	r0, #0, 0
   11b00:	0a00000f 	beq	11b44 <kmalloc_notzero+0x50>
   11b04:	e2800007 	add	r0, r0, #7, 0
   11b08:	e3c03007 	bic	r3, r0, #7, 0
   11b0c:	e59f20ac 	ldr	r2, [pc, #172]	; 11bc0 <kmalloc_notzero+0xcc>
   11b10:	e5920008 	ldr	r0, [r2, #8]
   11b14:	e3100007 	tst	r0, #7, 0
   11b18:	1a000011 	bne	11b64 <kmalloc_notzero+0x70>
   11b1c:	e3500000 	cmp	r0, #0, 0
   11b20:	0a000017 	beq	11b84 <kmalloc_notzero+0x90>
   11b24:	e0802003 	add	r2, r0, r3
   11b28:	e59f1090 	ldr	r1, [pc, #144]	; 11bc0 <kmalloc_notzero+0xcc>
   11b2c:	e5812008 	str	r2, [r1, #8]
   11b30:	e5911000 	ldr	r1, [r1]
   11b34:	e1520001 	cmp	r2, r1
   11b38:	8a000017 	bhi	11b9c <kmalloc_notzero+0xa8>
   11b3c:	e28dd00c 	add	sp, sp, #12, 0
   11b40:	e49df004 	pop	{pc}		; (ldr pc, [sp], #4)
   11b44:	e59f3078 	ldr	r3, [pc, #120]	; 11bc4 <kmalloc_notzero+0xd0>
   11b48:	e58d3000 	str	r3, [sp]
   11b4c:	e3a03051 	mov	r3, #81, 0	; 0x51
   11b50:	e59f2070 	ldr	r2, [pc, #112]	; 11bc8 <kmalloc_notzero+0xd4>
   11b54:	e59f1070 	ldr	r1, [pc, #112]	; 11bcc <kmalloc_notzero+0xd8>
   11b58:	e59f0070 	ldr	r0, [pc, #112]	; 11bd0 <kmalloc_notzero+0xdc>
   11b5c:	eb00032d 	bl	12818 <printk>
   11b60:	eb000471 	bl	12d2c <clean_reboot>
   11b64:	e59f3068 	ldr	r3, [pc, #104]	; 11bd4 <kmalloc_notzero+0xe0>
   11b68:	e58d3000 	str	r3, [sp]
   11b6c:	e3a03054 	mov	r3, #84, 0	; 0x54
   11b70:	e59f2050 	ldr	r2, [pc, #80]	; 11bc8 <kmalloc_notzero+0xd4>
   11b74:	e59f1050 	ldr	r1, [pc, #80]	; 11bcc <kmalloc_notzero+0xd8>
   11b78:	e59f0050 	ldr	r0, [pc, #80]	; 11bd0 <kmalloc_notzero+0xdc>
   11b7c:	eb000325 	bl	12818 <printk>
   11b80:	eb000469 	bl	12d2c <clean_reboot>
   11b84:	e3a03058 	mov	r3, #88, 0	; 0x58
   11b88:	e59f2038 	ldr	r2, [pc, #56]	; 11bc8 <kmalloc_notzero+0xd4>
   11b8c:	e59f1038 	ldr	r1, [pc, #56]	; 11bcc <kmalloc_notzero+0xd8>
   11b90:	e59f0040 	ldr	r0, [pc, #64]	; 11bd8 <kmalloc_notzero+0xe4>
   11b94:	eb00031f 	bl	12818 <printk>
   11b98:	eb000463 	bl	12d2c <clean_reboot>
   11b9c:	e0422001 	sub	r2, r2, r1
   11ba0:	e58d2004 	str	r2, [sp, #4]
   11ba4:	e58d3000 	str	r3, [sp]
   11ba8:	e3a0305c 	mov	r3, #92, 0	; 0x5c
   11bac:	e59f2014 	ldr	r2, [pc, #20]	; 11bc8 <kmalloc_notzero+0xd4>
   11bb0:	e59f1014 	ldr	r1, [pc, #20]	; 11bcc <kmalloc_notzero+0xd8>
   11bb4:	e59f0020 	ldr	r0, [pc, #32]	; 11bdc <kmalloc_notzero+0xe8>
   11bb8:	eb000316 	bl	12818 <printk>
   11bbc:	eb00045a 	bl	12d2c <clean_reboot>
   11bc0:	0019ee3c 	.word	0x0019ee3c
   11bc4:	0019d734 	.word	0x0019d734
   11bc8:	0019dac4 	.word	0x0019dac4
   11bcc:	0019d84c 	.word	0x0019d84c
   11bd0:	0019b6f4 	.word	0x0019b6f4
   11bd4:	0019d96c 	.word	0x0019d96c
   11bd8:	0019d984 	.word	0x0019d984
   11bdc:	0019d9b0 	.word	0x0019d9b0

00011be0 <kmalloc>:
   11be0:	e92d4030 	push	{r4, r5, lr}
   11be4:	e24dd00c 	sub	sp, sp, #12, 0
   11be8:	e2504000 	subs	r4, r0, #0, 0
   11bec:	0a000008 	beq	11c14 <kmalloc+0x34>
   11bf0:	e1a00004 	mov	r0, r4
   11bf4:	ebffffbe 	bl	11af4 <kmalloc_notzero>
   11bf8:	e1a05000 	mov	r5, r0
   11bfc:	e1a02004 	mov	r2, r4
   11c00:	e3a01000 	mov	r1, #0, 0
   11c04:	eb0002c8 	bl	1272c <memset>
   11c08:	e1a00005 	mov	r0, r5
   11c0c:	e28dd00c 	add	sp, sp, #12, 0
   11c10:	e8bd8030 	pop	{r4, r5, pc}
   11c14:	e59f3018 	ldr	r3, [pc, #24]	; 11c34 <kmalloc+0x54>
   11c18:	e58d3000 	str	r3, [sp]
   11c1c:	e3a03064 	mov	r3, #100, 0	; 0x64
   11c20:	e59f2010 	ldr	r2, [pc, #16]	; 11c38 <kmalloc+0x58>
   11c24:	e59f1010 	ldr	r1, [pc, #16]	; 11c3c <kmalloc+0x5c>
   11c28:	e59f0010 	ldr	r0, [pc, #16]	; 11c40 <kmalloc+0x60>
   11c2c:	eb0002f9 	bl	12818 <printk>
   11c30:	eb00043d 	bl	12d2c <clean_reboot>
   11c34:	0019d734 	.word	0x0019d734
   11c38:	0019dad4 	.word	0x0019dad4
   11c3c:	0019d84c 	.word	0x0019d84c
   11c40:	0019b6f4 	.word	0x0019b6f4

00011c44 <kmalloc_aligned>:
   11c44:	e52de004 	push	{lr}		; (str lr, [sp, #-4]!)
   11c48:	e24dd00c 	sub	sp, sp, #12, 0
   11c4c:	e3500000 	cmp	r0, #0, 0
   11c50:	0a000014 	beq	11ca8 <kmalloc_aligned+0x64>
   11c54:	e2613000 	rsb	r3, r1, #0, 0
   11c58:	e1d13003 	bics	r3, r1, r3
   11c5c:	1a000019 	bne	11cc8 <kmalloc_aligned+0x84>
   11c60:	e3510008 	cmp	r1, #8, 0
   11c64:	33a01008 	movcc	r1, #8, 0
   11c68:	e59f30b8 	ldr	r3, [pc, #184]	; 11d28 <kmalloc_aligned+0xe4>
   11c6c:	e5932008 	ldr	r2, [r3, #8]
   11c70:	e2613000 	rsb	r3, r1, #0, 0
   11c74:	e1d1c003 	bics	ip, r1, r3
   11c78:	1a00001a 	bne	11ce8 <kmalloc_aligned+0xa4>
   11c7c:	e0822001 	add	r2, r2, r1
   11c80:	e2422001 	sub	r2, r2, #1, 0
   11c84:	e0033002 	and	r3, r3, r2
   11c88:	e2411001 	sub	r1, r1, #1, 0
   11c8c:	e1110003 	tst	r1, r3
   11c90:	1a00001c 	bne	11d08 <kmalloc_aligned+0xc4>
   11c94:	e59f208c 	ldr	r2, [pc, #140]	; 11d28 <kmalloc_aligned+0xe4>
   11c98:	e5823008 	str	r3, [r2, #8]
   11c9c:	ebffffcf 	bl	11be0 <kmalloc>
   11ca0:	e28dd00c 	add	sp, sp, #12, 0
   11ca4:	e49df004 	pop	{pc}		; (ldr pc, [sp], #4)
   11ca8:	e59f307c 	ldr	r3, [pc, #124]	; 11d2c <kmalloc_aligned+0xe8>
   11cac:	e58d3000 	str	r3, [sp]
   11cb0:	e3a0306e 	mov	r3, #110, 0	; 0x6e
   11cb4:	e59f2074 	ldr	r2, [pc, #116]	; 11d30 <kmalloc_aligned+0xec>
   11cb8:	e59f1074 	ldr	r1, [pc, #116]	; 11d34 <kmalloc_aligned+0xf0>
   11cbc:	e59f0074 	ldr	r0, [pc, #116]	; 11d38 <kmalloc_aligned+0xf4>
   11cc0:	eb0002d4 	bl	12818 <printk>
   11cc4:	eb000418 	bl	12d2c <clean_reboot>
   11cc8:	e59f306c 	ldr	r3, [pc, #108]	; 11d3c <kmalloc_aligned+0xf8>
   11ccc:	e58d3000 	str	r3, [sp]
   11cd0:	e3a0306f 	mov	r3, #111, 0	; 0x6f
   11cd4:	e59f2054 	ldr	r2, [pc, #84]	; 11d30 <kmalloc_aligned+0xec>
   11cd8:	e59f1054 	ldr	r1, [pc, #84]	; 11d34 <kmalloc_aligned+0xf0>
   11cdc:	e59f005c 	ldr	r0, [pc, #92]	; 11d40 <kmalloc_aligned+0xfc>
   11ce0:	eb0002cc 	bl	12818 <printk>
   11ce4:	eb000410 	bl	12d2c <clean_reboot>
   11ce8:	e59f3054 	ldr	r3, [pc, #84]	; 11d44 <kmalloc_aligned+0x100>
   11cec:	e58d3000 	str	r3, [sp]
   11cf0:	e3a03011 	mov	r3, #17, 0
   11cf4:	e59f204c 	ldr	r2, [pc, #76]	; 11d48 <kmalloc_aligned+0x104>
   11cf8:	e59f1034 	ldr	r1, [pc, #52]	; 11d34 <kmalloc_aligned+0xf0>
   11cfc:	e59f0034 	ldr	r0, [pc, #52]	; 11d38 <kmalloc_aligned+0xf4>
   11d00:	eb0002c4 	bl	12818 <printk>
   11d04:	eb000408 	bl	12d2c <clean_reboot>
   11d08:	e59f303c 	ldr	r3, [pc, #60]	; 11d4c <kmalloc_aligned+0x108>
   11d0c:	e58d3000 	str	r3, [sp]
   11d10:	e3a03076 	mov	r3, #118, 0	; 0x76
   11d14:	e59f2014 	ldr	r2, [pc, #20]	; 11d30 <kmalloc_aligned+0xec>
   11d18:	e59f1014 	ldr	r1, [pc, #20]	; 11d34 <kmalloc_aligned+0xf0>
   11d1c:	e59f002c 	ldr	r0, [pc, #44]	; 11d50 <kmalloc_aligned+0x10c>
   11d20:	eb0002bc 	bl	12818 <printk>
   11d24:	eb000400 	bl	12d2c <clean_reboot>
   11d28:	0019ee3c 	.word	0x0019ee3c
   11d2c:	0019d734 	.word	0x0019d734
   11d30:	0019dadc 	.word	0x0019dadc
   11d34:	0019d84c 	.word	0x0019d84c
   11d38:	0019b6f4 	.word	0x0019b6f4
   11d3c:	0019da38 	.word	0x0019da38
   11d40:	0019d9f8 	.word	0x0019d9f8
   11d44:	0019da4c 	.word	0x0019da4c
   11d48:	0019daec 	.word	0x0019daec
   11d4c:	0019da90 	.word	0x0019da90
   11d50:	0019da58 	.word	0x0019da58

00011d54 <kfree_all>:
   11d54:	e59f3008 	ldr	r3, [pc, #8]	; 11d64 <kfree_all+0x10>
   11d58:	e5932004 	ldr	r2, [r3, #4]
   11d5c:	e5832008 	str	r2, [r3, #8]
   11d60:	e12fff1e 	bx	lr
   11d64:	0019ee3c 	.word	0x0019ee3c

00011d68 <gpio_set_mode>:
   11d68:	e92d41f0 	push	{r4, r5, r6, r7, r8, lr}
   11d6c:	e1a04000 	mov	r4, r0
   11d70:	e1a07001 	mov	r7, r1
   11d74:	e59f503c 	ldr	r5, [pc, #60]	; 11db8 <gpio_set_mode+0x50>
   11d78:	e0853095 	umull	r3, r5, r5, r0
   11d7c:	e1a051a5 	lsr	r5, r5, #3
   11d80:	e1a08105 	lsl	r8, r5, #2
   11d84:	e2886202 	add	r6, r8, #536870912	; 0x20000000
   11d88:	e2866602 	add	r6, r6, #2097152	; 0x200000
   11d8c:	e1a00006 	mov	r0, r6
   11d90:	ebffd8a5 	bl	802c <GET32>
   11d94:	e0885005 	add	r5, r8, r5
   11d98:	e0444085 	sub	r4, r4, r5, lsl #1
   11d9c:	e0844084 	add	r4, r4, r4, lsl #1
   11da0:	e3a01007 	mov	r1, #7, 0
   11da4:	e1c01411 	bic	r1, r0, r1, lsl r4
   11da8:	e1811417 	orr	r1, r1, r7, lsl r4
   11dac:	e1a00006 	mov	r0, r6
   11db0:	ebffd89b 	bl	8024 <PUT32>
   11db4:	e8bd81f0 	pop	{r4, r5, r6, r7, r8, pc}
   11db8:	cccccccd 	.word	0xcccccccd

00011dbc <gpio_set_output>:
   11dbc:	e92d4010 	push	{r4, lr}
   11dc0:	e1a04000 	mov	r4, r0
   11dc4:	e3500035 	cmp	r0, #53, 0	; 0x35
   11dc8:	8a000003 	bhi	11ddc <gpio_set_output+0x20>
   11dcc:	e3a01001 	mov	r1, #1, 0
   11dd0:	e1a00004 	mov	r0, r4
   11dd4:	ebffffe3 	bl	11d68 <gpio_set_mode>
   11dd8:	e8bd8010 	pop	{r4, pc}
   11ddc:	e1a01000 	mov	r1, r0
   11de0:	e59f0004 	ldr	r0, [pc, #4]	; 11dec <gpio_set_output+0x30>
   11de4:	eb0003f7 	bl	12dc8 <gpio_panic>
   11de8:	eafffff7 	b	11dcc <gpio_set_output+0x10>
   11dec:	0019daf4 	.word	0x0019daf4

00011df0 <gpio_set_on>:
   11df0:	e92d4010 	push	{r4, lr}
   11df4:	e1a04000 	mov	r4, r0
   11df8:	e3500035 	cmp	r0, #53, 0	; 0x35
   11dfc:	8a000007 	bhi	11e20 <gpio_set_on+0x30>
   11e00:	e354001f 	cmp	r4, #31, 0
   11e04:	9a000009 	bls	11e30 <gpio_set_on+0x40>
   11e08:	e59f0028 	ldr	r0, [pc, #40]	; 11e38 <gpio_set_on+0x48>
   11e0c:	e204401f 	and	r4, r4, #31, 0
   11e10:	e3a01001 	mov	r1, #1, 0
   11e14:	e1a01411 	lsl	r1, r1, r4
   11e18:	ebffd881 	bl	8024 <PUT32>
   11e1c:	e8bd8010 	pop	{r4, pc}
   11e20:	e1a01000 	mov	r1, r0
   11e24:	e59f0010 	ldr	r0, [pc, #16]	; 11e3c <gpio_set_on+0x4c>
   11e28:	eb0003e6 	bl	12dc8 <gpio_panic>
   11e2c:	eafffff3 	b	11e00 <gpio_set_on+0x10>
   11e30:	e59f0008 	ldr	r0, [pc, #8]	; 11e40 <gpio_set_on+0x50>
   11e34:	eafffff4 	b	11e0c <gpio_set_on+0x1c>
   11e38:	20200020 	.word	0x20200020
   11e3c:	0019daf4 	.word	0x0019daf4
   11e40:	2020001c 	.word	0x2020001c

00011e44 <gpio_set_off>:
   11e44:	e92d4010 	push	{r4, lr}
   11e48:	e1a04000 	mov	r4, r0
   11e4c:	e3500035 	cmp	r0, #53, 0	; 0x35
   11e50:	8a000007 	bhi	11e74 <gpio_set_off+0x30>
   11e54:	e354001f 	cmp	r4, #31, 0
   11e58:	9a000009 	bls	11e84 <gpio_set_off+0x40>
   11e5c:	e59f0028 	ldr	r0, [pc, #40]	; 11e8c <gpio_set_off+0x48>
   11e60:	e204401f 	and	r4, r4, #31, 0
   11e64:	e3a01001 	mov	r1, #1, 0
   11e68:	e1a01411 	lsl	r1, r1, r4
   11e6c:	ebffd86c 	bl	8024 <PUT32>
   11e70:	e8bd8010 	pop	{r4, pc}
   11e74:	e1a01000 	mov	r1, r0
   11e78:	e59f0010 	ldr	r0, [pc, #16]	; 11e90 <gpio_set_off+0x4c>
   11e7c:	eb0003d1 	bl	12dc8 <gpio_panic>
   11e80:	eafffff3 	b	11e54 <gpio_set_off+0x10>
   11e84:	e59f0008 	ldr	r0, [pc, #8]	; 11e94 <gpio_set_off+0x50>
   11e88:	eafffff4 	b	11e60 <gpio_set_off+0x1c>
   11e8c:	2020002c 	.word	0x2020002c
   11e90:	0019daf4 	.word	0x0019daf4
   11e94:	20200028 	.word	0x20200028

00011e98 <gpio_write>:
   11e98:	e92d4010 	push	{r4, lr}
   11e9c:	e3510000 	cmp	r1, #0, 0
   11ea0:	0a000001 	beq	11eac <gpio_write+0x14>
   11ea4:	ebffffd1 	bl	11df0 <gpio_set_on>
   11ea8:	e8bd8010 	pop	{r4, pc}
   11eac:	ebffffe4 	bl	11e44 <gpio_set_off>
   11eb0:	e8bd8010 	pop	{r4, pc}

00011eb4 <gpio_set_input>:
   11eb4:	e92d4010 	push	{r4, lr}
   11eb8:	e1a04000 	mov	r4, r0
   11ebc:	e3500035 	cmp	r0, #53, 0	; 0x35
   11ec0:	8a000003 	bhi	11ed4 <gpio_set_input+0x20>
   11ec4:	e3a01000 	mov	r1, #0, 0
   11ec8:	e1a00004 	mov	r0, r4
   11ecc:	ebffffa5 	bl	11d68 <gpio_set_mode>
   11ed0:	e8bd8010 	pop	{r4, pc}
   11ed4:	e1a01000 	mov	r1, r0
   11ed8:	e59f0004 	ldr	r0, [pc, #4]	; 11ee4 <gpio_set_input+0x30>
   11edc:	eb0003b9 	bl	12dc8 <gpio_panic>
   11ee0:	eafffff7 	b	11ec4 <gpio_set_input+0x10>
   11ee4:	0019daf4 	.word	0x0019daf4

00011ee8 <gpio_read>:
   11ee8:	e92d4010 	push	{r4, lr}
   11eec:	e1a04000 	mov	r4, r0
   11ef0:	e3500035 	cmp	r0, #53, 0	; 0x35
   11ef4:	8a000008 	bhi	11f1c <gpio_read+0x34>
   11ef8:	e354001f 	cmp	r4, #31, 0
   11efc:	9a00000a 	bls	11f2c <gpio_read+0x44>
   11f00:	e59f002c 	ldr	r0, [pc, #44]	; 11f34 <gpio_read+0x4c>
   11f04:	ebffd848 	bl	802c <GET32>
   11f08:	e204301f 	and	r3, r4, #31, 0
   11f0c:	e3a02001 	mov	r2, #1, 0
   11f10:	e0000312 	and	r0, r0, r2, lsl r3
   11f14:	e1a00430 	lsr	r0, r0, r4
   11f18:	e8bd8010 	pop	{r4, pc}
   11f1c:	e1a01000 	mov	r1, r0
   11f20:	e59f0010 	ldr	r0, [pc, #16]	; 11f38 <gpio_read+0x50>
   11f24:	eb0003a7 	bl	12dc8 <gpio_panic>
   11f28:	eafffff2 	b	11ef8 <gpio_read+0x10>
   11f2c:	e59f0008 	ldr	r0, [pc, #8]	; 11f3c <gpio_read+0x54>
   11f30:	eafffff3 	b	11f04 <gpio_read+0x1c>
   11f34:	20200038 	.word	0x20200038
   11f38:	0019daf4 	.word	0x0019daf4
   11f3c:	20200034 	.word	0x20200034

00011f40 <gpio_set_function>:
   11f40:	e92d4070 	push	{r4, r5, r6, lr}
   11f44:	e1a05000 	mov	r5, r0
   11f48:	e1a04001 	mov	r4, r1
   11f4c:	e3500035 	cmp	r0, #53, 0	; 0x35
   11f50:	8a000005 	bhi	11f6c <gpio_set_function+0x2c>
   11f54:	e3d43007 	bics	r3, r4, #7, 0
   11f58:	1a000007 	bne	11f7c <gpio_set_function+0x3c>
   11f5c:	e1a01004 	mov	r1, r4
   11f60:	e1a00005 	mov	r0, r5
   11f64:	ebffff7f 	bl	11d68 <gpio_set_mode>
   11f68:	e8bd8070 	pop	{r4, r5, r6, pc}
   11f6c:	e1a01000 	mov	r1, r0
   11f70:	e59f0014 	ldr	r0, [pc, #20]	; 11f8c <gpio_set_function+0x4c>
   11f74:	eb000393 	bl	12dc8 <gpio_panic>
   11f78:	eafffff5 	b	11f54 <gpio_set_function+0x14>
   11f7c:	e1a01004 	mov	r1, r4
   11f80:	e59f0008 	ldr	r0, [pc, #8]	; 11f90 <gpio_set_function+0x50>
   11f84:	eb00038f 	bl	12dc8 <gpio_panic>
   11f88:	eafffff3 	b	11f5c <gpio_set_function+0x1c>
   11f8c:	0019daf4 	.word	0x0019daf4
   11f90:	0019db04 	.word	0x0019db04

00011f94 <uart_init>:
   11f94:	e92d4010 	push	{r4, lr}
   11f98:	eb000395 	bl	12df4 <dev_barrier>
   11f9c:	e3a01002 	mov	r1, #2, 0
   11fa0:	e3a0000e 	mov	r0, #14, 0
   11fa4:	ebffffe5 	bl	11f40 <gpio_set_function>
   11fa8:	e3a01002 	mov	r1, #2, 0
   11fac:	e3a0000f 	mov	r0, #15, 0
   11fb0:	ebffffe2 	bl	11f40 <gpio_set_function>
   11fb4:	eb00038e 	bl	12df4 <dev_barrier>
   11fb8:	e59f4068 	ldr	r4, [pc, #104]	; 12028 <uart_init+0x94>
   11fbc:	e1a00004 	mov	r0, r4
   11fc0:	ebffd819 	bl	802c <GET32>
   11fc4:	e3801001 	orr	r1, r0, #1, 0
   11fc8:	e1a00004 	mov	r0, r4
   11fcc:	ebffd814 	bl	8024 <PUT32>
   11fd0:	eb000387 	bl	12df4 <dev_barrier>
   11fd4:	e284405c 	add	r4, r4, #92, 0	; 0x5c
   11fd8:	e3a01000 	mov	r1, #0, 0
   11fdc:	e1a00004 	mov	r0, r4
   11fe0:	ebffd80f 	bl	8024 <PUT32>
   11fe4:	e3a01000 	mov	r1, #0, 0
   11fe8:	e59f003c 	ldr	r0, [pc, #60]	; 1202c <uart_init+0x98>
   11fec:	ebffd80c 	bl	8024 <PUT32>
   11ff0:	e3a01006 	mov	r1, #6, 0
   11ff4:	e59f0034 	ldr	r0, [pc, #52]	; 12030 <uart_init+0x9c>
   11ff8:	ebffd809 	bl	8024 <PUT32>
   11ffc:	e3a01003 	mov	r1, #3, 0
   12000:	e59f002c 	ldr	r0, [pc, #44]	; 12034 <uart_init+0xa0>
   12004:	ebffd806 	bl	8024 <PUT32>
   12008:	e3a01021 	mov	r1, #33, 0	; 0x21
   1200c:	e59f0024 	ldr	r0, [pc, #36]	; 12038 <uart_init+0xa4>
   12010:	ebffd803 	bl	8024 <PUT32>
   12014:	e3a01003 	mov	r1, #3, 0
   12018:	e1a00004 	mov	r0, r4
   1201c:	ebffd800 	bl	8024 <PUT32>
   12020:	eb000373 	bl	12df4 <dev_barrier>
   12024:	e8bd8010 	pop	{r4, pc}
   12028:	20215004 	.word	0x20215004
   1202c:	20215044 	.word	0x20215044
   12030:	20215048 	.word	0x20215048
   12034:	2021504c 	.word	0x2021504c
   12038:	20215068 	.word	0x20215068

0001203c <uart_can_put8>:
   1203c:	e92d4010 	push	{r4, lr}
   12040:	e59f000c 	ldr	r0, [pc, #12]	; 12054 <uart_can_put8+0x18>
   12044:	ebffd7f8 	bl	802c <GET32>
   12048:	e1a000a0 	lsr	r0, r0, #1
   1204c:	e2000001 	and	r0, r0, #1, 0
   12050:	e8bd8010 	pop	{r4, pc}
   12054:	20215064 	.word	0x20215064

00012058 <uart_put8>:
   12058:	e92d4010 	push	{r4, lr}
   1205c:	e1a04000 	mov	r4, r0
   12060:	eb000363 	bl	12df4 <dev_barrier>
   12064:	ebfffff4 	bl	1203c <uart_can_put8>
   12068:	e3500000 	cmp	r0, #0, 0
   1206c:	0afffffc 	beq	12064 <uart_put8+0xc>
   12070:	e1a01004 	mov	r1, r4
   12074:	e59f000c 	ldr	r0, [pc, #12]	; 12088 <uart_put8+0x30>
   12078:	ebffd7e9 	bl	8024 <PUT32>
   1207c:	eb00035c 	bl	12df4 <dev_barrier>
   12080:	e3a00001 	mov	r0, #1, 0
   12084:	e8bd8010 	pop	{r4, pc}
   12088:	20215040 	.word	0x20215040

0001208c <uart_has_data>:
   1208c:	e92d4010 	push	{r4, lr}
   12090:	e59f000c 	ldr	r0, [pc, #12]	; 120a4 <uart_has_data+0x18>
   12094:	ebffd7e4 	bl	802c <GET32>
   12098:	e210080f 	ands	r0, r0, #983040	; 0xf0000
   1209c:	13a00001 	movne	r0, #1, 0
   120a0:	e8bd8010 	pop	{r4, pc}
   120a4:	20215064 	.word	0x20215064

000120a8 <uart_get8>:
   120a8:	e92d4010 	push	{r4, lr}
   120ac:	eb000350 	bl	12df4 <dev_barrier>
   120b0:	ebfffff5 	bl	1208c <uart_has_data>
   120b4:	e3500000 	cmp	r0, #0, 0
   120b8:	0afffffc 	beq	120b0 <uart_get8+0x8>
   120bc:	e59f0010 	ldr	r0, [pc, #16]	; 120d4 <uart_get8+0x2c>
   120c0:	ebffd7d9 	bl	802c <GET32>
   120c4:	e1a04000 	mov	r4, r0
   120c8:	eb000349 	bl	12df4 <dev_barrier>
   120cc:	e6ef0074 	uxtb	r0, r4
   120d0:	e8bd8010 	pop	{r4, pc}
   120d4:	20215040 	.word	0x20215040

000120d8 <uart_get8_async>:
   120d8:	e92d4010 	push	{r4, lr}
   120dc:	ebffffea 	bl	1208c <uart_has_data>
   120e0:	e3500000 	cmp	r0, #0, 0
   120e4:	0a000001 	beq	120f0 <uart_get8_async+0x18>
   120e8:	ebffffee 	bl	120a8 <uart_get8>
   120ec:	e8bd8010 	pop	{r4, pc}
   120f0:	e3e00000 	mvn	r0, #0, 0
   120f4:	e8bd8010 	pop	{r4, pc}

000120f8 <uart_tx_is_empty>:
   120f8:	e92d4010 	push	{r4, lr}
   120fc:	eb00033c 	bl	12df4 <dev_barrier>
   12100:	e59f0014 	ldr	r0, [pc, #20]	; 1211c <uart_tx_is_empty+0x24>
   12104:	ebffd7c8 	bl	802c <GET32>
   12108:	e1a044a0 	lsr	r4, r0, #9
   1210c:	e2044001 	and	r4, r4, #1, 0
   12110:	eb000337 	bl	12df4 <dev_barrier>
   12114:	e1a00004 	mov	r0, r4
   12118:	e8bd8010 	pop	{r4, pc}
   1211c:	20215064 	.word	0x20215064

00012120 <uart_flush_tx>:
   12120:	e92d4010 	push	{r4, lr}
   12124:	ebfffff3 	bl	120f8 <uart_tx_is_empty>
   12128:	e3500000 	cmp	r0, #0, 0
   1212c:	18bd8010 	popne	{r4, pc}
   12130:	eb000344 	bl	12e48 <rpi_wait>
   12134:	eafffffa 	b	12124 <uart_flush_tx+0x4>

00012138 <uart_disable>:
   12138:	e92d4010 	push	{r4, lr}
   1213c:	eb00032c 	bl	12df4 <dev_barrier>
   12140:	ebfffff6 	bl	12120 <uart_flush_tx>
   12144:	e3e01003 	mvn	r1, #3, 0
   12148:	e59f0020 	ldr	r0, [pc, #32]	; 12170 <uart_disable+0x38>
   1214c:	ebffd7b4 	bl	8024 <PUT32>
   12150:	e59f401c 	ldr	r4, [pc, #28]	; 12174 <uart_disable+0x3c>
   12154:	e1a00004 	mov	r0, r4
   12158:	ebffd7b3 	bl	802c <GET32>
   1215c:	e3c01001 	bic	r1, r0, #1, 0
   12160:	e1a00004 	mov	r0, r4
   12164:	ebffd7ae 	bl	8024 <PUT32>
   12168:	eb000321 	bl	12df4 <dev_barrier>
   1216c:	e8bd8010 	pop	{r4, pc}
   12170:	20215060 	.word	0x20215060
   12174:	20215004 	.word	0x20215004

00012178 <gpio_has_interrupt>:
   12178:	e92d4010 	push	{r4, lr}
   1217c:	eb00031c 	bl	12df4 <dev_barrier>
   12180:	e59f0014 	ldr	r0, [pc, #20]	; 1219c <gpio_has_interrupt+0x24>
   12184:	ebffd7a8 	bl	802c <GET32>
   12188:	e1a048a0 	lsr	r4, r0, #17
   1218c:	e2044001 	and	r4, r4, #1, 0
   12190:	eb000317 	bl	12df4 <dev_barrier>
   12194:	e1a00004 	mov	r0, r4
   12198:	e8bd8010 	pop	{r4, pc}
   1219c:	2000b208 	.word	0x2000b208

000121a0 <gpio_int_rising_edge>:
   121a0:	e92d4030 	push	{r4, r5, lr}
   121a4:	e24dd00c 	sub	sp, sp, #12, 0
   121a8:	e1a04000 	mov	r4, r0
   121ac:	e350001f 	cmp	r0, #31, 0
   121b0:	8a000010 	bhi	121f8 <gpio_int_rising_edge+0x58>
   121b4:	eb00030e 	bl	12df4 <dev_barrier>
   121b8:	e204401f 	and	r4, r4, #31, 0
   121bc:	e3a00001 	mov	r0, #1, 0
   121c0:	e1a04410 	lsl	r4, r0, r4
   121c4:	e59f5048 	ldr	r5, [pc, #72]	; 12214 <gpio_int_rising_edge+0x74>
   121c8:	e1a00005 	mov	r0, r5
   121cc:	ebffd796 	bl	802c <GET32>
   121d0:	e1841000 	orr	r1, r4, r0
   121d4:	e1a00005 	mov	r0, r5
   121d8:	ebffd791 	bl	8024 <PUT32>
   121dc:	eb000304 	bl	12df4 <dev_barrier>
   121e0:	e3a01802 	mov	r1, #131072	; 0x20000
   121e4:	e59f002c 	ldr	r0, [pc, #44]	; 12218 <gpio_int_rising_edge+0x78>
   121e8:	ebffd78d 	bl	8024 <PUT32>
   121ec:	eb000300 	bl	12df4 <dev_barrier>
   121f0:	e28dd00c 	add	sp, sp, #12, 0
   121f4:	e8bd8030 	pop	{r4, r5, pc}
   121f8:	e58d0000 	str	r0, [sp]
   121fc:	e3a030c2 	mov	r3, #194, 0	; 0xc2
   12200:	e59f2014 	ldr	r2, [pc, #20]	; 1221c <gpio_int_rising_edge+0x7c>
   12204:	e59f1014 	ldr	r1, [pc, #20]	; 12220 <gpio_int_rising_edge+0x80>
   12208:	e59f0014 	ldr	r0, [pc, #20]	; 12224 <gpio_int_rising_edge+0x84>
   1220c:	eb000181 	bl	12818 <printk>
   12210:	eb0002c5 	bl	12d2c <clean_reboot>
   12214:	2020004c 	.word	0x2020004c
   12218:	2000b214 	.word	0x2000b214
   1221c:	0019db4c 	.word	0x0019db4c
   12220:	0019db18 	.word	0x0019db18
   12224:	0019db28 	.word	0x0019db28

00012228 <gpio_int_falling_edge>:
   12228:	e92d4030 	push	{r4, r5, lr}
   1222c:	e24dd00c 	sub	sp, sp, #12, 0
   12230:	e1a04000 	mov	r4, r0
   12234:	e350001f 	cmp	r0, #31, 0
   12238:	8a000010 	bhi	12280 <gpio_int_falling_edge+0x58>
   1223c:	eb0002ec 	bl	12df4 <dev_barrier>
   12240:	e204401f 	and	r4, r4, #31, 0
   12244:	e3a00001 	mov	r0, #1, 0
   12248:	e1a04410 	lsl	r4, r0, r4
   1224c:	e59f5048 	ldr	r5, [pc, #72]	; 1229c <gpio_int_falling_edge+0x74>
   12250:	e1a00005 	mov	r0, r5
   12254:	ebffd774 	bl	802c <GET32>
   12258:	e1841000 	orr	r1, r4, r0
   1225c:	e1a00005 	mov	r0, r5
   12260:	ebffd76f 	bl	8024 <PUT32>
   12264:	eb0002e2 	bl	12df4 <dev_barrier>
   12268:	e3a01802 	mov	r1, #131072	; 0x20000
   1226c:	e59f002c 	ldr	r0, [pc, #44]	; 122a0 <gpio_int_falling_edge+0x78>
   12270:	ebffd76b 	bl	8024 <PUT32>
   12274:	eb0002de 	bl	12df4 <dev_barrier>
   12278:	e28dd00c 	add	sp, sp, #12, 0
   1227c:	e8bd8030 	pop	{r4, r5, pc}
   12280:	e58d0000 	str	r0, [sp]
   12284:	e3a030d3 	mov	r3, #211, 0	; 0xd3
   12288:	e59f2014 	ldr	r2, [pc, #20]	; 122a4 <gpio_int_falling_edge+0x7c>
   1228c:	e59f1014 	ldr	r1, [pc, #20]	; 122a8 <gpio_int_falling_edge+0x80>
   12290:	e59f0014 	ldr	r0, [pc, #20]	; 122ac <gpio_int_falling_edge+0x84>
   12294:	eb00015f 	bl	12818 <printk>
   12298:	eb0002a3 	bl	12d2c <clean_reboot>
   1229c:	20200058 	.word	0x20200058
   122a0:	2000b214 	.word	0x2000b214
   122a4:	0019db64 	.word	0x0019db64
   122a8:	0019db18 	.word	0x0019db18
   122ac:	0019db28 	.word	0x0019db28

000122b0 <gpio_event_detected>:
   122b0:	e92d4030 	push	{r4, r5, lr}
   122b4:	e24dd00c 	sub	sp, sp, #12, 0
   122b8:	e1a04000 	mov	r4, r0
   122bc:	e350001f 	cmp	r0, #31, 0
   122c0:	8a000009 	bhi	122ec <gpio_event_detected+0x3c>
   122c4:	eb0002ca 	bl	12df4 <dev_barrier>
   122c8:	e59f0038 	ldr	r0, [pc, #56]	; 12308 <gpio_event_detected+0x58>
   122cc:	ebffd756 	bl	802c <GET32>
   122d0:	e1a05000 	mov	r5, r0
   122d4:	eb0002c6 	bl	12df4 <dev_barrier>
   122d8:	e204401f 	and	r4, r4, #31, 0
   122dc:	e1a04435 	lsr	r4, r5, r4
   122e0:	e2040001 	and	r0, r4, #1, 0
   122e4:	e28dd00c 	add	sp, sp, #12, 0
   122e8:	e8bd8030 	pop	{r4, r5, pc}
   122ec:	e58d0000 	str	r0, [sp]
   122f0:	e3a030e1 	mov	r3, #225, 0	; 0xe1
   122f4:	e59f2010 	ldr	r2, [pc, #16]	; 1230c <gpio_event_detected+0x5c>
   122f8:	e59f1010 	ldr	r1, [pc, #16]	; 12310 <gpio_event_detected+0x60>
   122fc:	e59f0010 	ldr	r0, [pc, #16]	; 12314 <gpio_event_detected+0x64>
   12300:	eb000144 	bl	12818 <printk>
   12304:	eb000288 	bl	12d2c <clean_reboot>
   12308:	20200040 	.word	0x20200040
   1230c:	0019db7c 	.word	0x0019db7c
   12310:	0019db18 	.word	0x0019db18
   12314:	0019db28 	.word	0x0019db28

00012318 <gpio_event_clear>:
   12318:	e92d4010 	push	{r4, lr}
   1231c:	e24dd008 	sub	sp, sp, #8, 0
   12320:	e1a04000 	mov	r4, r0
   12324:	e350001f 	cmp	r0, #31, 0
   12328:	8a000007 	bhi	1234c <gpio_event_clear+0x34>
   1232c:	eb0002b0 	bl	12df4 <dev_barrier>
   12330:	e3a01001 	mov	r1, #1, 0
   12334:	e1a01411 	lsl	r1, r1, r4
   12338:	e59f0028 	ldr	r0, [pc, #40]	; 12368 <gpio_event_clear+0x50>
   1233c:	ebffd738 	bl	8024 <PUT32>
   12340:	eb0002ab 	bl	12df4 <dev_barrier>
   12344:	e28dd008 	add	sp, sp, #8, 0
   12348:	e8bd8010 	pop	{r4, pc}
   1234c:	e58d0000 	str	r0, [sp]
   12350:	e3a030eb 	mov	r3, #235, 0	; 0xeb
   12354:	e59f2010 	ldr	r2, [pc, #16]	; 1236c <gpio_event_clear+0x54>
   12358:	e59f1010 	ldr	r1, [pc, #16]	; 12370 <gpio_event_clear+0x58>
   1235c:	e59f0010 	ldr	r0, [pc, #16]	; 12374 <gpio_event_clear+0x5c>
   12360:	eb00012c 	bl	12818 <printk>
   12364:	eb000270 	bl	12d2c <clean_reboot>
   12368:	20200040 	.word	0x20200040
   1236c:	0019db90 	.word	0x0019db90
   12370:	0019db18 	.word	0x0019db18
   12374:	0019db28 	.word	0x0019db28

00012378 <gpio_int_async_rising_edge>:
   12378:	e92d4030 	push	{r4, r5, lr}
   1237c:	e24dd00c 	sub	sp, sp, #12, 0
   12380:	e1a04000 	mov	r4, r0
   12384:	e350001f 	cmp	r0, #31, 0
   12388:	8a000010 	bhi	123d0 <gpio_int_async_rising_edge+0x58>
   1238c:	eb000298 	bl	12df4 <dev_barrier>
   12390:	e204401f 	and	r4, r4, #31, 0
   12394:	e3a00001 	mov	r0, #1, 0
   12398:	e1a04410 	lsl	r4, r0, r4
   1239c:	e59f5048 	ldr	r5, [pc, #72]	; 123ec <gpio_int_async_rising_edge+0x74>
   123a0:	e1a00005 	mov	r0, r5
   123a4:	ebffd720 	bl	802c <GET32>
   123a8:	e1841000 	orr	r1, r4, r0
   123ac:	e1a00005 	mov	r0, r5
   123b0:	ebffd71b 	bl	8024 <PUT32>
   123b4:	eb00028e 	bl	12df4 <dev_barrier>
   123b8:	e3a01802 	mov	r1, #131072	; 0x20000
   123bc:	e59f002c 	ldr	r0, [pc, #44]	; 123f0 <gpio_int_async_rising_edge+0x78>
   123c0:	ebffd717 	bl	8024 <PUT32>
   123c4:	eb00028a 	bl	12df4 <dev_barrier>
   123c8:	e28dd00c 	add	sp, sp, #12, 0
   123cc:	e8bd8030 	pop	{r4, r5, pc}
   123d0:	e58d0000 	str	r0, [sp]
   123d4:	e3a030f8 	mov	r3, #248, 0	; 0xf8
   123d8:	e59f2014 	ldr	r2, [pc, #20]	; 123f4 <gpio_int_async_rising_edge+0x7c>
   123dc:	e59f1014 	ldr	r1, [pc, #20]	; 123f8 <gpio_int_async_rising_edge+0x80>
   123e0:	e59f0014 	ldr	r0, [pc, #20]	; 123fc <gpio_int_async_rising_edge+0x84>
   123e4:	eb00010b 	bl	12818 <printk>
   123e8:	eb00024f 	bl	12d2c <clean_reboot>
   123ec:	2020004c 	.word	0x2020004c
   123f0:	2000b214 	.word	0x2000b214
   123f4:	0019dba4 	.word	0x0019dba4
   123f8:	0019db18 	.word	0x0019db18
   123fc:	0019db28 	.word	0x0019db28

00012400 <gpio_int_async_falling_edge>:
   12400:	e92d4030 	push	{r4, r5, lr}
   12404:	e24dd00c 	sub	sp, sp, #12, 0
   12408:	e1a04000 	mov	r4, r0
   1240c:	e350001f 	cmp	r0, #31, 0
   12410:	8a000010 	bhi	12458 <gpio_int_async_falling_edge+0x58>
   12414:	eb000276 	bl	12df4 <dev_barrier>
   12418:	e204401f 	and	r4, r4, #31, 0
   1241c:	e3a00001 	mov	r0, #1, 0
   12420:	e1a04410 	lsl	r4, r0, r4
   12424:	e59f5048 	ldr	r5, [pc, #72]	; 12474 <gpio_int_async_falling_edge+0x74>
   12428:	e1a00005 	mov	r0, r5
   1242c:	ebffd6fe 	bl	802c <GET32>
   12430:	e1841000 	orr	r1, r4, r0
   12434:	e1a00005 	mov	r0, r5
   12438:	ebffd6f9 	bl	8024 <PUT32>
   1243c:	eb00026c 	bl	12df4 <dev_barrier>
   12440:	e3a01802 	mov	r1, #131072	; 0x20000
   12444:	e59f002c 	ldr	r0, [pc, #44]	; 12478 <gpio_int_async_falling_edge+0x78>
   12448:	ebffd6f5 	bl	8024 <PUT32>
   1244c:	eb000268 	bl	12df4 <dev_barrier>
   12450:	e28dd00c 	add	sp, sp, #12, 0
   12454:	e8bd8030 	pop	{r4, r5, pc}
   12458:	e58d0000 	str	r0, [sp]
   1245c:	e59f3018 	ldr	r3, [pc, #24]	; 1247c <gpio_int_async_falling_edge+0x7c>
   12460:	e59f2018 	ldr	r2, [pc, #24]	; 12480 <gpio_int_async_falling_edge+0x80>
   12464:	e59f1018 	ldr	r1, [pc, #24]	; 12484 <gpio_int_async_falling_edge+0x84>
   12468:	e59f0018 	ldr	r0, [pc, #24]	; 12488 <gpio_int_async_falling_edge+0x88>
   1246c:	eb0000e9 	bl	12818 <printk>
   12470:	eb00022d 	bl	12d2c <clean_reboot>
   12474:	20200088 	.word	0x20200088
   12478:	2000b214 	.word	0x2000b214
   1247c:	00000102 	.word	0x00000102
   12480:	0019dbc0 	.word	0x0019dbc0
   12484:	0019db18 	.word	0x0019db18
   12488:	0019db28 	.word	0x0019db28

0001248c <gpio_fiq_async_rising_edge>:
   1248c:	e92d4030 	push	{r4, r5, lr}
   12490:	e24dd00c 	sub	sp, sp, #12, 0
   12494:	e1a04000 	mov	r4, r0
   12498:	e350001f 	cmp	r0, #31, 0
   1249c:	8a000010 	bhi	124e4 <gpio_fiq_async_rising_edge+0x58>
   124a0:	eb000253 	bl	12df4 <dev_barrier>
   124a4:	e204401f 	and	r4, r4, #31, 0
   124a8:	e3a00001 	mov	r0, #1, 0
   124ac:	e1a04410 	lsl	r4, r0, r4
   124b0:	e59f5048 	ldr	r5, [pc, #72]	; 12500 <gpio_fiq_async_rising_edge+0x74>
   124b4:	e1a00005 	mov	r0, r5
   124b8:	ebffd6db 	bl	802c <GET32>
   124bc:	e1841000 	orr	r1, r4, r0
   124c0:	e1a00005 	mov	r0, r5
   124c4:	ebffd6d6 	bl	8024 <PUT32>
   124c8:	eb000249 	bl	12df4 <dev_barrier>
   124cc:	e3a010b1 	mov	r1, #177, 0	; 0xb1
   124d0:	e59f002c 	ldr	r0, [pc, #44]	; 12504 <gpio_fiq_async_rising_edge+0x78>
   124d4:	ebffd6d2 	bl	8024 <PUT32>
   124d8:	eb000245 	bl	12df4 <dev_barrier>
   124dc:	e28dd00c 	add	sp, sp, #12, 0
   124e0:	e8bd8030 	pop	{r4, r5, pc}
   124e4:	e58d0000 	str	r0, [sp]
   124e8:	e59f3018 	ldr	r3, [pc, #24]	; 12508 <gpio_fiq_async_rising_edge+0x7c>
   124ec:	e59f2018 	ldr	r2, [pc, #24]	; 1250c <gpio_fiq_async_rising_edge+0x80>
   124f0:	e59f1018 	ldr	r1, [pc, #24]	; 12510 <gpio_fiq_async_rising_edge+0x84>
   124f4:	e59f0018 	ldr	r0, [pc, #24]	; 12514 <gpio_fiq_async_rising_edge+0x88>
   124f8:	eb0000c6 	bl	12818 <printk>
   124fc:	eb00020a 	bl	12d2c <clean_reboot>
   12500:	2020004c 	.word	0x2020004c
   12504:	2000b20c 	.word	0x2000b20c
   12508:	0000010e 	.word	0x0000010e
   1250c:	0019dbdc 	.word	0x0019dbdc
   12510:	0019db18 	.word	0x0019db18
   12514:	0019db28 	.word	0x0019db28

00012518 <gpio_fiq_async_falling_edge>:
   12518:	e92d4030 	push	{r4, r5, lr}
   1251c:	e24dd00c 	sub	sp, sp, #12, 0
   12520:	e1a04000 	mov	r4, r0
   12524:	e350001f 	cmp	r0, #31, 0
   12528:	8a000010 	bhi	12570 <gpio_fiq_async_falling_edge+0x58>
   1252c:	eb000230 	bl	12df4 <dev_barrier>
   12530:	e204401f 	and	r4, r4, #31, 0
   12534:	e3a00001 	mov	r0, #1, 0
   12538:	e1a04410 	lsl	r4, r0, r4
   1253c:	e59f5048 	ldr	r5, [pc, #72]	; 1258c <gpio_fiq_async_falling_edge+0x74>
   12540:	e1a00005 	mov	r0, r5
   12544:	ebffd6b8 	bl	802c <GET32>
   12548:	e1841000 	orr	r1, r4, r0
   1254c:	e1a00005 	mov	r0, r5
   12550:	ebffd6b3 	bl	8024 <PUT32>
   12554:	eb000226 	bl	12df4 <dev_barrier>
   12558:	e3a010b1 	mov	r1, #177, 0	; 0xb1
   1255c:	e59f002c 	ldr	r0, [pc, #44]	; 12590 <gpio_fiq_async_falling_edge+0x78>
   12560:	ebffd6af 	bl	8024 <PUT32>
   12564:	eb000222 	bl	12df4 <dev_barrier>
   12568:	e28dd00c 	add	sp, sp, #12, 0
   1256c:	e8bd8030 	pop	{r4, r5, pc}
   12570:	e58d0000 	str	r0, [sp]
   12574:	e59f3018 	ldr	r3, [pc, #24]	; 12594 <gpio_fiq_async_falling_edge+0x7c>
   12578:	e59f2018 	ldr	r2, [pc, #24]	; 12598 <gpio_fiq_async_falling_edge+0x80>
   1257c:	e59f1018 	ldr	r1, [pc, #24]	; 1259c <gpio_fiq_async_falling_edge+0x84>
   12580:	e59f0018 	ldr	r0, [pc, #24]	; 125a0 <gpio_fiq_async_falling_edge+0x88>
   12584:	eb0000a3 	bl	12818 <printk>
   12588:	eb0001e7 	bl	12d2c <clean_reboot>
   1258c:	20200088 	.word	0x20200088
   12590:	2000b20c 	.word	0x2000b20c
   12594:	00000119 	.word	0x00000119
   12598:	0019dbf8 	.word	0x0019dbf8
   1259c:	0019db18 	.word	0x0019db18
   125a0:	0019db28 	.word	0x0019db28

000125a4 <memcmp>:
   125a4:	e52de004 	push	{lr}		; (str lr, [sp, #-4]!)
   125a8:	e1a0e000 	mov	lr, r0
   125ac:	e3a03000 	mov	r3, #0, 0
   125b0:	e1530002 	cmp	r3, r2
   125b4:	2a000005 	bcs	125d0 <memcmp+0x2c>
   125b8:	e7dec003 	ldrb	ip, [lr, r3]
   125bc:	e7d10003 	ldrb	r0, [r1, r3]
   125c0:	e05c0000 	subs	r0, ip, r0
   125c4:	149df004 	popne	{pc}		; (ldrne pc, [sp], #4)
   125c8:	e2833001 	add	r3, r3, #1, 0
   125cc:	eafffff7 	b	125b0 <memcmp+0xc>
   125d0:	e3a00000 	mov	r0, #0, 0
   125d4:	e49df004 	pop	{pc}		; (ldr pc, [sp], #4)

000125d8 <memcpy256>:
   125d8:	e92d40f0 	push	{r4, r5, r6, r7, lr}
   125dc:	e24dd00c 	sub	sp, sp, #12, 0
   125e0:	e212401f 	ands	r4, r2, #31, 0
   125e4:	01a06000 	moveq	r6, r0
   125e8:	01a07001 	moveq	r7, r1
   125ec:	01a052a2 	lsreq	r5, r2, #5
   125f0:	0a00000f 	beq	12634 <memcpy256+0x5c>
   125f4:	e3a03020 	mov	r3, #32, 0
   125f8:	e58d3004 	str	r3, [sp, #4]
   125fc:	e58d2000 	str	r2, [sp]
   12600:	e3a0300f 	mov	r3, #15, 0
   12604:	e59f2038 	ldr	r2, [pc, #56]	; 12644 <memcpy256+0x6c>
   12608:	e59f1038 	ldr	r1, [pc, #56]	; 12648 <memcpy256+0x70>
   1260c:	e59f0038 	ldr	r0, [pc, #56]	; 1264c <memcpy256+0x74>
   12610:	eb000080 	bl	12818 <printk>
   12614:	eb0001c4 	bl	12d2c <clean_reboot>
   12618:	e086c284 	add	ip, r6, r4, lsl #5
   1261c:	e087e284 	add	lr, r7, r4, lsl #5
   12620:	e8be000f 	ldm	lr!, {r0, r1, r2, r3}
   12624:	e8ac000f 	stmia	ip!, {r0, r1, r2, r3}
   12628:	e89e000f 	ldm	lr, {r0, r1, r2, r3}
   1262c:	e88c000f 	stm	ip, {r0, r1, r2, r3}
   12630:	e2844001 	add	r4, r4, #1, 0
   12634:	e1540005 	cmp	r4, r5
   12638:	3afffff6 	bcc	12618 <memcpy256+0x40>
   1263c:	e28dd00c 	add	sp, sp, #12, 0
   12640:	e8bd80f0 	pop	{r4, r5, r6, r7, pc}
   12644:	0019dc60 	.word	0x0019dc60
   12648:	0019dc14 	.word	0x0019dc14
   1264c:	0019dc24 	.word	0x0019dc24

00012650 <memcpy>:
   12650:	e3100007 	tst	r0, #7, 0
   12654:	1a00000f 	bne	12698 <memcpy+0x48>
   12658:	e3110007 	tst	r1, #7, 0
   1265c:	1a00000d 	bne	12698 <memcpy+0x48>
   12660:	e2123007 	ands	r3, r2, #7, 0
   12664:	1a00000b 	bne	12698 <memcpy+0x48>
   12668:	e1a021a2 	lsr	r2, r2, #3
   1266c:	e1530002 	cmp	r3, r2
   12670:	212fff1e 	bxcs	lr
   12674:	e92d0030 	push	{r4, r5}
   12678:	e1a0c183 	lsl	ip, r3, #3
   1267c:	e18140dc 	ldrd	r4, [r1, ip]
   12680:	e18040fc 	strd	r4, [r0, ip]
   12684:	e2833001 	add	r3, r3, #1, 0
   12688:	e1530002 	cmp	r3, r2
   1268c:	3afffff9 	bcc	12678 <memcpy+0x28>
   12690:	e8bd0030 	pop	{r4, r5}
   12694:	e12fff1e 	bx	lr
   12698:	e2103003 	ands	r3, r0, #3, 0
   1269c:	1a000011 	bne	126e8 <memcpy+0x98>
   126a0:	e211c003 	ands	ip, r1, #3, 0
   126a4:	1a00000c 	bne	126dc <memcpy+0x8c>
   126a8:	e2123003 	ands	r3, r2, #3, 0
   126ac:	1a00000f 	bne	126f0 <memcpy+0xa0>
   126b0:	e1a02122 	lsr	r2, r2, #2
   126b4:	ea000002 	b	126c4 <memcpy+0x74>
   126b8:	e791c103 	ldr	ip, [r1, r3, lsl #2]
   126bc:	e780c103 	str	ip, [r0, r3, lsl #2]
   126c0:	e2833001 	add	r3, r3, #1, 0
   126c4:	e1530002 	cmp	r3, r2
   126c8:	3afffffa 	bcc	126b8 <memcpy+0x68>
   126cc:	e12fff1e 	bx	lr
   126d0:	e7d1c003 	ldrb	ip, [r1, r3]
   126d4:	e7c0c003 	strb	ip, [r0, r3]
   126d8:	e2833001 	add	r3, r3, #1, 0
   126dc:	e1530002 	cmp	r3, r2
   126e0:	3afffffa 	bcc	126d0 <memcpy+0x80>
   126e4:	e12fff1e 	bx	lr
   126e8:	e3a03000 	mov	r3, #0, 0
   126ec:	eafffffa 	b	126dc <memcpy+0x8c>
   126f0:	e1a0300c 	mov	r3, ip
   126f4:	eafffff8 	b	126dc <memcpy+0x8c>

000126f8 <memcpy_end>:
   126f8:	e12fff1e 	bx	lr

000126fc <memiszero>:
   126fc:	e3a03000 	mov	r3, #0, 0
   12700:	e1530001 	cmp	r3, r1
   12704:	2a000004 	bcs	1271c <memiszero+0x20>
   12708:	e7d02003 	ldrb	r2, [r0, r3]
   1270c:	e3520000 	cmp	r2, #0, 0
   12710:	1a000003 	bne	12724 <memiszero+0x28>
   12714:	e2833001 	add	r3, r3, #1, 0
   12718:	eafffff8 	b	12700 <memiszero+0x4>
   1271c:	e3a00001 	mov	r0, #1, 0
   12720:	e12fff1e 	bx	lr
   12724:	e3a00000 	mov	r0, #0, 0
   12728:	e12fff1e 	bx	lr

0001272c <memset>:
   1272c:	e3520000 	cmp	r2, #0, 0
   12730:	012fff1e 	bxeq	lr
   12734:	e3510000 	cmp	r1, #0, 0
   12738:	1a000007 	bne	1275c <memset+0x30>
   1273c:	e3100007 	tst	r0, #7, 0
   12740:	1a000001 	bne	1274c <memset+0x20>
   12744:	e3120007 	tst	r2, #7, 0
   12748:	0a000011 	beq	12794 <memset+0x68>
   1274c:	e3100003 	tst	r0, #3, 0
   12750:	1a000001 	bne	1275c <memset+0x30>
   12754:	e3120003 	tst	r2, #3, 0
   12758:	0a000001 	beq	12764 <memset+0x38>
   1275c:	e0802002 	add	r2, r0, r2
   12760:	ea000008 	b	12788 <memset+0x5c>
   12764:	e1a02122 	lsr	r2, r2, #2
   12768:	ea000001 	b	12774 <memset+0x48>
   1276c:	e4801004 	str	r1, [r0], #4
   12770:	e1a02003 	mov	r2, r3
   12774:	e2423001 	sub	r3, r2, #1, 0
   12778:	e3520000 	cmp	r2, #0, 0
   1277c:	1afffffa 	bne	1276c <memset+0x40>
   12780:	e12fff1e 	bx	lr
   12784:	e4c01001 	strb	r1, [r0], #1
   12788:	e1500002 	cmp	r0, r2
   1278c:	3afffffc 	bcc	12784 <memset+0x58>
   12790:	e12fff1e 	bx	lr
   12794:	e1a021a2 	lsr	r2, r2, #3
   12798:	e2423001 	sub	r3, r2, #1, 0
   1279c:	e3520000 	cmp	r2, #0, 0
   127a0:	012fff1e 	bxeq	lr
   127a4:	e92d0030 	push	{r4, r5}
   127a8:	e1a04001 	mov	r4, r1
   127ac:	e1a05fc1 	asr	r5, r1, #31
   127b0:	e0c040f8 	strd	r4, [r0], #8
   127b4:	e1a02003 	mov	r2, r3
   127b8:	e2433001 	sub	r3, r3, #1, 0
   127bc:	e3520000 	cmp	r2, #0, 0
   127c0:	1afffff8 	bne	127a8 <memset+0x7c>
   127c4:	e8bd0030 	pop	{r4, r5}
   127c8:	e12fff1e 	bx	lr

000127cc <our_crc32_inc>:
   127cc:	e1e02002 	mvn	r2, r2
   127d0:	e241c001 	sub	ip, r1, #1, 0
   127d4:	e3510000 	cmp	r1, #0, 0
   127d8:	0a000007 	beq	127fc <our_crc32_inc+0x30>
   127dc:	e4d03001 	ldrb	r3, [r0], #1
   127e0:	e0233002 	eor	r3, r3, r2
   127e4:	e6ef3073 	uxtb	r3, r3
   127e8:	e59f1014 	ldr	r1, [pc, #20]	; 12804 <our_crc32_inc+0x38>
   127ec:	e7913103 	ldr	r3, [r1, r3, lsl #2]
   127f0:	e0232422 	eor	r2, r3, r2, lsr #8
   127f4:	e1a0100c 	mov	r1, ip
   127f8:	eafffff4 	b	127d0 <our_crc32_inc+0x4>
   127fc:	e1e00002 	mvn	r0, r2
   12800:	e12fff1e 	bx	lr
   12804:	0019dc6c 	.word	0x0019dc6c

00012808 <our_crc32>:
   12808:	e92d4010 	push	{r4, lr}
   1280c:	e3a02000 	mov	r2, #0, 0
   12810:	ebffffed 	bl	127cc <our_crc32_inc>
   12814:	e8bd8010 	pop	{r4, pc}

00012818 <printk>:
   12818:	e92d000f 	push	{r0, r1, r2, r3}
   1281c:	e52de004 	push	{lr}		; (str lr, [sp, #-4]!)
   12820:	e24dd00c 	sub	sp, sp, #12, 0
   12824:	e28d1014 	add	r1, sp, #20, 0
   12828:	e58d1004 	str	r1, [sp, #4]
   1282c:	e59d0010 	ldr	r0, [sp, #16]
   12830:	eb000047 	bl	12954 <vprintk>
   12834:	e28dd00c 	add	sp, sp, #12, 0
   12838:	e49de004 	pop	{lr}		; (ldr lr, [sp], #4)
   1283c:	e28dd010 	add	sp, sp, #16, 0
   12840:	e12fff1e 	bx	lr

00012844 <emit_val>:
   12844:	e92d4010 	push	{r4, lr}
   12848:	e24dd030 	sub	sp, sp, #48, 0	; 0x30
   1284c:	e350000a 	cmp	r0, #10, 0
   12850:	0a000014 	beq	128a8 <emit_val+0x64>
   12854:	e3500010 	cmp	r0, #16, 0
   12858:	0a000022 	beq	128e8 <emit_val+0xa4>
   1285c:	e3500002 	cmp	r0, #2, 0
   12860:	0a000006 	beq	12880 <emit_val+0x3c>
   12864:	e58d0000 	str	r0, [sp]
   12868:	e3a0301b 	mov	r3, #27, 0
   1286c:	e59f20c0 	ldr	r2, [pc, #192]	; 12934 <emit_val+0xf0>
   12870:	e59f10c0 	ldr	r1, [pc, #192]	; 12938 <emit_val+0xf4>
   12874:	e59f00c0 	ldr	r0, [pc, #192]	; 1293c <emit_val+0xf8>
   12878:	ebffffe6 	bl	12818 <printk>
   1287c:	eb00012a 	bl	12d2c <clean_reboot>
   12880:	e28d400c 	add	r4, sp, #12, 0
   12884:	e2012001 	and	r2, r1, #1, 0
   12888:	e59f00b0 	ldr	r0, [pc, #176]	; 12940 <emit_val+0xfc>
   1288c:	e7d02002 	ldrb	r2, [r0, r2]
   12890:	e5c42000 	strb	r2, [r4]
   12894:	e2844001 	add	r4, r4, #1, 0
   12898:	e3510001 	cmp	r1, #1, 0
   1289c:	e1a010a1 	lsr	r1, r1, #1
   128a0:	8afffff7 	bhi	12884 <emit_val+0x40>
   128a4:	ea00001d 	b	12920 <emit_val+0xdc>
   128a8:	e28d400c 	add	r4, sp, #12, 0
   128ac:	e59f3090 	ldr	r3, [pc, #144]	; 12944 <emit_val+0x100>
   128b0:	e0832193 	umull	r2, r3, r3, r1
   128b4:	e1a031a3 	lsr	r3, r3, #3
   128b8:	e1a00003 	mov	r0, r3
   128bc:	e0833103 	add	r3, r3, r3, lsl #2
   128c0:	e0413083 	sub	r3, r1, r3, lsl #1
   128c4:	e59fc07c 	ldr	ip, [pc, #124]	; 12948 <emit_val+0x104>
   128c8:	e7dcc003 	ldrb	ip, [ip, r3]
   128cc:	e5c4c000 	strb	ip, [r4]
   128d0:	e2844001 	add	r4, r4, #1, 0
   128d4:	e1a03001 	mov	r3, r1
   128d8:	e1a01000 	mov	r1, r0
   128dc:	e3530009 	cmp	r3, #9, 0
   128e0:	8afffff1 	bhi	128ac <emit_val+0x68>
   128e4:	ea00000d 	b	12920 <emit_val+0xdc>
   128e8:	e28d400c 	add	r4, sp, #12, 0
   128ec:	e201200f 	and	r2, r1, #15, 0
   128f0:	e59f0054 	ldr	r0, [pc, #84]	; 1294c <emit_val+0x108>
   128f4:	e7d02002 	ldrb	r2, [r0, r2]
   128f8:	e5c42000 	strb	r2, [r4]
   128fc:	e2844001 	add	r4, r4, #1, 0
   12900:	e351000f 	cmp	r1, #15, 0
   12904:	e1a01221 	lsr	r1, r1, #4
   12908:	8afffff7 	bhi	128ec <emit_val+0xa8>
   1290c:	ea000003 	b	12920 <emit_val+0xdc>
   12910:	e59f3038 	ldr	r3, [pc, #56]	; 12950 <emit_val+0x10c>
   12914:	e5933000 	ldr	r3, [r3]
   12918:	e5740001 	ldrb	r0, [r4, #-1]!
   1291c:	e12fff33 	blx	r3
   12920:	e28d300c 	add	r3, sp, #12, 0
   12924:	e1540003 	cmp	r4, r3
   12928:	8afffff8 	bhi	12910 <emit_val+0xcc>
   1292c:	e28dd030 	add	sp, sp, #48, 0	; 0x30
   12930:	e8bd8010 	pop	{r4, pc}
   12934:	0019e124 	.word	0x0019e124
   12938:	0019e06c 	.word	0x0019e06c
   1293c:	0019e07c 	.word	0x0019e07c
   12940:	0019e0a0 	.word	0x0019e0a0
   12944:	cccccccd 	.word	0xcccccccd
   12948:	0019e0a4 	.word	0x0019e0a4
   1294c:	0019e0b0 	.word	0x0019e0b0
   12950:	0019ee48 	.word	0x0019ee48

00012954 <vprintk>:
   12954:	e92d4030 	push	{r4, r5, lr}
   12958:	e24dd014 	sub	sp, sp, #20, 0
   1295c:	e1a04000 	mov	r4, r0
   12960:	e58d100c 	str	r1, [sp, #12]
   12964:	ea000003 	b	12978 <vprintk+0x24>
   12968:	e59f32b0 	ldr	r3, [pc, #688]	; 12c20 <vprintk+0x2cc>
   1296c:	e5933000 	ldr	r3, [r3]
   12970:	e12fff33 	blx	r3
   12974:	e2844001 	add	r4, r4, #1, 0
   12978:	e5d40000 	ldrb	r0, [r4]
   1297c:	e3500000 	cmp	r0, #0, 0
   12980:	0a0000a4 	beq	12c18 <vprintk+0x2c4>
   12984:	e3500025 	cmp	r0, #37, 0	; 0x25
   12988:	1afffff6 	bne	12968 <vprintk+0x14>
   1298c:	e2845001 	add	r5, r4, #1, 0
   12990:	e5d42001 	ldrb	r2, [r4, #1]
   12994:	e2423058 	sub	r3, r2, #88, 0	; 0x58
   12998:	e3530020 	cmp	r3, #32, 0
   1299c:	979ff103 	ldrls	pc, [pc, r3, lsl #2]
   129a0:	ea000095 	b	12bfc <vprintk+0x2a8>
   129a4:	00012b60 	.word	0x00012b60
   129a8:	00012bfc 	.word	0x00012bfc
   129ac:	00012bfc 	.word	0x00012bfc
   129b0:	00012bfc 	.word	0x00012bfc
   129b4:	00012bfc 	.word	0x00012bfc
   129b8:	00012bfc 	.word	0x00012bfc
   129bc:	00012bfc 	.word	0x00012bfc
   129c0:	00012bfc 	.word	0x00012bfc
   129c4:	00012bfc 	.word	0x00012bfc
   129c8:	00012bfc 	.word	0x00012bfc
   129cc:	00012a28 	.word	0x00012a28
   129d0:	00012a68 	.word	0x00012a68
   129d4:	00012b80 	.word	0x00012b80
   129d8:	00012bfc 	.word	0x00012bfc
   129dc:	00012bfc 	.word	0x00012bfc
   129e0:	00012bfc 	.word	0x00012bfc
   129e4:	00012bfc 	.word	0x00012bfc
   129e8:	00012bfc 	.word	0x00012bfc
   129ec:	00012bfc 	.word	0x00012bfc
   129f0:	00012bfc 	.word	0x00012bfc
   129f4:	00012a8c 	.word	0x00012a8c
   129f8:	00012bfc 	.word	0x00012bfc
   129fc:	00012bfc 	.word	0x00012bfc
   12a00:	00012bfc 	.word	0x00012bfc
   12a04:	00012b44 	.word	0x00012b44
   12a08:	00012bfc 	.word	0x00012bfc
   12a0c:	00012bfc 	.word	0x00012bfc
   12a10:	00012bc4 	.word	0x00012bc4
   12a14:	00012bfc 	.word	0x00012bfc
   12a18:	00012a48 	.word	0x00012a48
   12a1c:	00012bfc 	.word	0x00012bfc
   12a20:	00012bfc 	.word	0x00012bfc
   12a24:	00012b44 	.word	0x00012b44
   12a28:	e59d300c 	ldr	r3, [sp, #12]
   12a2c:	e2832004 	add	r2, r3, #4, 0
   12a30:	e58d200c 	str	r2, [sp, #12]
   12a34:	e5931000 	ldr	r1, [r3]
   12a38:	e3a00002 	mov	r0, #2, 0
   12a3c:	ebffff80 	bl	12844 <emit_val>
   12a40:	e1a04005 	mov	r4, r5
   12a44:	eaffffca 	b	12974 <vprintk+0x20>
   12a48:	e59d300c 	ldr	r3, [sp, #12]
   12a4c:	e2832004 	add	r2, r3, #4, 0
   12a50:	e58d200c 	str	r2, [sp, #12]
   12a54:	e5931000 	ldr	r1, [r3]
   12a58:	e3a0000a 	mov	r0, #10, 0
   12a5c:	ebffff78 	bl	12844 <emit_val>
   12a60:	e1a04005 	mov	r4, r5
   12a64:	eaffffc2 	b	12974 <vprintk+0x20>
   12a68:	e59f31b0 	ldr	r3, [pc, #432]	; 12c20 <vprintk+0x2cc>
   12a6c:	e5932000 	ldr	r2, [r3]
   12a70:	e59d300c 	ldr	r3, [sp, #12]
   12a74:	e2831004 	add	r1, r3, #4, 0
   12a78:	e58d100c 	str	r1, [sp, #12]
   12a7c:	e5930000 	ldr	r0, [r3]
   12a80:	e12fff32 	blx	r2
   12a84:	e1a04005 	mov	r4, r5
   12a88:	eaffffb9 	b	12974 <vprintk+0x20>
   12a8c:	e2842002 	add	r2, r4, #2, 0
   12a90:	e5d43002 	ldrb	r3, [r4, #2]
   12a94:	e353006c 	cmp	r3, #108, 0	; 0x6c
   12a98:	1a000018 	bne	12b00 <vprintk+0x1ac>
   12a9c:	e2845003 	add	r5, r4, #3, 0
   12aa0:	e5d43003 	ldrb	r3, [r4, #3]
   12aa4:	e3530078 	cmp	r3, #120, 0	; 0x78
   12aa8:	1a00001b 	bne	12b1c <vprintk+0x1c8>
   12aac:	e59f416c 	ldr	r4, [pc, #364]	; 12c20 <vprintk+0x2cc>
   12ab0:	e5943000 	ldr	r3, [r4]
   12ab4:	e3a00030 	mov	r0, #48, 0	; 0x30
   12ab8:	e12fff33 	blx	r3
   12abc:	e5943000 	ldr	r3, [r4]
   12ac0:	e3a00078 	mov	r0, #120, 0	; 0x78
   12ac4:	e12fff33 	blx	r3
   12ac8:	e59d300c 	ldr	r3, [sp, #12]
   12acc:	e2833007 	add	r3, r3, #7, 0
   12ad0:	e3c33007 	bic	r3, r3, #7, 0
   12ad4:	e2832008 	add	r2, r3, #8, 0
   12ad8:	e58d200c 	str	r2, [sp, #12]
   12adc:	e5934000 	ldr	r4, [r3]
   12ae0:	e5931004 	ldr	r1, [r3, #4]
   12ae4:	e3510000 	cmp	r1, #0, 0
   12ae8:	1a000012 	bne	12b38 <vprintk+0x1e4>
   12aec:	e1a01004 	mov	r1, r4
   12af0:	e3a00010 	mov	r0, #16, 0
   12af4:	ebffff52 	bl	12844 <emit_val>
   12af8:	e1a04005 	mov	r4, r5
   12afc:	eaffff9c 	b	12974 <vprintk+0x20>
   12b00:	e58d2000 	str	r2, [sp]
   12b04:	e3a0303b 	mov	r3, #59, 0	; 0x3b
   12b08:	e59f2114 	ldr	r2, [pc, #276]	; 12c24 <vprintk+0x2d0>
   12b0c:	e59f1114 	ldr	r1, [pc, #276]	; 12c28 <vprintk+0x2d4>
   12b10:	e59f0114 	ldr	r0, [pc, #276]	; 12c2c <vprintk+0x2d8>
   12b14:	ebffff3f 	bl	12818 <printk>
   12b18:	eb000083 	bl	12d2c <clean_reboot>
   12b1c:	e58d5000 	str	r5, [sp]
   12b20:	e3a0303e 	mov	r3, #62, 0	; 0x3e
   12b24:	e59f20f8 	ldr	r2, [pc, #248]	; 12c24 <vprintk+0x2d0>
   12b28:	e59f10f8 	ldr	r1, [pc, #248]	; 12c28 <vprintk+0x2d4>
   12b2c:	e59f00f8 	ldr	r0, [pc, #248]	; 12c2c <vprintk+0x2d8>
   12b30:	ebffff38 	bl	12818 <printk>
   12b34:	eb00007c 	bl	12d2c <clean_reboot>
   12b38:	e3a00010 	mov	r0, #16, 0
   12b3c:	ebffff40 	bl	12844 <emit_val>
   12b40:	eaffffe9 	b	12aec <vprintk+0x198>
   12b44:	e59f40d4 	ldr	r4, [pc, #212]	; 12c20 <vprintk+0x2cc>
   12b48:	e5943000 	ldr	r3, [r4]
   12b4c:	e3a00030 	mov	r0, #48, 0	; 0x30
   12b50:	e12fff33 	blx	r3
   12b54:	e5943000 	ldr	r3, [r4]
   12b58:	e3a00078 	mov	r0, #120, 0	; 0x78
   12b5c:	e12fff33 	blx	r3
   12b60:	e59d300c 	ldr	r3, [sp, #12]
   12b64:	e2832004 	add	r2, r3, #4, 0
   12b68:	e58d200c 	str	r2, [sp, #12]
   12b6c:	e5931000 	ldr	r1, [r3]
   12b70:	e3a00010 	mov	r0, #16, 0
   12b74:	ebffff32 	bl	12844 <emit_val>
   12b78:	e1a04005 	mov	r4, r5
   12b7c:	eaffff7c 	b	12974 <vprintk+0x20>
   12b80:	e59d300c 	ldr	r3, [sp, #12]
   12b84:	e2832004 	add	r2, r3, #4, 0
   12b88:	e58d200c 	str	r2, [sp, #12]
   12b8c:	e5934000 	ldr	r4, [r3]
   12b90:	e3540000 	cmp	r4, #0, 0
   12b94:	ba000004 	blt	12bac <vprintk+0x258>
   12b98:	e1a01004 	mov	r1, r4
   12b9c:	e3a0000a 	mov	r0, #10, 0
   12ba0:	ebffff27 	bl	12844 <emit_val>
   12ba4:	e1a04005 	mov	r4, r5
   12ba8:	eaffff71 	b	12974 <vprintk+0x20>
   12bac:	e59f306c 	ldr	r3, [pc, #108]	; 12c20 <vprintk+0x2cc>
   12bb0:	e5933000 	ldr	r3, [r3]
   12bb4:	e3a0002d 	mov	r0, #45, 0	; 0x2d
   12bb8:	e12fff33 	blx	r3
   12bbc:	e2644000 	rsb	r4, r4, #0, 0
   12bc0:	eafffff4 	b	12b98 <vprintk+0x244>
   12bc4:	e59d300c 	ldr	r3, [sp, #12]
   12bc8:	e2832004 	add	r2, r3, #4, 0
   12bcc:	e58d200c 	str	r2, [sp, #12]
   12bd0:	e5934000 	ldr	r4, [r3]
   12bd4:	e5d40000 	ldrb	r0, [r4]
   12bd8:	e3500000 	cmp	r0, #0, 0
   12bdc:	0a000004 	beq	12bf4 <vprintk+0x2a0>
   12be0:	e59f3038 	ldr	r3, [pc, #56]	; 12c20 <vprintk+0x2cc>
   12be4:	e5933000 	ldr	r3, [r3]
   12be8:	e12fff33 	blx	r3
   12bec:	e2844001 	add	r4, r4, #1, 0
   12bf0:	eafffff7 	b	12bd4 <vprintk+0x280>
   12bf4:	e1a04005 	mov	r4, r5
   12bf8:	eaffff5d 	b	12974 <vprintk+0x20>
   12bfc:	e58d2000 	str	r2, [sp]
   12c00:	e3a03063 	mov	r3, #99, 0	; 0x63
   12c04:	e59f2018 	ldr	r2, [pc, #24]	; 12c24 <vprintk+0x2d0>
   12c08:	e59f1018 	ldr	r1, [pc, #24]	; 12c28 <vprintk+0x2d4>
   12c0c:	e59f001c 	ldr	r0, [pc, #28]	; 12c30 <vprintk+0x2dc>
   12c10:	ebffff00 	bl	12818 <printk>
   12c14:	eb000044 	bl	12d2c <clean_reboot>
   12c18:	e28dd014 	add	sp, sp, #20, 0
   12c1c:	e8bd8030 	pop	{r4, r5, pc}
   12c20:	0019ee48 	.word	0x0019ee48
   12c24:	0019e130 	.word	0x0019e130
   12c28:	0019e06c 	.word	0x0019e06c
   12c2c:	0019e0c4 	.word	0x0019e0c4
   12c30:	0019e0fc 	.word	0x0019e0fc

00012c34 <default_putchar>:
   12c34:	e92d4010 	push	{r4, lr}
   12c38:	e1a04000 	mov	r4, r0
   12c3c:	e6ef0070 	uxtb	r0, r0
   12c40:	ebfffd04 	bl	12058 <uart_put8>
   12c44:	e1a00004 	mov	r0, r4
   12c48:	e8bd8010 	pop	{r4, pc}

00012c4c <rpi_putchar_set>:
   12c4c:	e59f300c 	ldr	r3, [pc, #12]	; 12c60 <rpi_putchar_set+0x14>
   12c50:	e5932000 	ldr	r2, [r3]
   12c54:	e5830000 	str	r0, [r3]
   12c58:	e1a00002 	mov	r0, r2
   12c5c:	e12fff1e 	bx	lr
   12c60:	0019ee48 	.word	0x0019ee48

00012c64 <strcat>:
   12c64:	e1a02000 	mov	r2, r0
   12c68:	e1a03002 	mov	r3, r2
   12c6c:	e2822001 	add	r2, r2, #1, 0
   12c70:	e5d3c000 	ldrb	ip, [r3]
   12c74:	e35c0000 	cmp	ip, #0, 0
   12c78:	1afffffa 	bne	12c68 <strcat+0x4>
   12c7c:	e2433001 	sub	r3, r3, #1, 0
   12c80:	e5d12000 	ldrb	r2, [r1]
   12c84:	e2811001 	add	r1, r1, #1, 0
   12c88:	e5e32001 	strb	r2, [r3, #1]!
   12c8c:	e3520000 	cmp	r2, #0, 0
   12c90:	1afffffa 	bne	12c80 <strcat+0x1c>
   12c94:	e12fff1e 	bx	lr

00012c98 <strcmp>:
   12c98:	e5d03000 	ldrb	r3, [r0]
   12c9c:	e3530000 	cmp	r3, #0, 0
   12ca0:	0a000004 	beq	12cb8 <strcmp+0x20>
   12ca4:	e5d12000 	ldrb	r2, [r1]
   12ca8:	e1530002 	cmp	r3, r2
   12cac:	02800001 	addeq	r0, r0, #1, 0
   12cb0:	02811001 	addeq	r1, r1, #1, 0
   12cb4:	0afffff7 	beq	12c98 <strcmp>
   12cb8:	e5d10000 	ldrb	r0, [r1]
   12cbc:	e0430000 	sub	r0, r3, r0
   12cc0:	e12fff1e 	bx	lr

00012cc4 <strcpy>:
   12cc4:	e1a0c000 	mov	ip, r0
   12cc8:	e5d12000 	ldrb	r2, [r1]
   12ccc:	e2811001 	add	r1, r1, #1, 0
   12cd0:	e5cc2000 	strb	r2, [ip]
   12cd4:	e28cc001 	add	ip, ip, #1, 0
   12cd8:	e3520000 	cmp	r2, #0, 0
   12cdc:	1afffff9 	bne	12cc8 <strcpy+0x4>
   12ce0:	e12fff1e 	bx	lr

00012ce4 <strlen>:
   12ce4:	e1a02000 	mov	r2, r0
   12ce8:	e3a00000 	mov	r0, #0, 0
   12cec:	e7d23000 	ldrb	r3, [r2, r0]
   12cf0:	e3530000 	cmp	r3, #0, 0
   12cf4:	012fff1e 	bxeq	lr
   12cf8:	e2800001 	add	r0, r0, #1, 0
   12cfc:	eafffffa 	b	12cec <strlen+0x8>

00012d00 <strncmp>:
   12d00:	e3520000 	cmp	r2, #0, 0
   12d04:	e2422001 	sub	r2, r2, #1, 0
   12d08:	0a000005 	beq	12d24 <strncmp+0x24>
   12d0c:	e4d03001 	ldrb	r3, [r0], #1
   12d10:	e4d1c001 	ldrb	ip, [r1], #1
   12d14:	e153000c 	cmp	r3, ip
   12d18:	0afffff8 	beq	12d00 <strncmp>
   12d1c:	e043000c 	sub	r0, r3, ip
   12d20:	e12fff1e 	bx	lr
   12d24:	e3a00000 	mov	r0, #0, 0
   12d28:	e12fff1e 	bx	lr

00012d2c <clean_reboot>:
   12d2c:	e92d4010 	push	{r4, lr}
   12d30:	e59f0010 	ldr	r0, [pc, #16]	; 12d48 <clean_reboot+0x1c>
   12d34:	eb0000eb 	bl	130e8 <putk>
   12d38:	ebfffcf8 	bl	12120 <uart_flush_tx>
   12d3c:	e3a0000a 	mov	r0, #10, 0
   12d40:	eb000056 	bl	12ea0 <delay_ms>
   12d44:	eb000030 	bl	12e0c <rpi_reboot>
   12d48:	0019e138 	.word	0x0019e138

00012d4c <program_end>:
   12d4c:	e59f0000 	ldr	r0, [pc]	; 12d54 <program_end+0x8>
   12d50:	e12fff1e 	bx	lr
   12d54:	0019f3f8 	.word	0x0019f3f8

00012d58 <_cstart>:
   12d58:	e92d4010 	push	{r4, lr}
   12d5c:	e59f3024 	ldr	r3, [pc, #36]	; 12d88 <_cstart+0x30>
   12d60:	e59f2024 	ldr	r2, [pc, #36]	; 12d8c <_cstart+0x34>
   12d64:	e1530002 	cmp	r3, r2
   12d68:	33a02000 	movcc	r2, #0, 0
   12d6c:	34c32001 	strbcc	r2, [r3], #1
   12d70:	3afffffa 	bcc	12d60 <_cstart+0x8>
   12d74:	ebfffc86 	bl	11f94 <uart_init>
   12d78:	e3a03001 	mov	r3, #1, 0
   12d7c:	ee0f3f1c 	mcr	15, 0, r3, cr15, cr12, {0}
   12d80:	ebffd4d6 	bl	80e0 <notmain>
   12d84:	ebffffe8 	bl	12d2c <clean_reboot>
   12d88:	0019ee50 	.word	0x0019ee50
   12d8c:	0019f3f8 	.word	0x0019f3f8

00012d90 <delay_cycles>:
   12d90:	e2403001 	sub	r3, r0, #1, 0
   12d94:	e3500000 	cmp	r0, #0, 0
   12d98:	012fff1e 	bxeq	lr
   12d9c:	e2811000 	add	r1, r1, #0, 0
   12da0:	e1a00003 	mov	r0, r3
   12da4:	eafffff9 	b	12d90 <delay_cycles>

00012da8 <enable_interrupts>:
   12da8:	e10f0000 	mrs	r0, CPSR
   12dac:	e3c00080 	bic	r0, r0, #128, 0	; 0x80
   12db0:	e121f000 	msr	CPSR_c, r0
   12db4:	e12fff1e 	bx	lr

00012db8 <disable_interrupts>:
   12db8:	e10f0000 	mrs	r0, CPSR
   12dbc:	e3800080 	orr	r0, r0, #128, 0	; 0x80
   12dc0:	e121f000 	msr	CPSR_c, r0
   12dc4:	e12fff1e 	bx	lr

00012dc8 <gpio_panic>:
   12dc8:	e92d000f 	push	{r0, r1, r2, r3}
   12dcc:	e92d4010 	push	{r4, lr}
   12dd0:	e3a03005 	mov	r3, #5, 0
   12dd4:	e59f200c 	ldr	r2, [pc, #12]	; 12de8 <gpio_panic+0x20>
   12dd8:	e59f100c 	ldr	r1, [pc, #12]	; 12dec <gpio_panic+0x24>
   12ddc:	e59f000c 	ldr	r0, [pc, #12]	; 12df0 <gpio_panic+0x28>
   12de0:	ebfffe8c 	bl	12818 <printk>
   12de4:	ebffffd0 	bl	12d2c <clean_reboot>
   12de8:	0019e184 	.word	0x0019e184
   12dec:	0019e144 	.word	0x0019e144
   12df0:	0019e160 	.word	0x0019e160

00012df4 <dev_barrier>:
   12df4:	ea000002 	b	12e04 <dsb>

00012df8 <dmb>:
   12df8:	e3a00000 	mov	r0, #0, 0
   12dfc:	ee070fba 	mcr	15, 0, r0, cr7, cr10, {5}
   12e00:	e12fff1e 	bx	lr

00012e04 <dsb>:
   12e04:	ee070f9a 	mcr	15, 0, r0, cr7, cr10, {4}
   12e08:	e12fff1e 	bx	lr

00012e0c <rpi_reboot>:
   12e0c:	e92d4010 	push	{r4, lr}
   12e10:	ebfffcc2 	bl	12120 <uart_flush_tx>
   12e14:	e3a0000a 	mov	r0, #10, 0
   12e18:	eb000020 	bl	12ea0 <delay_ms>
   12e1c:	e59f1014 	ldr	r1, [pc, #20]	; 12e38 <rpi_reboot+0x2c>
   12e20:	e59f0014 	ldr	r0, [pc, #20]	; 12e3c <rpi_reboot+0x30>
   12e24:	ebffd47e 	bl	8024 <PUT32>
   12e28:	e59f1010 	ldr	r1, [pc, #16]	; 12e40 <rpi_reboot+0x34>
   12e2c:	e59f0010 	ldr	r0, [pc, #16]	; 12e44 <rpi_reboot+0x38>
   12e30:	ebffd47b 	bl	8024 <PUT32>
   12e34:	eafffffe 	b	12e34 <rpi_reboot+0x28>
   12e38:	5a000001 	.word	0x5a000001
   12e3c:	20100024 	.word	0x20100024
   12e40:	5a000020 	.word	0x5a000020
   12e44:	2010001c 	.word	0x2010001c

00012e48 <rpi_wait>:
   12e48:	e12fff1e 	bx	lr

00012e4c <timer_get_usec_raw>:
   12e4c:	e92d4010 	push	{r4, lr}
   12e50:	e59f0004 	ldr	r0, [pc, #4]	; 12e5c <timer_get_usec_raw+0x10>
   12e54:	ebffd474 	bl	802c <GET32>
   12e58:	e8bd8010 	pop	{r4, pc}
   12e5c:	20003004 	.word	0x20003004

00012e60 <timer_get_usec>:
   12e60:	e92d4010 	push	{r4, lr}
   12e64:	ebffffe2 	bl	12df4 <dev_barrier>
   12e68:	ebfffff7 	bl	12e4c <timer_get_usec_raw>
   12e6c:	e1a04000 	mov	r4, r0
   12e70:	ebffffdf 	bl	12df4 <dev_barrier>
   12e74:	e1a00004 	mov	r0, r4
   12e78:	e8bd8010 	pop	{r4, pc}

00012e7c <delay_us>:
   12e7c:	e92d4070 	push	{r4, r5, r6, lr}
   12e80:	e1a05000 	mov	r5, r0
   12e84:	ebfffff5 	bl	12e60 <timer_get_usec>
   12e88:	e1a04000 	mov	r4, r0
   12e8c:	ebfffff3 	bl	12e60 <timer_get_usec>
   12e90:	e0400004 	sub	r0, r0, r4
   12e94:	e1500005 	cmp	r0, r5
   12e98:	3afffffb 	bcc	12e8c <delay_us+0x10>
   12e9c:	e8bd8070 	pop	{r4, r5, r6, pc}

00012ea0 <delay_ms>:
   12ea0:	e92d4010 	push	{r4, lr}
   12ea4:	e0603280 	rsb	r3, r0, r0, lsl #5
   12ea8:	e0800103 	add	r0, r0, r3, lsl #2
   12eac:	e1a00180 	lsl	r0, r0, #3
   12eb0:	ebfffff1 	bl	12e7c <delay_us>
   12eb4:	e8bd8010 	pop	{r4, pc}

00012eb8 <delay_sec>:
   12eb8:	e92d4010 	push	{r4, lr}
   12ebc:	e0603280 	rsb	r3, r0, r0, lsl #5
   12ec0:	e0800103 	add	r0, r0, r3, lsl #2
   12ec4:	e1a00180 	lsl	r0, r0, #3
   12ec8:	ebfffff4 	bl	12ea0 <delay_ms>
   12ecc:	e8bd8010 	pop	{r4, pc}

00012ed0 <unhandled_reset>:
   12ed0:	e24ee004 	sub	lr, lr, #4, 0
   12ed4:	e3a0d409 	mov	sp, #150994944	; 0x9000000
   12ed8:	e92d5fff 	push	{r0, r1, r2, r3, r4, r5, r6, r7, r8, r9, sl, fp, ip, lr}
   12edc:	e1a0000e 	mov	r0, lr
   12ee0:	eb0000c9 	bl	1320c <reset_vector>
   12ee4:	e8bd5fff 	pop	{r0, r1, r2, r3, r4, r5, r6, r7, r8, r9, sl, fp, ip, lr}
   12ee8:	e1b0f00e 	movs	pc, lr

00012eec <unhandled_undefined_instruction>:
   12eec:	e24ee004 	sub	lr, lr, #4, 0
   12ef0:	e3a0d409 	mov	sp, #150994944	; 0x9000000
   12ef4:	e92d5fff 	push	{r0, r1, r2, r3, r4, r5, r6, r7, r8, r9, sl, fp, ip, lr}
   12ef8:	e1a0000e 	mov	r0, lr
   12efc:	eb0000da 	bl	1326c <undefined_instruction_vector>
   12f00:	e8bd5fff 	pop	{r0, r1, r2, r3, r4, r5, r6, r7, r8, r9, sl, fp, ip, lr}
   12f04:	e1b0f00e 	movs	pc, lr

00012f08 <unhandled_prefetch_abort>:
   12f08:	e24ee004 	sub	lr, lr, #4, 0
   12f0c:	e3a0d409 	mov	sp, #150994944	; 0x9000000
   12f10:	e92d5fff 	push	{r0, r1, r2, r3, r4, r5, r6, r7, r8, r9, sl, fp, ip, lr}
   12f14:	e1a0000e 	mov	r0, lr
   12f18:	eb0000af 	bl	131dc <prefetch_abort_vector>
   12f1c:	e8bd5fff 	pop	{r0, r1, r2, r3, r4, r5, r6, r7, r8, r9, sl, fp, ip, lr}
   12f20:	e1b0f00e 	movs	pc, lr

00012f24 <unhandled_data_abort>:
   12f24:	e24ee008 	sub	lr, lr, #8, 0
   12f28:	e3a0d409 	mov	sp, #150994944	; 0x9000000
   12f2c:	e92d5fff 	push	{r0, r1, r2, r3, r4, r5, r6, r7, r8, r9, sl, fp, ip, lr}
   12f30:	e1a0000e 	mov	r0, lr
   12f34:	eb000078 	bl	1311c <data_abort_vector>
   12f38:	e8bd5fff 	pop	{r0, r1, r2, r3, r4, r5, r6, r7, r8, r9, sl, fp, ip, lr}
   12f3c:	e1b0f00e 	movs	pc, lr

00012f40 <unhandled_interrupt>:
   12f40:	e24ee004 	sub	lr, lr, #4, 0
   12f44:	e3a0d409 	mov	sp, #150994944	; 0x9000000
   12f48:	e92d5fff 	push	{r0, r1, r2, r3, r4, r5, r6, r7, r8, r9, sl, fp, ip, lr}
   12f4c:	e1a0000e 	mov	r0, lr
   12f50:	eb000095 	bl	131ac <int_vector>
   12f54:	e8bd5fff 	pop	{r0, r1, r2, r3, r4, r5, r6, r7, r8, r9, sl, fp, ip, lr}
   12f58:	e1b0f00e 	movs	pc, lr

00012f5c <unhandled_swi>:
   12f5c:	e24ee004 	sub	lr, lr, #4, 0
   12f60:	e3a0d409 	mov	sp, #150994944	; 0x9000000
   12f64:	e92d5fff 	push	{r0, r1, r2, r3, r4, r5, r6, r7, r8, r9, sl, fp, ip, lr}
   12f68:	e1a0000e 	mov	r0, lr
   12f6c:	eb0000b2 	bl	1323c <syscall_vector>
   12f70:	e8bd5fff 	pop	{r0, r1, r2, r3, r4, r5, r6, r7, r8, r9, sl, fp, ip, lr}
   12f74:	e1b0f00e 	movs	pc, lr

00012f78 <unhandled_fiq>:
   12f78:	e24ee004 	sub	lr, lr, #4, 0
   12f7c:	e3a0d409 	mov	sp, #150994944	; 0x9000000
   12f80:	e92d5fff 	push	{r0, r1, r2, r3, r4, r5, r6, r7, r8, r9, sl, fp, ip, lr}
   12f84:	e1a0000e 	mov	r0, lr
   12f88:	eb00007b 	bl	1317c <fiq_vector>
   12f8c:	e8bd5fff 	pop	{r0, r1, r2, r3, r4, r5, r6, r7, r8, r9, sl, fp, ip, lr}
   12f90:	e1b0f00e 	movs	pc, lr

00012f94 <gpio_set_pud>:
   12f94:	e92d4030 	push	{r4, r5, lr}
   12f98:	e24dd00c 	sub	sp, sp, #12, 0
   12f9c:	e3500035 	cmp	r0, #53, 0	; 0x35
   12fa0:	8a000022 	bhi	13030 <gpio_set_pud+0x9c>
   12fa4:	e1a04000 	mov	r4, r0
   12fa8:	e1a05001 	mov	r5, r1
   12fac:	e3510003 	cmp	r1, #3, 0
   12fb0:	8a000026 	bhi	13050 <gpio_set_pud+0xbc>
   12fb4:	e3510002 	cmp	r1, #2, 0
   12fb8:	8a00002c 	bhi	13070 <gpio_set_pud+0xdc>
   12fbc:	ebffff8c 	bl	12df4 <dev_barrier>
   12fc0:	e1a01005 	mov	r1, r5
   12fc4:	e59f00c4 	ldr	r0, [pc, #196]	; 13090 <gpio_set_pud+0xfc>
   12fc8:	ebffd415 	bl	8024 <PUT32>
   12fcc:	e3a00096 	mov	r0, #150, 0	; 0x96
   12fd0:	ebffffa9 	bl	12e7c <delay_us>
   12fd4:	e354001f 	cmp	r4, #31, 0
   12fd8:	8a00002a 	bhi	13088 <gpio_set_pud+0xf4>
   12fdc:	e59f50b0 	ldr	r5, [pc, #176]	; 13094 <gpio_set_pud+0x100>
   12fe0:	e204401f 	and	r4, r4, #31, 0
   12fe4:	e3a01001 	mov	r1, #1, 0
   12fe8:	e1a01411 	lsl	r1, r1, r4
   12fec:	e1a00005 	mov	r0, r5
   12ff0:	ebffd40b 	bl	8024 <PUT32>
   12ff4:	e3a00096 	mov	r0, #150, 0	; 0x96
   12ff8:	ebffff9f 	bl	12e7c <delay_us>
   12ffc:	e3a01000 	mov	r1, #0, 0
   13000:	e59f0088 	ldr	r0, [pc, #136]	; 13090 <gpio_set_pud+0xfc>
   13004:	ebffd406 	bl	8024 <PUT32>
   13008:	e3a00096 	mov	r0, #150, 0	; 0x96
   1300c:	ebffff9a 	bl	12e7c <delay_us>
   13010:	e3a01000 	mov	r1, #0, 0
   13014:	e1a00005 	mov	r0, r5
   13018:	ebffd401 	bl	8024 <PUT32>
   1301c:	e3a00096 	mov	r0, #150, 0	; 0x96
   13020:	ebffff95 	bl	12e7c <delay_us>
   13024:	ebffff72 	bl	12df4 <dev_barrier>
   13028:	e28dd00c 	add	sp, sp, #12, 0
   1302c:	e8bd8030 	pop	{r4, r5, pc}
   13030:	e59f3060 	ldr	r3, [pc, #96]	; 13098 <gpio_set_pud+0x104>
   13034:	e58d3000 	str	r3, [sp]
   13038:	e3a03015 	mov	r3, #21, 0
   1303c:	e59f2058 	ldr	r2, [pc, #88]	; 1309c <gpio_set_pud+0x108>
   13040:	e59f1058 	ldr	r1, [pc, #88]	; 130a0 <gpio_set_pud+0x10c>
   13044:	e59f0058 	ldr	r0, [pc, #88]	; 130a4 <gpio_set_pud+0x110>
   13048:	ebfffdf2 	bl	12818 <printk>
   1304c:	ebffff36 	bl	12d2c <clean_reboot>
   13050:	e59f3050 	ldr	r3, [pc, #80]	; 130a8 <gpio_set_pud+0x114>
   13054:	e58d3000 	str	r3, [sp]
   13058:	e3a03016 	mov	r3, #22, 0
   1305c:	e59f2038 	ldr	r2, [pc, #56]	; 1309c <gpio_set_pud+0x108>
   13060:	e59f1038 	ldr	r1, [pc, #56]	; 130a0 <gpio_set_pud+0x10c>
   13064:	e59f0040 	ldr	r0, [pc, #64]	; 130ac <gpio_set_pud+0x118>
   13068:	ebfffdea 	bl	12818 <printk>
   1306c:	ebffff2e 	bl	12d2c <clean_reboot>
   13070:	e3a03019 	mov	r3, #25, 0
   13074:	e59f2020 	ldr	r2, [pc, #32]	; 1309c <gpio_set_pud+0x108>
   13078:	e59f1020 	ldr	r1, [pc, #32]	; 130a0 <gpio_set_pud+0x10c>
   1307c:	e59f002c 	ldr	r0, [pc, #44]	; 130b0 <gpio_set_pud+0x11c>
   13080:	ebfffde4 	bl	12818 <printk>
   13084:	ebffff28 	bl	12d2c <clean_reboot>
   13088:	e59f5024 	ldr	r5, [pc, #36]	; 130b4 <gpio_set_pud+0x120>
   1308c:	eaffffd3 	b	12fe0 <gpio_set_pud+0x4c>
   13090:	20200094 	.word	0x20200094
   13094:	20200098 	.word	0x20200098
   13098:	0019e1d4 	.word	0x0019e1d4
   1309c:	0019e238 	.word	0x0019e238
   130a0:	0019e190 	.word	0x0019e190
   130a4:	0019e19c 	.word	0x0019e19c
   130a8:	0019e218 	.word	0x0019e218
   130ac:	0019e1e0 	.word	0x0019e1e0
   130b0:	0019e220 	.word	0x0019e220
   130b4:	2020009c 	.word	0x2020009c

000130b8 <gpio_set_pullup>:
   130b8:	e92d4010 	push	{r4, lr}
   130bc:	e3a01002 	mov	r1, #2, 0
   130c0:	ebffffb3 	bl	12f94 <gpio_set_pud>
   130c4:	e8bd8010 	pop	{r4, pc}

000130c8 <gpio_set_pulldown>:
   130c8:	e92d4010 	push	{r4, lr}
   130cc:	e3a01001 	mov	r1, #1, 0
   130d0:	ebffffaf 	bl	12f94 <gpio_set_pud>
   130d4:	e8bd8010 	pop	{r4, pc}

000130d8 <gpio_set_pud_off>:
   130d8:	e92d4010 	push	{r4, lr}
   130dc:	e3a01000 	mov	r1, #0, 0
   130e0:	ebffffab 	bl	12f94 <gpio_set_pud>
   130e4:	e8bd8010 	pop	{r4, pc}

000130e8 <putk>:
   130e8:	e92d4010 	push	{r4, lr}
   130ec:	e1a04000 	mov	r4, r0
   130f0:	e5d40000 	ldrb	r0, [r4]
   130f4:	e3500000 	cmp	r0, #0, 0
   130f8:	0a000004 	beq	13110 <putk+0x28>
   130fc:	e59f3014 	ldr	r3, [pc, #20]	; 13118 <putk+0x30>
   13100:	e5933000 	ldr	r3, [r3]
   13104:	e12fff33 	blx	r3
   13108:	e2844001 	add	r4, r4, #1, 0
   1310c:	eafffff7 	b	130f0 <putk+0x8>
   13110:	e3a00001 	mov	r0, #1, 0
   13114:	e8bd8010 	pop	{r4, pc}
   13118:	0019ee48 	.word	0x0019ee48

0001311c <data_abort_vector>:
   1311c:	e52de004 	push	{lr}		; (str lr, [sp, #-4]!)
   13120:	e24dd00c 	sub	sp, sp, #12, 0
   13124:	e58d0000 	str	r0, [sp]
   13128:	e3a03003 	mov	r3, #3, 0
   1312c:	e59f200c 	ldr	r2, [pc, #12]	; 13140 <data_abort_vector+0x24>
   13130:	e59f100c 	ldr	r1, [pc, #12]	; 13144 <data_abort_vector+0x28>
   13134:	e59f000c 	ldr	r0, [pc, #12]	; 13148 <data_abort_vector+0x2c>
   13138:	ebfffdb6 	bl	12818 <printk>
   1313c:	ebfffefa 	bl	12d2c <clean_reboot>
   13140:	0019e2a4 	.word	0x0019e2a4
   13144:	0019e248 	.word	0x0019e248
   13148:	0019e274 	.word	0x0019e274

0001314c <fast_interrupt_vector>:
   1314c:	e52de004 	push	{lr}		; (str lr, [sp, #-4]!)
   13150:	e24dd00c 	sub	sp, sp, #12, 0
   13154:	e58d0000 	str	r0, [sp]
   13158:	e3a03003 	mov	r3, #3, 0
   1315c:	e59f200c 	ldr	r2, [pc, #12]	; 13170 <fast_interrupt_vector+0x24>
   13160:	e59f100c 	ldr	r1, [pc, #12]	; 13174 <fast_interrupt_vector+0x28>
   13164:	e59f000c 	ldr	r0, [pc, #12]	; 13178 <fast_interrupt_vector+0x2c>
   13168:	ebfffdaa 	bl	12818 <printk>
   1316c:	ebfffeee 	bl	12d2c <clean_reboot>
   13170:	0019e310 	.word	0x0019e310
   13174:	0019e2b8 	.word	0x0019e2b8
   13178:	0019e2dc 	.word	0x0019e2dc

0001317c <fiq_vector>:
   1317c:	e52de004 	push	{lr}		; (str lr, [sp, #-4]!)
   13180:	e24dd00c 	sub	sp, sp, #12, 0
   13184:	e58d0000 	str	r0, [sp]
   13188:	e3a03006 	mov	r3, #6, 0
   1318c:	e59f200c 	ldr	r2, [pc, #12]	; 131a0 <fiq_vector+0x24>
   13190:	e59f100c 	ldr	r1, [pc, #12]	; 131a4 <fiq_vector+0x28>
   13194:	e59f000c 	ldr	r0, [pc, #12]	; 131a8 <fiq_vector+0x2c>
   13198:	ebfffd9e 	bl	12818 <printk>
   1319c:	ebfffee2 	bl	12d2c <clean_reboot>
   131a0:	0019e328 	.word	0x0019e328
   131a4:	0019e2b8 	.word	0x0019e2b8
   131a8:	0019e2dc 	.word	0x0019e2dc

000131ac <int_vector>:
   131ac:	e52de004 	push	{lr}		; (str lr, [sp, #-4]!)
   131b0:	e24dd00c 	sub	sp, sp, #12, 0
   131b4:	e58d0000 	str	r0, [sp]
   131b8:	e3a03003 	mov	r3, #3, 0
   131bc:	e59f200c 	ldr	r2, [pc, #12]	; 131d0 <int_vector+0x24>
   131c0:	e59f100c 	ldr	r1, [pc, #12]	; 131d4 <int_vector+0x28>
   131c4:	e59f000c 	ldr	r0, [pc, #12]	; 131d8 <int_vector+0x2c>
   131c8:	ebfffd92 	bl	12818 <printk>
   131cc:	ebfffed6 	bl	12d2c <clean_reboot>
   131d0:	0019e384 	.word	0x0019e384
   131d4:	0019e334 	.word	0x0019e334
   131d8:	0019e358 	.word	0x0019e358

000131dc <prefetch_abort_vector>:
   131dc:	e52de004 	push	{lr}		; (str lr, [sp, #-4]!)
   131e0:	e24dd00c 	sub	sp, sp, #12, 0
   131e4:	e58d0000 	str	r0, [sp]
   131e8:	e3a03003 	mov	r3, #3, 0
   131ec:	e59f200c 	ldr	r2, [pc, #12]	; 13200 <prefetch_abort_vector+0x24>
   131f0:	e59f100c 	ldr	r1, [pc, #12]	; 13204 <prefetch_abort_vector+0x28>
   131f4:	e59f000c 	ldr	r0, [pc, #12]	; 13208 <prefetch_abort_vector+0x2c>
   131f8:	ebfffd86 	bl	12818 <printk>
   131fc:	ebfffeca 	bl	12d2c <clean_reboot>
   13200:	0019e3e8 	.word	0x0019e3e8
   13204:	0019e390 	.word	0x0019e390
   13208:	0019e3b8 	.word	0x0019e3b8

0001320c <reset_vector>:
   1320c:	e52de004 	push	{lr}		; (str lr, [sp, #-4]!)
   13210:	e24dd00c 	sub	sp, sp, #12, 0
   13214:	e58d0000 	str	r0, [sp]
   13218:	e3a03003 	mov	r3, #3, 0
   1321c:	e59f200c 	ldr	r2, [pc, #12]	; 13230 <reset_vector+0x24>
   13220:	e59f100c 	ldr	r1, [pc, #12]	; 13234 <reset_vector+0x28>
   13224:	e59f000c 	ldr	r0, [pc, #12]	; 13238 <reset_vector+0x2c>
   13228:	ebfffd7a 	bl	12818 <printk>
   1322c:	ebfffebe 	bl	12d2c <clean_reboot>
   13230:	0019e458 	.word	0x0019e458
   13234:	0019e400 	.word	0x0019e400
   13238:	0019e424 	.word	0x0019e424

0001323c <syscall_vector>:
   1323c:	e52de004 	push	{lr}		; (str lr, [sp, #-4]!)
   13240:	e24dd00c 	sub	sp, sp, #12, 0
   13244:	e58d0000 	str	r0, [sp]
   13248:	e3a03003 	mov	r3, #3, 0
   1324c:	e59f200c 	ldr	r2, [pc, #12]	; 13260 <syscall_vector+0x24>
   13250:	e59f100c 	ldr	r1, [pc, #12]	; 13264 <syscall_vector+0x28>
   13254:	e59f000c 	ldr	r0, [pc, #12]	; 13268 <syscall_vector+0x2c>
   13258:	ebfffd6e 	bl	12818 <printk>
   1325c:	ebfffeb2 	bl	12d2c <clean_reboot>
   13260:	0019e4bc 	.word	0x0019e4bc
   13264:	0019e468 	.word	0x0019e468
   13268:	0019e48c 	.word	0x0019e48c

0001326c <undefined_instruction_vector>:
   1326c:	e52de004 	push	{lr}		; (str lr, [sp, #-4]!)
   13270:	e24dd00c 	sub	sp, sp, #12, 0
   13274:	e5903000 	ldr	r3, [r0]
   13278:	e58d3004 	str	r3, [sp, #4]
   1327c:	e58d0000 	str	r0, [sp]
   13280:	e3a03003 	mov	r3, #3, 0
   13284:	e59f200c 	ldr	r2, [pc, #12]	; 13298 <undefined_instruction_vector+0x2c>
   13288:	e59f100c 	ldr	r1, [pc, #12]	; 1329c <undefined_instruction_vector+0x30>
   1328c:	e59f000c 	ldr	r0, [pc, #12]	; 132a0 <undefined_instruction_vector+0x34>
   13290:	ebfffd60 	bl	12818 <printk>
   13294:	ebfffea4 	bl	12d2c <clean_reboot>
   13298:	0019e544 	.word	0x0019e544
   1329c:	0019e4cc 	.word	0x0019e4cc
   132a0:	0019e4fc 	.word	0x0019e4fc

000132a4 <__udivsi3>:
   132a4:	e2512001 	subs	r2, r1, #1, 0
   132a8:	012fff1e 	bxeq	lr
   132ac:	3a000036 	bcc	1338c <__udivsi3+0xe8>
   132b0:	e1500001 	cmp	r0, r1
   132b4:	9a000022 	bls	13344 <__udivsi3+0xa0>
   132b8:	e1110002 	tst	r1, r2
   132bc:	0a000023 	beq	13350 <__udivsi3+0xac>
   132c0:	e311020e 	tst	r1, #-536870912	; 0xe0000000
   132c4:	01a01181 	lsleq	r1, r1, #3
   132c8:	03a03008 	moveq	r3, #8, 0
   132cc:	13a03001 	movne	r3, #1, 0
   132d0:	e3510201 	cmp	r1, #268435456	; 0x10000000
   132d4:	31510000 	cmpcc	r1, r0
   132d8:	31a01201 	lslcc	r1, r1, #4
   132dc:	31a03203 	lslcc	r3, r3, #4
   132e0:	3afffffa 	bcc	132d0 <__udivsi3+0x2c>
   132e4:	e3510102 	cmp	r1, #-2147483648	; 0x80000000
   132e8:	31510000 	cmpcc	r1, r0
   132ec:	31a01081 	lslcc	r1, r1, #1
   132f0:	31a03083 	lslcc	r3, r3, #1
   132f4:	3afffffa 	bcc	132e4 <__udivsi3+0x40>
   132f8:	e3a02000 	mov	r2, #0, 0
   132fc:	e1500001 	cmp	r0, r1
   13300:	20400001 	subcs	r0, r0, r1
   13304:	21822003 	orrcs	r2, r2, r3
   13308:	e15000a1 	cmp	r0, r1, lsr #1
   1330c:	204000a1 	subcs	r0, r0, r1, lsr #1
   13310:	218220a3 	orrcs	r2, r2, r3, lsr #1
   13314:	e1500121 	cmp	r0, r1, lsr #2
   13318:	20400121 	subcs	r0, r0, r1, lsr #2
   1331c:	21822123 	orrcs	r2, r2, r3, lsr #2
   13320:	e15001a1 	cmp	r0, r1, lsr #3
   13324:	204001a1 	subcs	r0, r0, r1, lsr #3
   13328:	218221a3 	orrcs	r2, r2, r3, lsr #3
   1332c:	e3500000 	cmp	r0, #0, 0
   13330:	11b03223 	lsrsne	r3, r3, #4
   13334:	11a01221 	lsrne	r1, r1, #4
   13338:	1affffef 	bne	132fc <__udivsi3+0x58>
   1333c:	e1a00002 	mov	r0, r2
   13340:	e12fff1e 	bx	lr
   13344:	03a00001 	moveq	r0, #1, 0
   13348:	13a00000 	movne	r0, #0, 0
   1334c:	e12fff1e 	bx	lr
   13350:	e3510801 	cmp	r1, #65536	; 0x10000
   13354:	21a01821 	lsrcs	r1, r1, #16
   13358:	23a02010 	movcs	r2, #16, 0
   1335c:	33a02000 	movcc	r2, #0, 0
   13360:	e3510c01 	cmp	r1, #256	; 0x100
   13364:	21a01421 	lsrcs	r1, r1, #8
   13368:	22822008 	addcs	r2, r2, #8, 0
   1336c:	e3510010 	cmp	r1, #16, 0
   13370:	21a01221 	lsrcs	r1, r1, #4
   13374:	22822004 	addcs	r2, r2, #4, 0
   13378:	e3510004 	cmp	r1, #4, 0
   1337c:	82822003 	addhi	r2, r2, #3, 0
   13380:	908220a1 	addls	r2, r2, r1, lsr #1
   13384:	e1a00230 	lsr	r0, r0, r2
   13388:	e12fff1e 	bx	lr
   1338c:	e3500000 	cmp	r0, #0, 0
   13390:	13e00000 	mvnne	r0, #0, 0
   13394:	ea000007 	b	133b8 <__aeabi_idiv0>

00013398 <__aeabi_uidivmod>:
   13398:	e3510000 	cmp	r1, #0, 0
   1339c:	0afffffa 	beq	1338c <__udivsi3+0xe8>
   133a0:	e92d4003 	push	{r0, r1, lr}
   133a4:	ebffffbe 	bl	132a4 <__udivsi3>
   133a8:	e8bd4006 	pop	{r1, r2, lr}
   133ac:	e0030092 	mul	r3, r2, r0
   133b0:	e0411003 	sub	r1, r1, r3
   133b4:	e12fff1e 	bx	lr

000133b8 <__aeabi_idiv0>:
   133b8:	e12fff1e 	bx	lr

000133bc <__code_end__>:
   133bc:	00000000 	andeq	r0, r0, r0
